
main.elf:     file format elf32-littleriscv


Disassembly of section .text:

00000000 <_isr_handler>:
       0:	0080006f          	j	8 <_isr_routine>
       4:	1440006f          	j	148 <_start>

00000008 <_isr_routine>:
       8:	f8010113          	addi	sp,sp,-128
       c:	00112023          	sw	ra,0(sp)
      10:	00312423          	sw	gp,8(sp)
      14:	00412623          	sw	tp,12(sp)
      18:	00512823          	sw	t0,16(sp)
      1c:	00612a23          	sw	t1,20(sp)
      20:	00712c23          	sw	t2,24(sp)
      24:	00812e23          	sw	s0,28(sp)
      28:	02912023          	sw	s1,32(sp)
      2c:	02a12223          	sw	a0,36(sp)
      30:	02b12423          	sw	a1,40(sp)
      34:	02c12623          	sw	a2,44(sp)
      38:	02d12823          	sw	a3,48(sp)
      3c:	02e12a23          	sw	a4,52(sp)
      40:	02f12c23          	sw	a5,56(sp)
      44:	03012e23          	sw	a6,60(sp)
      48:	05112023          	sw	a7,64(sp)
      4c:	05212223          	sw	s2,68(sp)
      50:	05312423          	sw	s3,72(sp)
      54:	05412623          	sw	s4,76(sp)
      58:	05512823          	sw	s5,80(sp)
      5c:	05612a23          	sw	s6,84(sp)
      60:	05712c23          	sw	s7,88(sp)
      64:	05812e23          	sw	s8,92(sp)
      68:	07912023          	sw	s9,96(sp)
      6c:	07a12223          	sw	s10,100(sp)
      70:	07b12423          	sw	s11,104(sp)
      74:	07c12623          	sw	t3,108(sp)
      78:	07d12823          	sw	t4,112(sp)
      7c:	07e12a23          	sw	t5,116(sp)
      80:	07f12c23          	sw	t6,120(sp)
      84:	342022f3          	csrr	t0,mcause
      88:	80000337          	lui	t1,0x80000
      8c:	02536463          	bltu	t1,t0,b4 <external_irq>
      90:	00028833          	add	a6,t0,zero
      94:	00b00313          	li	t1,11
      98:	00628463          	beq	t0,t1,a0 <skip_init_args>
      9c:	34102573          	csrr	a0,mepc

000000a0 <skip_init_args>:
      a0:	464010ef          	jal	1504 <handle_exception>
      a4:	341022f3          	csrr	t0,mepc
      a8:	00428293          	addi	t0,t0,4
      ac:	34129073          	csrw	mepc,t0
      b0:	0180006f          	j	c8 <restore>

000000b4 <external_irq>:
      b4:	800002b7          	lui	t0,0x80000
      b8:	fff28293          	addi	t0,t0,-1 # 7fffffff <_stack_end+0x7fefcc7b>
      bc:	34202373          	csrr	t1,mcause
      c0:	0062f533          	and	a0,t0,t1
      c4:	124000ef          	jal	1e8 <handle_interrupt>

000000c8 <restore>:
      c8:	00012083          	lw	ra,0(sp)
      cc:	00812183          	lw	gp,8(sp)
      d0:	00c12203          	lw	tp,12(sp)
      d4:	01012283          	lw	t0,16(sp)
      d8:	01412303          	lw	t1,20(sp)
      dc:	01812383          	lw	t2,24(sp)
      e0:	01c12403          	lw	s0,28(sp)
      e4:	02012483          	lw	s1,32(sp)
      e8:	02412503          	lw	a0,36(sp)
      ec:	02812583          	lw	a1,40(sp)
      f0:	02c12603          	lw	a2,44(sp)
      f4:	03012683          	lw	a3,48(sp)
      f8:	03412703          	lw	a4,52(sp)
      fc:	03812783          	lw	a5,56(sp)
     100:	03c12803          	lw	a6,60(sp)
     104:	04012883          	lw	a7,64(sp)
     108:	04412903          	lw	s2,68(sp)
     10c:	04812983          	lw	s3,72(sp)
     110:	04c12a03          	lw	s4,76(sp)
     114:	05012a83          	lw	s5,80(sp)
     118:	05412b03          	lw	s6,84(sp)
     11c:	05812b83          	lw	s7,88(sp)
     120:	05c12c03          	lw	s8,92(sp)
     124:	06012c83          	lw	s9,96(sp)
     128:	06412d03          	lw	s10,100(sp)
     12c:	06812d83          	lw	s11,104(sp)
     130:	06c12e03          	lw	t3,108(sp)
     134:	07012e83          	lw	t4,112(sp)
     138:	07412f03          	lw	t5,116(sp)
     13c:	07812f83          	lw	t6,120(sp)
     140:	08010113          	addi	sp,sp,128
     144:	30200073          	mret

00000148 <_start>:
     148:	30401073          	csrw	mie,zero
     14c:	00103117          	auipc	sp,0x103
     150:	23810113          	addi	sp,sp,568 # 103384 <_stack_end>
     154:	00002197          	auipc	gp,0x2
     158:	eb818193          	addi	gp,gp,-328 # 200c <__global_pointer>
     15c:	00001517          	auipc	a0,0x1
     160:	61c50513          	addi	a0,a0,1564 # 1778 <welcome_msg>
     164:	00400893          	li	a7,4
     168:	00000073          	ecall
     16c:	190010ef          	jal	12fc <main>

00000170 <loop>:
     170:	0000006f          	j	170 <loop>

00000174 <create_player>:
     174:	03200713          	li	a4,50
     178:	00e52023          	sw	a4,0(a0)
     17c:	3e800713          	li	a4,1000
     180:	00e52223          	sw	a4,4(a0)
     184:	00500713          	li	a4,5
     188:	00e52423          	sw	a4,8(a0)
     18c:	00600713          	li	a4,6
     190:	00e52623          	sw	a4,12(a0)
     194:	00052823          	sw	zero,16(a0)
     198:	00052a23          	sw	zero,20(a0)
     19c:	00052c23          	sw	zero,24(a0)
     1a0:	00052e23          	sw	zero,28(a0)
     1a4:	02052023          	sw	zero,32(a0)
     1a8:	02052223          	sw	zero,36(a0)
     1ac:	02052423          	sw	zero,40(a0)
     1b0:	02052623          	sw	zero,44(a0)
     1b4:	02052823          	sw	zero,48(a0)
     1b8:	00008067          	ret

000001bc <get_switches>:
     1bc:	04000737          	lui	a4,0x4000
     1c0:	01072683          	lw	a3,16(a4) # 4000010 <_stack_end+0x3efcc8c>
     1c4:	00100793          	li	a5,1
     1c8:	00a797b3          	sll	a5,a5,a0
     1cc:	fff78793          	addi	a5,a5,-1
     1d0:	00d7f533          	and	a0,a5,a3
     1d4:	00008067          	ret

000001d8 <get_btn>:
     1d8:	040007b7          	lui	a5,0x4000
     1dc:	0d07c503          	lbu	a0,208(a5) # 40000d0 <_stack_end+0x3efcd4c>
     1e0:	00157513          	andi	a0,a0,1
     1e4:	00008067          	ret

000001e8 <handle_interrupt>:
     1e8:	00008067          	ret

000001ec <clear_screen>:
     1ec:	00002537          	lui	a0,0x2
     1f0:	80c50513          	addi	a0,a0,-2036 # 180c <welcome_msg+0x94>
     1f4:	1c80106f          	j	13bc <print>

000001f8 <clear_row>:
     1f8:	00002537          	lui	a0,0x2
     1fc:	81450513          	addi	a0,a0,-2028 # 1814 <welcome_msg+0x9c>
     200:	1bc0106f          	j	13bc <print>

00000204 <error_message>:
     204:	00002537          	lui	a0,0x2
     208:	ff010113          	addi	sp,sp,-16
     20c:	82050513          	addi	a0,a0,-2016 # 1820 <welcome_msg+0xa8>
     210:	00112623          	sw	ra,12(sp)
     214:	1a8010ef          	jal	13bc <print>
     218:	00c12083          	lw	ra,12(sp)
     21c:	00002537          	lui	a0,0x2
     220:	81450513          	addi	a0,a0,-2028 # 1814 <welcome_msg+0x9c>
     224:	01010113          	addi	sp,sp,16
     228:	1940106f          	j	13bc <print>

0000022c <set_leds>:
     22c:	0ff57513          	zext.b	a0,a0
     230:	040007b7          	lui	a5,0x4000
     234:	00a78023          	sb	a0,0(a5) # 4000000 <_stack_end+0x3efcc7c>
     238:	00008067          	ret

0000023c <pretty_print>:
     23c:	fd010113          	addi	sp,sp,-48
     240:	02112623          	sw	ra,44(sp)
     244:	02812423          	sw	s0,40(sp)
     248:	02912223          	sw	s1,36(sp)
     24c:	00054403          	lbu	s0,0(a0)
     250:	06040c63          	beqz	s0,2c8 <pretty_print+0x8c>
     254:	03212023          	sw	s2,32(sp)
     258:	42003937          	lui	s2,0x42003
     25c:	01312e23          	sw	s3,28(sp)
     260:	00150493          	addi	s1,a0,1
     264:	01e00993          	li	s3,30
     268:	80190913          	addi	s2,s2,-2047 # 42002801 <_stack_end+0x41eff47d>
     26c:	00c10513          	addi	a0,sp,12
     270:	00810623          	sb	s0,12(sp)
     274:	000106a3          	sb	zero,13(sp)
     278:	144010ef          	jal	13bc <print>
     27c:	fdf40793          	addi	a5,s0,-33
     280:	0ff7f793          	zext.b	a5,a5
     284:	04f9ec63          	bltu	s3,a5,2dc <pretty_print+0xa0>
     288:	00f957b3          	srl	a5,s2,a5
     28c:	0017f793          	andi	a5,a5,1
     290:	07800713          	li	a4,120
     294:	04078463          	beqz	a5,2dc <pretty_print+0xa0>
     298:	000017b7          	lui	a5,0x1
     29c:	bb878793          	addi	a5,a5,-1096 # bb8 <parkinglot+0x74>
     2a0:	00000013          	nop
     2a4:	fff78793          	addi	a5,a5,-1
     2a8:	fe079ce3          	bnez	a5,2a0 <pretty_print+0x64>
     2ac:	fff70713          	addi	a4,a4,-1
     2b0:	fe0714e3          	bnez	a4,298 <pretty_print+0x5c>
     2b4:	0004c403          	lbu	s0,0(s1)
     2b8:	00148493          	addi	s1,s1,1
     2bc:	fa0418e3          	bnez	s0,26c <pretty_print+0x30>
     2c0:	02012903          	lw	s2,32(sp)
     2c4:	01c12983          	lw	s3,28(sp)
     2c8:	02c12083          	lw	ra,44(sp)
     2cc:	02812403          	lw	s0,40(sp)
     2d0:	02412483          	lw	s1,36(sp)
     2d4:	03010113          	addi	sp,sp,48
     2d8:	00008067          	ret
     2dc:	01400713          	li	a4,20
     2e0:	000017b7          	lui	a5,0x1
     2e4:	bb878793          	addi	a5,a5,-1096 # bb8 <parkinglot+0x74>
     2e8:	00000013          	nop
     2ec:	fff78793          	addi	a5,a5,-1
     2f0:	fe079ce3          	bnez	a5,2e8 <pretty_print+0xac>
     2f4:	fff70713          	addi	a4,a4,-1
     2f8:	fe0714e3          	bnez	a4,2e0 <pretty_print+0xa4>
     2fc:	0004c403          	lbu	s0,0(s1)
     300:	00148493          	addi	s1,s1,1
     304:	f60414e3          	bnez	s0,26c <pretty_print+0x30>
     308:	fb9ff06f          	j	2c0 <pretty_print+0x84>

0000030c <delay>:
     30c:	00050693          	mv	a3,a0
     310:	02050263          	beqz	a0,334 <delay+0x28>
     314:	00000713          	li	a4,0
     318:	000017b7          	lui	a5,0x1
     31c:	bb878793          	addi	a5,a5,-1096 # bb8 <parkinglot+0x74>
     320:	00000013          	nop
     324:	fff78793          	addi	a5,a5,-1
     328:	fe079ce3          	bnez	a5,320 <delay+0x14>
     32c:	00170713          	addi	a4,a4,1
     330:	fed714e3          	bne	a4,a3,318 <delay+0xc>
     334:	00008067          	ret

00000338 <print_status>:
     338:	ff010113          	addi	sp,sp,-16
     33c:	00812423          	sw	s0,8(sp)
     340:	00050413          	mv	s0,a0
     344:	00002537          	lui	a0,0x2
     348:	85c50513          	addi	a0,a0,-1956 # 185c <welcome_msg+0xe4>
     34c:	00112623          	sw	ra,12(sp)
     350:	00912223          	sw	s1,4(sp)
     354:	068010ef          	jal	13bc <print>
     358:	00042503          	lw	a0,0(s0)
     35c:	000027b7          	lui	a5,0x2
     360:	87878793          	addi	a5,a5,-1928 # 1878 <welcome_msg+0x100>
     364:	00a78533          	add	a0,a5,a0
     368:	000024b7          	lui	s1,0x2
     36c:	050010ef          	jal	13bc <print>
     370:	88448513          	addi	a0,s1,-1916 # 1884 <welcome_msg+0x10c>
     374:	048010ef          	jal	13bc <print>
     378:	00442503          	lw	a0,4(s0)
     37c:	000027b7          	lui	a5,0x2
     380:	88878793          	addi	a5,a5,-1912 # 1888 <welcome_msg+0x110>
     384:	00a78533          	add	a0,a5,a0
     388:	034010ef          	jal	13bc <print>
     38c:	88448513          	addi	a0,s1,-1916
     390:	02c010ef          	jal	13bc <print>
     394:	00842503          	lw	a0,8(s0)
     398:	000027b7          	lui	a5,0x2
     39c:	89078793          	addi	a5,a5,-1904 # 1890 <welcome_msg+0x118>
     3a0:	00a78533          	add	a0,a5,a0
     3a4:	018010ef          	jal	13bc <print>
     3a8:	88448513          	addi	a0,s1,-1916
     3ac:	010010ef          	jal	13bc <print>
     3b0:	00c42503          	lw	a0,12(s0)
     3b4:	000027b7          	lui	a5,0x2
     3b8:	89c78793          	addi	a5,a5,-1892 # 189c <welcome_msg+0x124>
     3bc:	00a78533          	add	a0,a5,a0
     3c0:	7fd000ef          	jal	13bc <print>
     3c4:	88448513          	addi	a0,s1,-1916
     3c8:	7f5000ef          	jal	13bc <print>
     3cc:	00002537          	lui	a0,0x2
     3d0:	8a450513          	addi	a0,a0,-1884 # 18a4 <welcome_msg+0x12c>
     3d4:	7e9000ef          	jal	13bc <print>
     3d8:	01042783          	lw	a5,16(s0)
     3dc:	08079263          	bnez	a5,460 <print_status+0x128>
     3e0:	01442783          	lw	a5,20(s0)
     3e4:	06079663          	bnez	a5,450 <print_status+0x118>
     3e8:	01c42783          	lw	a5,28(s0)
     3ec:	04079a63          	bnez	a5,440 <print_status+0x108>
     3f0:	02042783          	lw	a5,32(s0)
     3f4:	02079e63          	bnez	a5,430 <print_status+0xf8>
     3f8:	01042783          	lw	a5,16(s0)
     3fc:	00079e63          	bnez	a5,418 <print_status+0xe0>
     400:	01442783          	lw	a5,20(s0)
     404:	00079a63          	bnez	a5,418 <print_status+0xe0>
     408:	01c42783          	lw	a5,28(s0)
     40c:	00079663          	bnez	a5,418 <print_status+0xe0>
     410:	02042783          	lw	a5,32(s0)
     414:	04078e63          	beqz	a5,470 <print_status+0x138>
     418:	00812403          	lw	s0,8(sp)
     41c:	00c12083          	lw	ra,12(sp)
     420:	88448513          	addi	a0,s1,-1916
     424:	00412483          	lw	s1,4(sp)
     428:	01010113          	addi	sp,sp,16
     42c:	7910006f          	j	13bc <print>
     430:	00002537          	lui	a0,0x2
     434:	8e850513          	addi	a0,a0,-1816 # 18e8 <welcome_msg+0x170>
     438:	785000ef          	jal	13bc <print>
     43c:	fbdff06f          	j	3f8 <print_status+0xc0>
     440:	00002537          	lui	a0,0x2
     444:	8d050513          	addi	a0,a0,-1840 # 18d0 <welcome_msg+0x158>
     448:	775000ef          	jal	13bc <print>
     44c:	fa5ff06f          	j	3f0 <print_status+0xb8>
     450:	00002537          	lui	a0,0x2
     454:	8c050513          	addi	a0,a0,-1856 # 18c0 <welcome_msg+0x148>
     458:	765000ef          	jal	13bc <print>
     45c:	f8dff06f          	j	3e8 <print_status+0xb0>
     460:	00002537          	lui	a0,0x2
     464:	8b050513          	addi	a0,a0,-1872 # 18b0 <welcome_msg+0x138>
     468:	755000ef          	jal	13bc <print>
     46c:	f75ff06f          	j	3e0 <print_status+0xa8>
     470:	00002537          	lui	a0,0x2
     474:	8fc50513          	addi	a0,a0,-1796 # 18fc <welcome_msg+0x184>
     478:	745000ef          	jal	13bc <print>
     47c:	f9dff06f          	j	418 <print_status+0xe0>

00000480 <scene_init>:
     480:	ff010113          	addi	sp,sp,-16
     484:	00812423          	sw	s0,8(sp)
     488:	00050413          	mv	s0,a0
     48c:	00002537          	lui	a0,0x2
     490:	80c50513          	addi	a0,a0,-2036 # 180c <welcome_msg+0x94>
     494:	00112623          	sw	ra,12(sp)
     498:	725000ef          	jal	13bc <print>
     49c:	00040513          	mv	a0,s0
     4a0:	e99ff0ef          	jal	338 <print_status>
     4a4:	00002437          	lui	s0,0x2
     4a8:	90840513          	addi	a0,s0,-1784 # 1908 <welcome_msg+0x190>
     4ac:	711000ef          	jal	13bc <print>
     4b0:	90840513          	addi	a0,s0,-1784
     4b4:	00812403          	lw	s0,8(sp)
     4b8:	00c12083          	lw	ra,12(sp)
     4bc:	01010113          	addi	sp,sp,16
     4c0:	6fd0006f          	j	13bc <print>

000004c4 <timer_init>:
     4c4:	ffffc6b7          	lui	a3,0xffffc
     4c8:	040007b7          	lui	a5,0x4000
     4cc:	6bf68693          	addi	a3,a3,1727 # ffffc6bf <_stack_end+0xffef933b>
     4d0:	02d79423          	sh	a3,40(a5) # 4000028 <_stack_end+0x3efcca4>
     4d4:	04000737          	lui	a4,0x4000
     4d8:	02d00693          	li	a3,45
     4dc:	02d71623          	sh	a3,44(a4) # 400002c <_stack_end+0x3efcca8>
     4e0:	040007b7          	lui	a5,0x4000
     4e4:	00700713          	li	a4,7
     4e8:	02e79223          	sh	a4,36(a5) # 4000024 <_stack_end+0x3efcca0>
     4ec:	00000513          	li	a0,0
     4f0:	00008067          	ret

000004f4 <close_display>:
     4f4:	fff00713          	li	a4,-1
     4f8:	040006b7          	lui	a3,0x4000
     4fc:	040007b7          	lui	a5,0x4000
     500:	04e68823          	sb	a4,80(a3) # 4000050 <_stack_end+0x3efcccc>
     504:	06e78023          	sb	a4,96(a5) # 4000060 <_stack_end+0x3efccdc>
     508:	06e78823          	sb	a4,112(a5)
     50c:	08e78023          	sb	a4,128(a5)
     510:	08e78823          	sb	a4,144(a5)
     514:	0ae78023          	sb	a4,160(a5)
     518:	00008067          	ret

0000051c <morning_routine>:
     51c:	fe010113          	addi	sp,sp,-32
     520:	01312623          	sw	s3,12(sp)
     524:	00050993          	mv	s3,a0
     528:	00002537          	lui	a0,0x2
     52c:	80c50513          	addi	a0,a0,-2036 # 180c <welcome_msg+0x94>
     530:	00112e23          	sw	ra,28(sp)
     534:	00812c23          	sw	s0,24(sp)
     538:	00912a23          	sw	s1,20(sp)
     53c:	01212823          	sw	s2,16(sp)
     540:	01412423          	sw	s4,8(sp)
     544:	01512223          	sw	s5,4(sp)
     548:	675000ef          	jal	13bc <print>
     54c:	00098513          	mv	a0,s3
     550:	00002437          	lui	s0,0x2
     554:	de5ff0ef          	jal	338 <print_status>
     558:	90840513          	addi	a0,s0,-1784 # 1908 <welcome_msg+0x190>
     55c:	661000ef          	jal	13bc <print>
     560:	90840513          	addi	a0,s0,-1784
     564:	659000ef          	jal	13bc <print>
     568:	00002537          	lui	a0,0x2
     56c:	90c50513          	addi	a0,a0,-1780 # 190c <welcome_msg+0x194>
     570:	ccdff0ef          	jal	23c <pretty_print>
     574:	00002537          	lui	a0,0x2
     578:	93c50513          	addi	a0,a0,-1732 # 193c <welcome_msg+0x1c4>
     57c:	cc1ff0ef          	jal	23c <pretty_print>
     580:	00002537          	lui	a0,0x2
     584:	95c50513          	addi	a0,a0,-1700 # 195c <welcome_msg+0x1e4>
     588:	cb5ff0ef          	jal	23c <pretty_print>
     58c:	00002537          	lui	a0,0x2
     590:	97450513          	addi	a0,a0,-1676 # 1974 <welcome_msg+0x1fc>
     594:	ca9ff0ef          	jal	23c <pretty_print>
     598:	00002537          	lui	a0,0x2
     59c:	99050513          	addi	a0,a0,-1648 # 1990 <welcome_msg+0x218>
     5a0:	c9dff0ef          	jal	23c <pretty_print>
     5a4:	90840513          	addi	a0,s0,-1784
     5a8:	615000ef          	jal	13bc <print>
     5ac:	90840513          	addi	a0,s0,-1784
     5b0:	60d000ef          	jal	13bc <print>
     5b4:	00002537          	lui	a0,0x2
     5b8:	9bc50513          	addi	a0,a0,-1604 # 19bc <welcome_msg+0x244>
     5bc:	601000ef          	jal	13bc <print>
     5c0:	00002537          	lui	a0,0x2
     5c4:	9d050513          	addi	a0,a0,-1584 # 19d0 <welcome_msg+0x258>
     5c8:	5f5000ef          	jal	13bc <print>
     5cc:	00002537          	lui	a0,0x2
     5d0:	9e450513          	addi	a0,a0,-1564 # 19e4 <welcome_msg+0x26c>
     5d4:	5e9000ef          	jal	13bc <print>
     5d8:	00002537          	lui	a0,0x2
     5dc:	9f850513          	addi	a0,a0,-1544 # 19f8 <welcome_msg+0x280>
     5e0:	5dd000ef          	jal	13bc <print>
     5e4:	00002537          	lui	a0,0x2
     5e8:	a0c50513          	addi	a0,a0,-1524 # 1a0c <welcome_msg+0x294>
     5ec:	5d1000ef          	jal	13bc <print>
     5f0:	00002537          	lui	a0,0x2
     5f4:	a2050513          	addi	a0,a0,-1504 # 1a20 <welcome_msg+0x2a8>
     5f8:	5c5000ef          	jal	13bc <print>
     5fc:	00002537          	lui	a0,0x2
     600:	a3450513          	addi	a0,a0,-1484 # 1a34 <welcome_msg+0x2bc>
     604:	5b9000ef          	jal	13bc <print>
     608:	00002537          	lui	a0,0x2
     60c:	a4850513          	addi	a0,a0,-1464 # 1a48 <welcome_msg+0x2d0>
     610:	5ad000ef          	jal	13bc <print>
     614:	00002537          	lui	a0,0x2
     618:	a5850513          	addi	a0,a0,-1448 # 1a58 <welcome_msg+0x2e0>
     61c:	040004b7          	lui	s1,0x4000
     620:	04000437          	lui	s0,0x4000
     624:	599000ef          	jal	13bc <print>
     628:	04000937          	lui	s2,0x4000
     62c:	01048493          	addi	s1,s1,16 # 4000010 <_stack_end+0x3efcc8c>
     630:	0d040413          	addi	s0,s0,208 # 40000d0 <_stack_end+0x3efcd4c>
     634:	00100a13          	li	s4,1
     638:	00200a93          	li	s5,2
     63c:	0004a783          	lw	a5,0(s1)
     640:	0037f713          	andi	a4,a5,3
     644:	00e90023          	sb	a4,0(s2) # 4000000 <_stack_end+0x3efcc7c>
     648:	00044703          	lbu	a4,0(s0)
     64c:	0037f793          	andi	a5,a5,3
     650:	00177713          	andi	a4,a4,1
     654:	fe0704e3          	beqz	a4,63c <morning_routine+0x120>
     658:	03478263          	beq	a5,s4,67c <morning_routine+0x160>
     65c:	07578663          	beq	a5,s5,6c8 <morning_routine+0x1ac>
     660:	00002537          	lui	a0,0x2
     664:	82050513          	addi	a0,a0,-2016 # 1820 <welcome_msg+0xa8>
     668:	555000ef          	jal	13bc <print>
     66c:	00002537          	lui	a0,0x2
     670:	81450513          	addi	a0,a0,-2028 # 1814 <welcome_msg+0x9c>
     674:	549000ef          	jal	13bc <print>
     678:	fc5ff06f          	j	63c <morning_routine+0x120>
     67c:	00002537          	lui	a0,0x2
     680:	a6c50513          	addi	a0,a0,-1428 # 1a6c <welcome_msg+0x2f4>
     684:	bb9ff0ef          	jal	23c <pretty_print>
     688:	0149a823          	sw	s4,16(s3)
     68c:	00002537          	lui	a0,0x2
     690:	ac850513          	addi	a0,a0,-1336 # 1ac8 <welcome_msg+0x350>
     694:	ba9ff0ef          	jal	23c <pretty_print>
     698:	00c9a783          	lw	a5,12(s3)
     69c:	01c12083          	lw	ra,28(sp)
     6a0:	01812403          	lw	s0,24(sp)
     6a4:	00178793          	addi	a5,a5,1
     6a8:	00f9a623          	sw	a5,12(s3)
     6ac:	01412483          	lw	s1,20(sp)
     6b0:	01012903          	lw	s2,16(sp)
     6b4:	00c12983          	lw	s3,12(sp)
     6b8:	00812a03          	lw	s4,8(sp)
     6bc:	00412a83          	lw	s5,4(sp)
     6c0:	02010113          	addi	sp,sp,32
     6c4:	00008067          	ret
     6c8:	00002537          	lui	a0,0x2
     6cc:	a9850513          	addi	a0,a0,-1384 # 1a98 <welcome_msg+0x320>
     6d0:	b6dff0ef          	jal	23c <pretty_print>
     6d4:	0009a783          	lw	a5,0(s3)
     6d8:	ffb78793          	addi	a5,a5,-5
     6dc:	00f9a023          	sw	a5,0(s3)
     6e0:	fadff06f          	j	68c <morning_routine+0x170>

000006e4 <choose_outfit>:
     6e4:	fe010113          	addi	sp,sp,-32
     6e8:	01412423          	sw	s4,8(sp)
     6ec:	00050a13          	mv	s4,a0
     6f0:	00002537          	lui	a0,0x2
     6f4:	80c50513          	addi	a0,a0,-2036 # 180c <welcome_msg+0x94>
     6f8:	00112e23          	sw	ra,28(sp)
     6fc:	00812c23          	sw	s0,24(sp)
     700:	00912a23          	sw	s1,20(sp)
     704:	01212823          	sw	s2,16(sp)
     708:	01312623          	sw	s3,12(sp)
     70c:	01512223          	sw	s5,4(sp)
     710:	01612023          	sw	s6,0(sp)
     714:	4a9000ef          	jal	13bc <print>
     718:	000a0513          	mv	a0,s4
     71c:	c1dff0ef          	jal	338 <print_status>
     720:	00002437          	lui	s0,0x2
     724:	90840513          	addi	a0,s0,-1784 # 1908 <welcome_msg+0x190>
     728:	495000ef          	jal	13bc <print>
     72c:	90840513          	addi	a0,s0,-1784
     730:	48d000ef          	jal	13bc <print>
     734:	00002537          	lui	a0,0x2
     738:	b0050513          	addi	a0,a0,-1280 # 1b00 <welcome_msg+0x388>
     73c:	b01ff0ef          	jal	23c <pretty_print>
     740:	00002537          	lui	a0,0x2
     744:	b3050513          	addi	a0,a0,-1232 # 1b30 <welcome_msg+0x3b8>
     748:	af5ff0ef          	jal	23c <pretty_print>
     74c:	00002537          	lui	a0,0x2
     750:	b4c50513          	addi	a0,a0,-1204 # 1b4c <welcome_msg+0x3d4>
     754:	ae9ff0ef          	jal	23c <pretty_print>
     758:	00002537          	lui	a0,0x2
     75c:	b6c50513          	addi	a0,a0,-1172 # 1b6c <welcome_msg+0x3f4>
     760:	addff0ef          	jal	23c <pretty_print>
     764:	00002537          	lui	a0,0x2
     768:	b8850513          	addi	a0,a0,-1144 # 1b88 <welcome_msg+0x410>
     76c:	451000ef          	jal	13bc <print>
     770:	00002537          	lui	a0,0x2
     774:	bac50513          	addi	a0,a0,-1108 # 1bac <welcome_msg+0x434>
     778:	445000ef          	jal	13bc <print>
     77c:	00002537          	lui	a0,0x2
     780:	bd050513          	addi	a0,a0,-1072 # 1bd0 <welcome_msg+0x458>
     784:	439000ef          	jal	13bc <print>
     788:	00002537          	lui	a0,0x2
     78c:	bf450513          	addi	a0,a0,-1036 # 1bf4 <welcome_msg+0x47c>
     790:	42d000ef          	jal	13bc <print>
     794:	00002537          	lui	a0,0x2
     798:	c2850513          	addi	a0,a0,-984 # 1c28 <welcome_msg+0x4b0>
     79c:	421000ef          	jal	13bc <print>
     7a0:	00002537          	lui	a0,0x2
     7a4:	c6050513          	addi	a0,a0,-928 # 1c60 <welcome_msg+0x4e8>
     7a8:	415000ef          	jal	13bc <print>
     7ac:	00002537          	lui	a0,0x2
     7b0:	c9450513          	addi	a0,a0,-876 # 1c94 <welcome_msg+0x51c>
     7b4:	409000ef          	jal	13bc <print>
     7b8:	00002537          	lui	a0,0x2
     7bc:	cc850513          	addi	a0,a0,-824 # 1cc8 <welcome_msg+0x550>
     7c0:	3fd000ef          	jal	13bc <print>
     7c4:	00002537          	lui	a0,0x2
     7c8:	cfc50513          	addi	a0,a0,-772 # 1cfc <welcome_msg+0x584>
     7cc:	3f1000ef          	jal	13bc <print>
     7d0:	00002537          	lui	a0,0x2
     7d4:	d3050513          	addi	a0,a0,-720 # 1d30 <welcome_msg+0x5b8>
     7d8:	3e5000ef          	jal	13bc <print>
     7dc:	00002537          	lui	a0,0x2
     7e0:	d6450513          	addi	a0,a0,-668 # 1d64 <welcome_msg+0x5ec>
     7e4:	04000937          	lui	s2,0x4000
     7e8:	040004b7          	lui	s1,0x4000
     7ec:	3d1000ef          	jal	13bc <print>
     7f0:	040009b7          	lui	s3,0x4000
     7f4:	01090913          	addi	s2,s2,16 # 4000010 <_stack_end+0x3efcc8c>
     7f8:	0d048493          	addi	s1,s1,208 # 40000d0 <_stack_end+0x3efcd4c>
     7fc:	00200a93          	li	s5,2
     800:	00400b13          	li	s6,4
     804:	00092783          	lw	a5,0(s2)
     808:	0077f713          	andi	a4,a5,7
     80c:	00e98023          	sb	a4,0(s3) # 4000000 <_stack_end+0x3efcc7c>
     810:	0004c703          	lbu	a4,0(s1)
     814:	0077f413          	andi	s0,a5,7
     818:	00177793          	andi	a5,a4,1
     81c:	fe0784e3          	beqz	a5,804 <__heap_size+0x4>
     820:	00100793          	li	a5,1
     824:	0d540a63          	beq	s0,s5,8f8 <__heap_size+0xf8>
     828:	09640a63          	beq	s0,s6,8bc <__heap_size+0xbc>
     82c:	00002537          	lui	a0,0x2
     830:	82050513          	addi	a0,a0,-2016 # 1820 <welcome_msg+0xa8>
     834:	06f41a63          	bne	s0,a5,8a8 <__heap_size+0xa8>
     838:	00002537          	lui	a0,0x2
     83c:	d9850513          	addi	a0,a0,-616 # 1d98 <welcome_msg+0x620>
     840:	9fdff0ef          	jal	23c <pretty_print>
     844:	008a2703          	lw	a4,8(s4)
     848:	004a2783          	lw	a5,4(s4)
     84c:	028a2223          	sw	s0,36(s4)
     850:	00570713          	addi	a4,a4,5
     854:	f9c78793          	addi	a5,a5,-100
     858:	00ea2423          	sw	a4,8(s4)
     85c:	00fa2223          	sw	a5,4(s4)
     860:	00ca2783          	lw	a5,12(s4)
     864:	00002537          	lui	a0,0x2
     868:	e2450513          	addi	a0,a0,-476 # 1e24 <welcome_msg+0x6ac>
     86c:	00178793          	addi	a5,a5,1
     870:	00fa2623          	sw	a5,12(s4)
     874:	9c9ff0ef          	jal	23c <pretty_print>
     878:	01812403          	lw	s0,24(sp)
     87c:	01c12083          	lw	ra,28(sp)
     880:	01412483          	lw	s1,20(sp)
     884:	01012903          	lw	s2,16(sp)
     888:	00c12983          	lw	s3,12(sp)
     88c:	00812a03          	lw	s4,8(sp)
     890:	00412a83          	lw	s5,4(sp)
     894:	00012b03          	lw	s6,0(sp)
     898:	00002537          	lui	a0,0x2
     89c:	e6850513          	addi	a0,a0,-408 # 1e68 <welcome_msg+0x6f0>
     8a0:	02010113          	addi	sp,sp,32
     8a4:	999ff06f          	j	23c <pretty_print>
     8a8:	995ff0ef          	jal	23c <pretty_print>
     8ac:	00002537          	lui	a0,0x2
     8b0:	81450513          	addi	a0,a0,-2028 # 1814 <welcome_msg+0x9c>
     8b4:	309000ef          	jal	13bc <print>
     8b8:	f4dff06f          	j	804 <__heap_size+0x4>
     8bc:	00002537          	lui	a0,0x2
     8c0:	df850513          	addi	a0,a0,-520 # 1df8 <welcome_msg+0x680>
     8c4:	979ff0ef          	jal	23c <pretty_print>
     8c8:	004a2783          	lw	a5,4(s4)
     8cc:	000a2683          	lw	a3,0(s4)
     8d0:	008a2703          	lw	a4,8(s4)
     8d4:	01478793          	addi	a5,a5,20
     8d8:	00368693          	addi	a3,a3,3
     8dc:	00170713          	addi	a4,a4,1
     8e0:	00fa2223          	sw	a5,4(s4)
     8e4:	00100793          	li	a5,1
     8e8:	00da2023          	sw	a3,0(s4)
     8ec:	00ea2423          	sw	a4,8(s4)
     8f0:	02fa2623          	sw	a5,44(s4)
     8f4:	f6dff06f          	j	860 <__heap_size+0x60>
     8f8:	00002537          	lui	a0,0x2
     8fc:	dc450513          	addi	a0,a0,-572 # 1dc4 <welcome_msg+0x64c>
     900:	93dff0ef          	jal	23c <pretty_print>
     904:	004a2783          	lw	a5,4(s4)
     908:	000a2683          	lw	a3,0(s4)
     90c:	008a2703          	lw	a4,8(s4)
     910:	03278793          	addi	a5,a5,50
     914:	00568693          	addi	a3,a3,5
     918:	ffd70713          	addi	a4,a4,-3
     91c:	00fa2223          	sw	a5,4(s4)
     920:	00100793          	li	a5,1
     924:	00da2023          	sw	a3,0(s4)
     928:	00ea2423          	sw	a4,8(s4)
     92c:	02fa2423          	sw	a5,40(s4)
     930:	f31ff06f          	j	860 <__heap_size+0x60>

00000934 <breakfast>:
     934:	fe010113          	addi	sp,sp,-32
     938:	00912a23          	sw	s1,20(sp)
     93c:	00050493          	mv	s1,a0
     940:	00002537          	lui	a0,0x2
     944:	80c50513          	addi	a0,a0,-2036 # 180c <welcome_msg+0x94>
     948:	00112e23          	sw	ra,28(sp)
     94c:	00812c23          	sw	s0,24(sp)
     950:	01212823          	sw	s2,16(sp)
     954:	01312623          	sw	s3,12(sp)
     958:	01412423          	sw	s4,8(sp)
     95c:	01512223          	sw	s5,4(sp)
     960:	01612023          	sw	s6,0(sp)
     964:	259000ef          	jal	13bc <print>
     968:	00048513          	mv	a0,s1
     96c:	00002437          	lui	s0,0x2
     970:	9c9ff0ef          	jal	338 <print_status>
     974:	90840513          	addi	a0,s0,-1784 # 1908 <welcome_msg+0x190>
     978:	245000ef          	jal	13bc <print>
     97c:	90840513          	addi	a0,s0,-1784
     980:	23d000ef          	jal	13bc <print>
     984:	00002537          	lui	a0,0x2
     988:	ea850513          	addi	a0,a0,-344 # 1ea8 <welcome_msg+0x730>
     98c:	8b1ff0ef          	jal	23c <pretty_print>
     990:	00002537          	lui	a0,0x2
     994:	ecc50513          	addi	a0,a0,-308 # 1ecc <welcome_msg+0x754>
     998:	8a5ff0ef          	jal	23c <pretty_print>
     99c:	00002537          	lui	a0,0x2
     9a0:	ee050513          	addi	a0,a0,-288 # 1ee0 <welcome_msg+0x768>
     9a4:	899ff0ef          	jal	23c <pretty_print>
     9a8:	00002537          	lui	a0,0x2
     9ac:	ef850513          	addi	a0,a0,-264 # 1ef8 <welcome_msg+0x780>
     9b0:	88dff0ef          	jal	23c <pretty_print>
     9b4:	00002537          	lui	a0,0x2
     9b8:	f0c50513          	addi	a0,a0,-244 # 1f0c <welcome_msg+0x794>
     9bc:	201000ef          	jal	13bc <print>
     9c0:	00002537          	lui	a0,0x2
     9c4:	f6850513          	addi	a0,a0,-152 # 1f68 <welcome_msg+0x7f0>
     9c8:	00002437          	lui	s0,0x2
     9cc:	1f1000ef          	jal	13bc <print>
     9d0:	fc440513          	addi	a0,s0,-60 # 1fc4 <welcome_msg+0x84c>
     9d4:	1e9000ef          	jal	13bc <print>
     9d8:	00002537          	lui	a0,0x2
     9dc:	02050513          	addi	a0,a0,32 # 2020 <__global_pointer+0x14>
     9e0:	1dd000ef          	jal	13bc <print>
     9e4:	00002537          	lui	a0,0x2
     9e8:	07c50513          	addi	a0,a0,124 # 207c <__global_pointer+0x70>
     9ec:	1d1000ef          	jal	13bc <print>
     9f0:	00002537          	lui	a0,0x2
     9f4:	0d850513          	addi	a0,a0,216 # 20d8 <__global_pointer+0xcc>
     9f8:	1c5000ef          	jal	13bc <print>
     9fc:	00002537          	lui	a0,0x2
     a00:	13450513          	addi	a0,a0,308 # 2134 <__global_pointer+0x128>
     a04:	1b9000ef          	jal	13bc <print>
     a08:	fc440513          	addi	a0,s0,-60
     a0c:	1b1000ef          	jal	13bc <print>
     a10:	fc440513          	addi	a0,s0,-60
     a14:	1a9000ef          	jal	13bc <print>
     a18:	00002537          	lui	a0,0x2
     a1c:	19050513          	addi	a0,a0,400 # 2190 <__global_pointer+0x184>
     a20:	040009b7          	lui	s3,0x4000
     a24:	04000937          	lui	s2,0x4000
     a28:	195000ef          	jal	13bc <print>
     a2c:	04000a37          	lui	s4,0x4000
     a30:	01098993          	addi	s3,s3,16 # 4000010 <_stack_end+0x3efcc8c>
     a34:	0d090913          	addi	s2,s2,208 # 40000d0 <_stack_end+0x3efcd4c>
     a38:	00200a93          	li	s5,2
     a3c:	00400b13          	li	s6,4
     a40:	0009a783          	lw	a5,0(s3)
     a44:	0077f713          	andi	a4,a5,7
     a48:	00ea0023          	sb	a4,0(s4) # 4000000 <_stack_end+0x3efcc7c>
     a4c:	00094703          	lbu	a4,0(s2)
     a50:	0077f413          	andi	s0,a5,7
     a54:	00177793          	andi	a5,a4,1
     a58:	06078663          	beqz	a5,ac4 <breakfast+0x190>
     a5c:	00100793          	li	a5,1
     a60:	0b540863          	beq	s0,s5,b10 <breakfast+0x1dc>
     a64:	09640463          	beq	s0,s6,aec <breakfast+0x1b8>
     a68:	00002537          	lui	a0,0x2
     a6c:	82050513          	addi	a0,a0,-2016 # 1820 <welcome_msg+0xa8>
     a70:	06f41a63          	bne	s0,a5,ae4 <breakfast+0x1b0>
     a74:	00002537          	lui	a0,0x2
     a78:	1ec50513          	addi	a0,a0,492 # 21ec <__global_pointer+0x1e0>
     a7c:	fc0ff0ef          	jal	23c <pretty_print>
     a80:	0004a703          	lw	a4,0(s1)
     a84:	0044a783          	lw	a5,4(s1)
     a88:	0084ae23          	sw	s0,28(s1)
     a8c:	00a70713          	addi	a4,a4,10
     a90:	ffb78793          	addi	a5,a5,-5
     a94:	00e4a023          	sw	a4,0(s1)
     a98:	00f4a223          	sw	a5,4(s1)
     a9c:	01c12083          	lw	ra,28(sp)
     aa0:	01812403          	lw	s0,24(sp)
     aa4:	01412483          	lw	s1,20(sp)
     aa8:	01012903          	lw	s2,16(sp)
     aac:	00c12983          	lw	s3,12(sp)
     ab0:	00812a03          	lw	s4,8(sp)
     ab4:	00412a83          	lw	s5,4(sp)
     ab8:	00012b03          	lw	s6,0(sp)
     abc:	02010113          	addi	sp,sp,32
     ac0:	00008067          	ret
     ac4:	00c4a783          	lw	a5,12(s1)
     ac8:	00002537          	lui	a0,0x2
     acc:	28050513          	addi	a0,a0,640 # 2280 <__global_pointer+0x274>
     ad0:	00178793          	addi	a5,a5,1
     ad4:	00f4a623          	sw	a5,12(s1)
     ad8:	f64ff0ef          	jal	23c <pretty_print>
     adc:	00002537          	lui	a0,0x2
     ae0:	2b450513          	addi	a0,a0,692 # 22b4 <__global_pointer+0x2a8>
     ae4:	f58ff0ef          	jal	23c <pretty_print>
     ae8:	f59ff06f          	j	a40 <breakfast+0x10c>
     aec:	00002537          	lui	a0,0x2
     af0:	25450513          	addi	a0,a0,596 # 2254 <__global_pointer+0x248>
     af4:	f48ff0ef          	jal	23c <pretty_print>
     af8:	0004a783          	lw	a5,0(s1)
     afc:	00100713          	li	a4,1
     b00:	00e4ac23          	sw	a4,24(s1)
     b04:	00378793          	addi	a5,a5,3
     b08:	00f4a023          	sw	a5,0(s1)
     b0c:	f91ff06f          	j	a9c <breakfast+0x168>
     b10:	00002537          	lui	a0,0x2
     b14:	22050513          	addi	a0,a0,544 # 2220 <__global_pointer+0x214>
     b18:	f24ff0ef          	jal	23c <pretty_print>
     b1c:	0004a683          	lw	a3,0(s1)
     b20:	0044a703          	lw	a4,4(s1)
     b24:	0084a783          	lw	a5,8(s1)
     b28:	00568693          	addi	a3,a3,5
     b2c:	ff670713          	addi	a4,a4,-10
     b30:	00278793          	addi	a5,a5,2
     b34:	00d4a023          	sw	a3,0(s1)
     b38:	00e4a223          	sw	a4,4(s1)
     b3c:	00f4a423          	sw	a5,8(s1)
     b40:	f5dff06f          	j	a9c <breakfast+0x168>

00000b44 <parkinglot>:
     b44:	fe010113          	addi	sp,sp,-32
     b48:	00912a23          	sw	s1,20(sp)
     b4c:	00050493          	mv	s1,a0
     b50:	00002537          	lui	a0,0x2
     b54:	80c50513          	addi	a0,a0,-2036 # 180c <welcome_msg+0x94>
     b58:	00112e23          	sw	ra,28(sp)
     b5c:	00812c23          	sw	s0,24(sp)
     b60:	01212823          	sw	s2,16(sp)
     b64:	01312623          	sw	s3,12(sp)
     b68:	01412423          	sw	s4,8(sp)
     b6c:	051000ef          	jal	13bc <print>
     b70:	00048513          	mv	a0,s1
     b74:	00002437          	lui	s0,0x2
     b78:	fc0ff0ef          	jal	338 <print_status>
     b7c:	90840513          	addi	a0,s0,-1784 # 1908 <welcome_msg+0x190>
     b80:	03d000ef          	jal	13bc <print>
     b84:	90840513          	addi	a0,s0,-1784
     b88:	035000ef          	jal	13bc <print>
     b8c:	00002537          	lui	a0,0x2
     b90:	2f450513          	addi	a0,a0,756 # 22f4 <__global_pointer+0x2e8>
     b94:	ea8ff0ef          	jal	23c <pretty_print>
     b98:	90840513          	addi	a0,s0,-1784
     b9c:	021000ef          	jal	13bc <print>
     ba0:	90840513          	addi	a0,s0,-1784
     ba4:	019000ef          	jal	13bc <print>
     ba8:	00002537          	lui	a0,0x2
     bac:	33c50513          	addi	a0,a0,828 # 233c <__global_pointer+0x330>
     bb0:	00d000ef          	jal	13bc <print>
     bb4:	00002537          	lui	a0,0x2
     bb8:	35c50513          	addi	a0,a0,860 # 235c <__global_pointer+0x350>
     bbc:	001000ef          	jal	13bc <print>
     bc0:	00002537          	lui	a0,0x2
     bc4:	37850513          	addi	a0,a0,888 # 2378 <__global_pointer+0x36c>
     bc8:	00002937          	lui	s2,0x2
     bcc:	7f0000ef          	jal	13bc <print>
     bd0:	39c90513          	addi	a0,s2,924 # 239c <__global_pointer+0x390>
     bd4:	7e8000ef          	jal	13bc <print>
     bd8:	00002537          	lui	a0,0x2
     bdc:	3c050513          	addi	a0,a0,960 # 23c0 <__global_pointer+0x3b4>
     be0:	7dc000ef          	jal	13bc <print>
     be4:	39c90513          	addi	a0,s2,924
     be8:	7d4000ef          	jal	13bc <print>
     bec:	00002537          	lui	a0,0x2
     bf0:	3e450513          	addi	a0,a0,996 # 23e4 <__global_pointer+0x3d8>
     bf4:	7c8000ef          	jal	13bc <print>
     bf8:	00002537          	lui	a0,0x2
     bfc:	40850513          	addi	a0,a0,1032 # 2408 <__global_pointer+0x3fc>
     c00:	7bc000ef          	jal	13bc <print>
     c04:	00002537          	lui	a0,0x2
     c08:	42c50513          	addi	a0,a0,1068 # 242c <__global_pointer+0x420>
     c0c:	7b0000ef          	jal	13bc <print>
     c10:	00002537          	lui	a0,0x2
     c14:	45450513          	addi	a0,a0,1108 # 2454 <__global_pointer+0x448>
     c18:	7a4000ef          	jal	13bc <print>
     c1c:	00002537          	lui	a0,0x2
     c20:	47850513          	addi	a0,a0,1144 # 2478 <__global_pointer+0x46c>
     c24:	798000ef          	jal	13bc <print>
     c28:	00002537          	lui	a0,0x2
     c2c:	49c50513          	addi	a0,a0,1180 # 249c <__global_pointer+0x490>
     c30:	78c000ef          	jal	13bc <print>
     c34:	90840513          	addi	a0,s0,-1784
     c38:	784000ef          	jal	13bc <print>
     c3c:	00002537          	lui	a0,0x2
     c40:	4c450513          	addi	a0,a0,1220 # 24c4 <__global_pointer+0x4b8>
     c44:	df8ff0ef          	jal	23c <pretty_print>
     c48:	00002537          	lui	a0,0x2
     c4c:	4f850513          	addi	a0,a0,1272 # 24f8 <__global_pointer+0x4ec>
     c50:	decff0ef          	jal	23c <pretty_print>
     c54:	00002537          	lui	a0,0x2
     c58:	51850513          	addi	a0,a0,1304 # 2518 <__global_pointer+0x50c>
     c5c:	04000937          	lui	s2,0x4000
     c60:	04000437          	lui	s0,0x4000
     c64:	dd8ff0ef          	jal	23c <pretty_print>
     c68:	040009b7          	lui	s3,0x4000
     c6c:	01090913          	addi	s2,s2,16 # 4000010 <_stack_end+0x3efcc8c>
     c70:	0d040413          	addi	s0,s0,208 # 40000d0 <_stack_end+0x3efcd4c>
     c74:	00100a13          	li	s4,1
     c78:	00092783          	lw	a5,0(s2)
     c7c:	0077f713          	andi	a4,a5,7
     c80:	00e98023          	sb	a4,0(s3) # 4000000 <_stack_end+0x3efcc7c>
     c84:	00044703          	lbu	a4,0(s0)
     c88:	0077f793          	andi	a5,a5,7
     c8c:	fff78793          	addi	a5,a5,-1
     c90:	00177713          	andi	a4,a4,1
     c94:	02070463          	beqz	a4,cbc <parkinglot+0x178>
     c98:	04fa6063          	bltu	s4,a5,cd8 <parkinglot+0x194>
     c9c:	01c12083          	lw	ra,28(sp)
     ca0:	01812403          	lw	s0,24(sp)
     ca4:	01412483          	lw	s1,20(sp)
     ca8:	01012903          	lw	s2,16(sp)
     cac:	00c12983          	lw	s3,12(sp)
     cb0:	00812a03          	lw	s4,8(sp)
     cb4:	02010113          	addi	sp,sp,32
     cb8:	00008067          	ret
     cbc:	00c4a783          	lw	a5,12(s1)
     cc0:	00002537          	lui	a0,0x2
     cc4:	53850513          	addi	a0,a0,1336 # 2538 <__global_pointer+0x52c>
     cc8:	00178793          	addi	a5,a5,1
     ccc:	00f4a623          	sw	a5,12(s1)
     cd0:	d6cff0ef          	jal	23c <pretty_print>
     cd4:	fa5ff06f          	j	c78 <parkinglot+0x134>
     cd8:	00002537          	lui	a0,0x2
     cdc:	82050513          	addi	a0,a0,-2016 # 1820 <welcome_msg+0xa8>
     ce0:	d5cff0ef          	jal	23c <pretty_print>
     ce4:	f95ff06f          	j	c78 <parkinglot+0x134>

00000ce8 <clocking_out>:
     ce8:	ff010113          	addi	sp,sp,-16
     cec:	00812423          	sw	s0,8(sp)
     cf0:	00050413          	mv	s0,a0
     cf4:	00002537          	lui	a0,0x2
     cf8:	80c50513          	addi	a0,a0,-2036 # 180c <welcome_msg+0x94>
     cfc:	00112623          	sw	ra,12(sp)
     d00:	6bc000ef          	jal	13bc <print>
     d04:	00040513          	mv	a0,s0
     d08:	e30ff0ef          	jal	338 <print_status>
     d0c:	00002437          	lui	s0,0x2
     d10:	90840513          	addi	a0,s0,-1784 # 1908 <welcome_msg+0x190>
     d14:	6a8000ef          	jal	13bc <print>
     d18:	90840513          	addi	a0,s0,-1784
     d1c:	6a0000ef          	jal	13bc <print>
     d20:	00002537          	lui	a0,0x2
     d24:	57050513          	addi	a0,a0,1392 # 2570 <__global_pointer+0x564>
     d28:	d14ff0ef          	jal	23c <pretty_print>
     d2c:	00002537          	lui	a0,0x2
     d30:	5b450513          	addi	a0,a0,1460 # 25b4 <__global_pointer+0x5a8>
     d34:	d08ff0ef          	jal	23c <pretty_print>
     d38:	90840513          	addi	a0,s0,-1784
     d3c:	680000ef          	jal	13bc <print>
     d40:	90840513          	addi	a0,s0,-1784
     d44:	00812403          	lw	s0,8(sp)
     d48:	00c12083          	lw	ra,12(sp)
     d4c:	01010113          	addi	sp,sp,16
     d50:	66c0006f          	j	13bc <print>

00000d54 <game_over>:
     d54:	ff010113          	addi	sp,sp,-16
     d58:	00812423          	sw	s0,8(sp)
     d5c:	00050413          	mv	s0,a0
     d60:	00002537          	lui	a0,0x2
     d64:	80c50513          	addi	a0,a0,-2036 # 180c <welcome_msg+0x94>
     d68:	00112623          	sw	ra,12(sp)
     d6c:	650000ef          	jal	13bc <print>
     d70:	00042783          	lw	a5,0(s0)
     d74:	0ef05a63          	blez	a5,e68 <game_over+0x114>
     d78:	00442783          	lw	a5,4(s0)
     d7c:	10f05663          	blez	a5,e88 <game_over+0x134>
     d80:	00002437          	lui	s0,0x2
     d84:	88440513          	addi	a0,s0,-1916 # 1884 <welcome_msg+0x10c>
     d88:	634000ef          	jal	13bc <print>
     d8c:	88440513          	addi	a0,s0,-1916
     d90:	62c000ef          	jal	13bc <print>
     d94:	88440513          	addi	a0,s0,-1916
     d98:	624000ef          	jal	13bc <print>
     d9c:	00002537          	lui	a0,0x2
     da0:	65050513          	addi	a0,a0,1616 # 2650 <__global_pointer+0x644>
     da4:	618000ef          	jal	13bc <print>
     da8:	00002537          	lui	a0,0x2
     dac:	6c850513          	addi	a0,a0,1736 # 26c8 <__global_pointer+0x6bc>
     db0:	60c000ef          	jal	13bc <print>
     db4:	00002537          	lui	a0,0x2
     db8:	74050513          	addi	a0,a0,1856 # 2740 <__global_pointer+0x734>
     dbc:	600000ef          	jal	13bc <print>
     dc0:	00002537          	lui	a0,0x2
     dc4:	7b850513          	addi	a0,a0,1976 # 27b8 <__global_pointer+0x7ac>
     dc8:	5f4000ef          	jal	13bc <print>
     dcc:	00003537          	lui	a0,0x3
     dd0:	83050513          	addi	a0,a0,-2000 # 2830 <__global_pointer+0x824>
     dd4:	5e8000ef          	jal	13bc <print>
     dd8:	00003537          	lui	a0,0x3
     ddc:	8a850513          	addi	a0,a0,-1880 # 28a8 <__global_pointer+0x89c>
     de0:	5dc000ef          	jal	13bc <print>
     de4:	00003537          	lui	a0,0x3
     de8:	92050513          	addi	a0,a0,-1760 # 2920 <__global_pointer+0x914>
     dec:	5d0000ef          	jal	13bc <print>
     df0:	00003537          	lui	a0,0x3
     df4:	99850513          	addi	a0,a0,-1640 # 2998 <__global_pointer+0x98c>
     df8:	5c4000ef          	jal	13bc <print>
     dfc:	00003537          	lui	a0,0x3
     e00:	a1050513          	addi	a0,a0,-1520 # 2a10 <__global_pointer+0xa04>
     e04:	5b8000ef          	jal	13bc <print>
     e08:	00003537          	lui	a0,0x3
     e0c:	a8850513          	addi	a0,a0,-1400 # 2a88 <__global_pointer+0xa7c>
     e10:	5ac000ef          	jal	13bc <print>
     e14:	00003537          	lui	a0,0x3
     e18:	b0050513          	addi	a0,a0,-1280 # 2b00 <__global_pointer+0xaf4>
     e1c:	5a0000ef          	jal	13bc <print>
     e20:	00003537          	lui	a0,0x3
     e24:	b7850513          	addi	a0,a0,-1160 # 2b78 <__global_pointer+0xb6c>
     e28:	594000ef          	jal	13bc <print>
     e2c:	00003537          	lui	a0,0x3
     e30:	bf050513          	addi	a0,a0,-1040 # 2bf0 <__global_pointer+0xbe4>
     e34:	588000ef          	jal	13bc <print>
     e38:	00003537          	lui	a0,0x3
     e3c:	c6850513          	addi	a0,a0,-920 # 2c68 <__global_pointer+0xc5c>
     e40:	57c000ef          	jal	13bc <print>
     e44:	00003537          	lui	a0,0x3
     e48:	ce050513          	addi	a0,a0,-800 # 2ce0 <__global_pointer+0xcd4>
     e4c:	570000ef          	jal	13bc <print>
     e50:	00812403          	lw	s0,8(sp)
     e54:	00c12083          	lw	ra,12(sp)
     e58:	00003537          	lui	a0,0x3
     e5c:	d5850513          	addi	a0,a0,-680 # 2d58 <__global_pointer+0xd4c>
     e60:	01010113          	addi	sp,sp,16
     e64:	5580006f          	j	13bc <print>
     e68:	00002537          	lui	a0,0x2
     e6c:	5e050513          	addi	a0,a0,1504 # 25e0 <__global_pointer+0x5d4>
     e70:	bccff0ef          	jal	23c <pretty_print>
     e74:	00002537          	lui	a0,0x2
     e78:	62050513          	addi	a0,a0,1568 # 2620 <__global_pointer+0x614>
     e7c:	bc0ff0ef          	jal	23c <pretty_print>
     e80:	00442783          	lw	a5,4(s0)
     e84:	eef04ee3          	bgtz	a5,d80 <game_over+0x2c>
     e88:	00002537          	lui	a0,0x2
     e8c:	63c50513          	addi	a0,a0,1596 # 263c <__global_pointer+0x630>
     e90:	bacff0ef          	jal	23c <pretty_print>
     e94:	00002537          	lui	a0,0x2
     e98:	62050513          	addi	a0,a0,1568 # 2620 <__global_pointer+0x614>
     e9c:	ba0ff0ef          	jal	23c <pretty_print>
     ea0:	ee1ff06f          	j	d80 <game_over+0x2c>

00000ea4 <desk>:
     ea4:	01852783          	lw	a5,24(a0)
     ea8:	fe010113          	addi	sp,sp,-32
     eac:	00812c23          	sw	s0,24(sp)
     eb0:	00112e23          	sw	ra,28(sp)
     eb4:	00912a23          	sw	s1,20(sp)
     eb8:	01212823          	sw	s2,16(sp)
     ebc:	01312623          	sw	s3,12(sp)
     ec0:	01412423          	sw	s4,8(sp)
     ec4:	00050413          	mv	s0,a0
     ec8:	1e079063          	bnez	a5,10a8 <desk+0x204>
     ecc:	00002537          	lui	a0,0x2
     ed0:	80c50513          	addi	a0,a0,-2036 # 180c <welcome_msg+0x94>
     ed4:	4e8000ef          	jal	13bc <print>
     ed8:	00040513          	mv	a0,s0
     edc:	000024b7          	lui	s1,0x2
     ee0:	c58ff0ef          	jal	338 <print_status>
     ee4:	90848513          	addi	a0,s1,-1784 # 1908 <welcome_msg+0x190>
     ee8:	4d4000ef          	jal	13bc <print>
     eec:	90848513          	addi	a0,s1,-1784
     ef0:	4cc000ef          	jal	13bc <print>
     ef4:	90848513          	addi	a0,s1,-1784
     ef8:	4c4000ef          	jal	13bc <print>
     efc:	90848513          	addi	a0,s1,-1784
     f00:	4bc000ef          	jal	13bc <print>
     f04:	00003537          	lui	a0,0x3
     f08:	e5c50513          	addi	a0,a0,-420 # 2e5c <__global_pointer+0xe50>
     f0c:	b30ff0ef          	jal	23c <pretty_print>
     f10:	00003537          	lui	a0,0x3
     f14:	ea050513          	addi	a0,a0,-352 # 2ea0 <__global_pointer+0xe94>
     f18:	4a4000ef          	jal	13bc <print>
     f1c:	00003537          	lui	a0,0x3
     f20:	ee850513          	addi	a0,a0,-280 # 2ee8 <__global_pointer+0xedc>
     f24:	498000ef          	jal	13bc <print>
     f28:	00003537          	lui	a0,0x3
     f2c:	f3050513          	addi	a0,a0,-208 # 2f30 <__global_pointer+0xf24>
     f30:	48c000ef          	jal	13bc <print>
     f34:	00003537          	lui	a0,0x3
     f38:	f7850513          	addi	a0,a0,-136 # 2f78 <__global_pointer+0xf6c>
     f3c:	480000ef          	jal	13bc <print>
     f40:	00003537          	lui	a0,0x3
     f44:	fc450513          	addi	a0,a0,-60 # 2fc4 <__global_pointer+0xfb8>
     f48:	474000ef          	jal	13bc <print>
     f4c:	00003537          	lui	a0,0x3
     f50:	00c50513          	addi	a0,a0,12 # 300c <__global_pointer+0x1000>
     f54:	468000ef          	jal	13bc <print>
     f58:	00003537          	lui	a0,0x3
     f5c:	05450513          	addi	a0,a0,84 # 3054 <__global_pointer+0x1048>
     f60:	45c000ef          	jal	13bc <print>
     f64:	00003537          	lui	a0,0x3
     f68:	09c50513          	addi	a0,a0,156 # 309c <__global_pointer+0x1090>
     f6c:	450000ef          	jal	13bc <print>
     f70:	00003537          	lui	a0,0x3
     f74:	0e450513          	addi	a0,a0,228 # 30e4 <__global_pointer+0x10d8>
     f78:	444000ef          	jal	13bc <print>
     f7c:	00003537          	lui	a0,0x3
     f80:	11850513          	addi	a0,a0,280 # 3118 <__global_pointer+0x110c>
     f84:	438000ef          	jal	13bc <print>
     f88:	00003537          	lui	a0,0x3
     f8c:	15c50513          	addi	a0,a0,348 # 315c <__global_pointer+0x1150>
     f90:	42c000ef          	jal	13bc <print>
     f94:	00003537          	lui	a0,0x3
     f98:	1a450513          	addi	a0,a0,420 # 31a4 <__global_pointer+0x1198>
     f9c:	420000ef          	jal	13bc <print>
     fa0:	90848513          	addi	a0,s1,-1784
     fa4:	418000ef          	jal	13bc <print>
     fa8:	90848513          	addi	a0,s1,-1784
     fac:	410000ef          	jal	13bc <print>
     fb0:	00003537          	lui	a0,0x3
     fb4:	1f050513          	addi	a0,a0,496 # 31f0 <__global_pointer+0x11e4>
     fb8:	a84ff0ef          	jal	23c <pretty_print>
     fbc:	00003537          	lui	a0,0x3
     fc0:	20850513          	addi	a0,a0,520 # 3208 <__global_pointer+0x11fc>
     fc4:	a78ff0ef          	jal	23c <pretty_print>
     fc8:	00003537          	lui	a0,0x3
     fcc:	22050513          	addi	a0,a0,544 # 3220 <__global_pointer+0x1214>
     fd0:	04000937          	lui	s2,0x4000
     fd4:	040004b7          	lui	s1,0x4000
     fd8:	a64ff0ef          	jal	23c <pretty_print>
     fdc:	040009b7          	lui	s3,0x4000
     fe0:	01090913          	addi	s2,s2,16 # 4000010 <_stack_end+0x3efcc8c>
     fe4:	0d048493          	addi	s1,s1,208 # 40000d0 <_stack_end+0x3efcd4c>
     fe8:	00200a13          	li	s4,2
     fec:	00092783          	lw	a5,0(s2)
     ff0:	0077f713          	andi	a4,a5,7
     ff4:	00e98023          	sb	a4,0(s3) # 4000000 <_stack_end+0x3efcc7c>
     ff8:	0004c703          	lbu	a4,0(s1)
     ffc:	0077f793          	andi	a5,a5,7
    1000:	00177713          	andi	a4,a4,1
    1004:	04070663          	beqz	a4,1050 <desk+0x1ac>
    1008:	fed00713          	li	a4,-19
    100c:	00002537          	lui	a0,0x2
    1010:	40f75733          	sra	a4,a4,a5
    1014:	82050513          	addi	a0,a0,-2016 # 1820 <welcome_msg+0xa8>
    1018:	00177713          	andi	a4,a4,1
    101c:	07478263          	beq	a5,s4,1080 <desk+0x1dc>
    1020:	04070063          	beqz	a4,1060 <desk+0x1bc>
    1024:	a18ff0ef          	jal	23c <pretty_print>
    1028:	00002537          	lui	a0,0x2
    102c:	81450513          	addi	a0,a0,-2028 # 1814 <welcome_msg+0x9c>
    1030:	38c000ef          	jal	13bc <print>
    1034:	00092783          	lw	a5,0(s2)
    1038:	0077f713          	andi	a4,a5,7
    103c:	00e98023          	sb	a4,0(s3)
    1040:	0004c703          	lbu	a4,0(s1)
    1044:	0077f793          	andi	a5,a5,7
    1048:	00177713          	andi	a4,a4,1
    104c:	fa071ee3          	bnez	a4,1008 <desk+0x164>
    1050:	00c42783          	lw	a5,12(s0)
    1054:	00178793          	addi	a5,a5,1
    1058:	00f42623          	sw	a5,12(s0)
    105c:	f91ff06f          	j	fec <desk+0x148>
    1060:	01c12083          	lw	ra,28(sp)
    1064:	01812403          	lw	s0,24(sp)
    1068:	01412483          	lw	s1,20(sp)
    106c:	01012903          	lw	s2,16(sp)
    1070:	00c12983          	lw	s3,12(sp)
    1074:	00812a03          	lw	s4,8(sp)
    1078:	02010113          	addi	sp,sp,32
    107c:	00008067          	ret
    1080:	01812403          	lw	s0,24(sp)
    1084:	01c12083          	lw	ra,28(sp)
    1088:	01412483          	lw	s1,20(sp)
    108c:	01012903          	lw	s2,16(sp)
    1090:	00c12983          	lw	s3,12(sp)
    1094:	00812a03          	lw	s4,8(sp)
    1098:	00003537          	lui	a0,0x3
    109c:	23c50513          	addi	a0,a0,572 # 323c <__global_pointer+0x1230>
    10a0:	02010113          	addi	sp,sp,32
    10a4:	998ff06f          	j	23c <pretty_print>
    10a8:	000024b7          	lui	s1,0x2
    10ac:	81448513          	addi	a0,s1,-2028 # 1814 <welcome_msg+0x9c>
    10b0:	30c000ef          	jal	13bc <print>
    10b4:	00003537          	lui	a0,0x3
    10b8:	dd050513          	addi	a0,a0,-560 # 2dd0 <__global_pointer+0xdc4>
    10bc:	980ff0ef          	jal	23c <pretty_print>
    10c0:	81448513          	addi	a0,s1,-2028
    10c4:	2f8000ef          	jal	13bc <print>
    10c8:	00003537          	lui	a0,0x3
    10cc:	e0850513          	addi	a0,a0,-504 # 2e08 <__global_pointer+0xdfc>
    10d0:	96cff0ef          	jal	23c <pretty_print>
    10d4:	81448513          	addi	a0,s1,-2028
    10d8:	2e4000ef          	jal	13bc <print>
    10dc:	00003537          	lui	a0,0x3
    10e0:	e4450513          	addi	a0,a0,-444 # 2e44 <__global_pointer+0xe38>
    10e4:	958ff0ef          	jal	23c <pretty_print>
    10e8:	00842783          	lw	a5,8(s0)
    10ec:	ff678793          	addi	a5,a5,-10
    10f0:	00f42423          	sw	a5,8(s0)
    10f4:	dd9ff06f          	j	ecc <desk+0x28>

000010f8 <lunch>:
    10f8:	fe010113          	addi	sp,sp,-32
    10fc:	00812c23          	sw	s0,24(sp)
    1100:	00050413          	mv	s0,a0
    1104:	00002537          	lui	a0,0x2
    1108:	80c50513          	addi	a0,a0,-2036 # 180c <welcome_msg+0x94>
    110c:	00112e23          	sw	ra,28(sp)
    1110:	00912a23          	sw	s1,20(sp)
    1114:	01212823          	sw	s2,16(sp)
    1118:	01312623          	sw	s3,12(sp)
    111c:	01412423          	sw	s4,8(sp)
    1120:	29c000ef          	jal	13bc <print>
    1124:	00040513          	mv	a0,s0
    1128:	000024b7          	lui	s1,0x2
    112c:	a0cff0ef          	jal	338 <print_status>
    1130:	90848513          	addi	a0,s1,-1784 # 1908 <welcome_msg+0x190>
    1134:	288000ef          	jal	13bc <print>
    1138:	90848513          	addi	a0,s1,-1784
    113c:	280000ef          	jal	13bc <print>
    1140:	00003537          	lui	a0,0x3
    1144:	24c50513          	addi	a0,a0,588 # 324c <__global_pointer+0x1240>
    1148:	8f4ff0ef          	jal	23c <pretty_print>
    114c:	00003537          	lui	a0,0x3
    1150:	28850513          	addi	a0,a0,648 # 3288 <__global_pointer+0x127c>
    1154:	8e8ff0ef          	jal	23c <pretty_print>
    1158:	00003537          	lui	a0,0x3
    115c:	29450513          	addi	a0,a0,660 # 3294 <__global_pointer+0x1288>
    1160:	8dcff0ef          	jal	23c <pretty_print>
    1164:	00003537          	lui	a0,0x3
    1168:	2a050513          	addi	a0,a0,672 # 32a0 <__global_pointer+0x1294>
    116c:	04000937          	lui	s2,0x4000
    1170:	040004b7          	lui	s1,0x4000
    1174:	8c8ff0ef          	jal	23c <pretty_print>
    1178:	040009b7          	lui	s3,0x4000
    117c:	01090913          	addi	s2,s2,16 # 4000010 <_stack_end+0x3efcc8c>
    1180:	0d048493          	addi	s1,s1,208 # 40000d0 <_stack_end+0x3efcd4c>
    1184:	00200a13          	li	s4,2
    1188:	00092783          	lw	a5,0(s2)
    118c:	0077f713          	andi	a4,a5,7
    1190:	00e98023          	sb	a4,0(s3) # 4000000 <_stack_end+0x3efcc7c>
    1194:	0004c703          	lbu	a4,0(s1)
    1198:	0077f793          	andi	a5,a5,7
    119c:	00177713          	andi	a4,a4,1
    11a0:	02070863          	beqz	a4,11d0 <lunch+0xd8>
    11a4:	00400713          	li	a4,4
    11a8:	02fa4c63          	blt	s4,a5,11e0 <lunch+0xe8>
    11ac:	02078c63          	beqz	a5,11e4 <lunch+0xec>
    11b0:	01c12083          	lw	ra,28(sp)
    11b4:	01812403          	lw	s0,24(sp)
    11b8:	01412483          	lw	s1,20(sp)
    11bc:	01012903          	lw	s2,16(sp)
    11c0:	00c12983          	lw	s3,12(sp)
    11c4:	00812a03          	lw	s4,8(sp)
    11c8:	02010113          	addi	sp,sp,32
    11cc:	00008067          	ret
    11d0:	00c42783          	lw	a5,12(s0)
    11d4:	00178793          	addi	a5,a5,1
    11d8:	00f42623          	sw	a5,12(s0)
    11dc:	fadff06f          	j	1188 <lunch+0x90>
    11e0:	fce788e3          	beq	a5,a4,11b0 <lunch+0xb8>
    11e4:	00002537          	lui	a0,0x2
    11e8:	82050513          	addi	a0,a0,-2016 # 1820 <welcome_msg+0xa8>
    11ec:	1d0000ef          	jal	13bc <print>
    11f0:	00002537          	lui	a0,0x2
    11f4:	81450513          	addi	a0,a0,-2028 # 1814 <welcome_msg+0x9c>
    11f8:	1c4000ef          	jal	13bc <print>
    11fc:	f8dff06f          	j	1188 <lunch+0x90>

00001200 <toilet>:
    1200:	fe010113          	addi	sp,sp,-32
    1204:	00812c23          	sw	s0,24(sp)
    1208:	00050413          	mv	s0,a0
    120c:	00002537          	lui	a0,0x2
    1210:	80c50513          	addi	a0,a0,-2036 # 180c <welcome_msg+0x94>
    1214:	00112e23          	sw	ra,28(sp)
    1218:	00912a23          	sw	s1,20(sp)
    121c:	01212823          	sw	s2,16(sp)
    1220:	01312623          	sw	s3,12(sp)
    1224:	01412423          	sw	s4,8(sp)
    1228:	194000ef          	jal	13bc <print>
    122c:	00040513          	mv	a0,s0
    1230:	000024b7          	lui	s1,0x2
    1234:	904ff0ef          	jal	338 <print_status>
    1238:	90848513          	addi	a0,s1,-1784 # 1908 <welcome_msg+0x190>
    123c:	180000ef          	jal	13bc <print>
    1240:	90848513          	addi	a0,s1,-1784
    1244:	178000ef          	jal	13bc <print>
    1248:	00003537          	lui	a0,0x3
    124c:	2ac50513          	addi	a0,a0,684 # 32ac <__global_pointer+0x12a0>
    1250:	000034b7          	lui	s1,0x3
    1254:	fe9fe0ef          	jal	23c <pretty_print>
    1258:	2d448513          	addi	a0,s1,724 # 32d4 <__global_pointer+0x12c8>
    125c:	fe1fe0ef          	jal	23c <pretty_print>
    1260:	2d448513          	addi	a0,s1,724
    1264:	fd9fe0ef          	jal	23c <pretty_print>
    1268:	00003537          	lui	a0,0x3
    126c:	2ec50513          	addi	a0,a0,748 # 32ec <__global_pointer+0x12e0>
    1270:	04000937          	lui	s2,0x4000
    1274:	040004b7          	lui	s1,0x4000
    1278:	fc5fe0ef          	jal	23c <pretty_print>
    127c:	040009b7          	lui	s3,0x4000
    1280:	01090913          	addi	s2,s2,16 # 4000010 <_stack_end+0x3efcc8c>
    1284:	0d048493          	addi	s1,s1,208 # 40000d0 <_stack_end+0x3efcd4c>
    1288:	00100a13          	li	s4,1
    128c:	00092783          	lw	a5,0(s2)
    1290:	0037f713          	andi	a4,a5,3
    1294:	00e98023          	sb	a4,0(s3) # 4000000 <_stack_end+0x3efcc7c>
    1298:	0004c703          	lbu	a4,0(s1)
    129c:	0037f793          	andi	a5,a5,3
    12a0:	fff78793          	addi	a5,a5,-1
    12a4:	00177713          	andi	a4,a4,1
    12a8:	02070463          	beqz	a4,12d0 <toilet+0xd0>
    12ac:	02fa6a63          	bltu	s4,a5,12e0 <toilet+0xe0>
    12b0:	01c12083          	lw	ra,28(sp)
    12b4:	01812403          	lw	s0,24(sp)
    12b8:	01412483          	lw	s1,20(sp)
    12bc:	01012903          	lw	s2,16(sp)
    12c0:	00c12983          	lw	s3,12(sp)
    12c4:	00812a03          	lw	s4,8(sp)
    12c8:	02010113          	addi	sp,sp,32
    12cc:	00008067          	ret
    12d0:	00c42783          	lw	a5,12(s0)
    12d4:	00178793          	addi	a5,a5,1
    12d8:	00f42623          	sw	a5,12(s0)
    12dc:	fb1ff06f          	j	128c <toilet+0x8c>
    12e0:	00002537          	lui	a0,0x2
    12e4:	82050513          	addi	a0,a0,-2016 # 1820 <welcome_msg+0xa8>
    12e8:	0d4000ef          	jal	13bc <print>
    12ec:	00002537          	lui	a0,0x2
    12f0:	81450513          	addi	a0,a0,-2028 # 1814 <welcome_msg+0x9c>
    12f4:	0c8000ef          	jal	13bc <print>
    12f8:	f95ff06f          	j	128c <toilet+0x8c>

000012fc <main>:
    12fc:	fb010113          	addi	sp,sp,-80
    1300:	03200793          	li	a5,50
    1304:	00f12623          	sw	a5,12(sp)
    1308:	3e800793          	li	a5,1000
    130c:	00f12823          	sw	a5,16(sp)
    1310:	00500793          	li	a5,5
    1314:	00f12a23          	sw	a5,20(sp)
    1318:	00600793          	li	a5,6
    131c:	04112623          	sw	ra,76(sp)
    1320:	fff00713          	li	a4,-1
    1324:	00f12c23          	sw	a5,24(sp)
    1328:	00012e23          	sw	zero,28(sp)
    132c:	02012023          	sw	zero,32(sp)
    1330:	02012223          	sw	zero,36(sp)
    1334:	02012423          	sw	zero,40(sp)
    1338:	02012623          	sw	zero,44(sp)
    133c:	02012823          	sw	zero,48(sp)
    1340:	02012a23          	sw	zero,52(sp)
    1344:	02012c23          	sw	zero,56(sp)
    1348:	02012e23          	sw	zero,60(sp)
    134c:	040006b7          	lui	a3,0x4000
    1350:	040007b7          	lui	a5,0x4000
    1354:	04e68823          	sb	a4,80(a3) # 4000050 <_stack_end+0x3efcccc>
    1358:	06e78023          	sb	a4,96(a5) # 4000060 <_stack_end+0x3efccdc>
    135c:	06e78823          	sb	a4,112(a5)
    1360:	08e78023          	sb	a4,128(a5)
    1364:	08e78823          	sb	a4,144(a5)
    1368:	0ae78023          	sb	a4,160(a5)
    136c:	00c10513          	addi	a0,sp,12
    1370:	9acff0ef          	jal	51c <morning_routine>
    1374:	00c10513          	addi	a0,sp,12
    1378:	9a4ff0ef          	jal	51c <morning_routine>
    137c:	00c10513          	addi	a0,sp,12
    1380:	99cff0ef          	jal	51c <morning_routine>
    1384:	00c10513          	addi	a0,sp,12
    1388:	994ff0ef          	jal	51c <morning_routine>
    138c:	04c12083          	lw	ra,76(sp)
    1390:	00000513          	li	a0,0
    1394:	05010113          	addi	sp,sp,80
    1398:	00008067          	ret

0000139c <printc>:
    139c:	04000737          	lui	a4,0x4000
    13a0:	04470713          	addi	a4,a4,68 # 4000044 <_stack_end+0x3efccc0>
    13a4:	000106b7          	lui	a3,0x10
    13a8:	00072783          	lw	a5,0(a4)
    13ac:	fed7eee3          	bltu	a5,a3,13a8 <printc+0xc>
    13b0:	040007b7          	lui	a5,0x4000
    13b4:	04a7a023          	sw	a0,64(a5) # 4000040 <_stack_end+0x3efccbc>
    13b8:	00008067          	ret

000013bc <print>:
    13bc:	00054603          	lbu	a2,0(a0)
    13c0:	02060863          	beqz	a2,13f0 <print+0x34>
    13c4:	04000737          	lui	a4,0x4000
    13c8:	040005b7          	lui	a1,0x4000
    13cc:	04470713          	addi	a4,a4,68 # 4000044 <_stack_end+0x3efccc0>
    13d0:	000106b7          	lui	a3,0x10
    13d4:	04058593          	addi	a1,a1,64 # 4000040 <_stack_end+0x3efccbc>
    13d8:	00072783          	lw	a5,0(a4)
    13dc:	fed7eee3          	bltu	a5,a3,13d8 <print+0x1c>
    13e0:	00c5a023          	sw	a2,0(a1)
    13e4:	00154603          	lbu	a2,1(a0)
    13e8:	00150513          	addi	a0,a0,1
    13ec:	fe0616e3          	bnez	a2,13d8 <print+0x1c>
    13f0:	00008067          	ret

000013f4 <print_dec>:
    13f4:	3b9ad737          	lui	a4,0x3b9ad
    13f8:	040006b7          	lui	a3,0x4000
    13fc:	04000337          	lui	t1,0x4000
    1400:	00a00593          	li	a1,10
    1404:	00000793          	li	a5,0
    1408:	a0070713          	addi	a4,a4,-1536 # 3b9aca00 <_stack_end+0x3b8a967c>
    140c:	04468693          	addi	a3,a3,68 # 4000044 <_stack_end+0x3efccc0>
    1410:	00010637          	lui	a2,0x10
    1414:	04030313          	addi	t1,t1,64 # 4000040 <_stack_end+0x3efccbc>
    1418:	00a00893          	li	a7,10
    141c:	04e57063          	bgeu	a0,a4,145c <print_dec+0x68>
    1420:	02079e63          	bnez	a5,145c <print_dec+0x68>
    1424:	fff58593          	addi	a1,a1,-1
    1428:	02e57533          	remu	a0,a0,a4
    142c:	03175733          	divu	a4,a4,a7
    1430:	fe0596e3          	bnez	a1,141c <print_dec+0x28>
    1434:	02079263          	bnez	a5,1458 <print_dec+0x64>
    1438:	04000737          	lui	a4,0x4000
    143c:	04470713          	addi	a4,a4,68 # 4000044 <_stack_end+0x3efccc0>
    1440:	000106b7          	lui	a3,0x10
    1444:	00072783          	lw	a5,0(a4)
    1448:	fed7eee3          	bltu	a5,a3,1444 <print_dec+0x50>
    144c:	040007b7          	lui	a5,0x4000
    1450:	03000713          	li	a4,48
    1454:	04e7a023          	sw	a4,64(a5) # 4000040 <_stack_end+0x3efccbc>
    1458:	00008067          	ret
    145c:	02e55833          	divu	a6,a0,a4
    1460:	03080813          	addi	a6,a6,48
    1464:	0ff87813          	zext.b	a6,a6
    1468:	0006a783          	lw	a5,0(a3) # 10000 <__global_pointer+0xdff4>
    146c:	fec7eee3          	bltu	a5,a2,1468 <print_dec+0x74>
    1470:	01032023          	sw	a6,0(t1)
    1474:	00100793          	li	a5,1
    1478:	fadff06f          	j	1424 <print_dec+0x30>

0000147c <print_hex32>:
    147c:	04000737          	lui	a4,0x4000
    1480:	04470713          	addi	a4,a4,68 # 4000044 <_stack_end+0x3efccc0>
    1484:	000106b7          	lui	a3,0x10
    1488:	00072783          	lw	a5,0(a4)
    148c:	fed7eee3          	bltu	a5,a3,1488 <print_hex32+0xc>
    1490:	03000693          	li	a3,48
    1494:	040007b7          	lui	a5,0x4000
    1498:	04000737          	lui	a4,0x4000
    149c:	04d7a023          	sw	a3,64(a5) # 4000040 <_stack_end+0x3efccbc>
    14a0:	04470713          	addi	a4,a4,68 # 4000044 <_stack_end+0x3efccc0>
    14a4:	000106b7          	lui	a3,0x10
    14a8:	00072783          	lw	a5,0(a4)
    14ac:	fed7eee3          	bltu	a5,a3,14a8 <print_hex32+0x2c>
    14b0:	04000837          	lui	a6,0x4000
    14b4:	04080813          	addi	a6,a6,64 # 4000040 <_stack_end+0x3efccbc>
    14b8:	04000737          	lui	a4,0x4000
    14bc:	07800793          	li	a5,120
    14c0:	00f82023          	sw	a5,0(a6)
    14c4:	01c00613          	li	a2,28
    14c8:	00900313          	li	t1,9
    14cc:	04470713          	addi	a4,a4,68 # 4000044 <_stack_end+0x3efccc0>
    14d0:	000106b7          	lui	a3,0x10
    14d4:	ffc00893          	li	a7,-4
    14d8:	00c557b3          	srl	a5,a0,a2
    14dc:	00f7f793          	andi	a5,a5,15
    14e0:	03778593          	addi	a1,a5,55
    14e4:	00f36463          	bltu	t1,a5,14ec <print_hex32+0x70>
    14e8:	03078593          	addi	a1,a5,48
    14ec:	00072783          	lw	a5,0(a4)
    14f0:	fed7eee3          	bltu	a5,a3,14ec <print_hex32+0x70>
    14f4:	00b82023          	sw	a1,0(a6)
    14f8:	ffc60613          	addi	a2,a2,-4 # fffc <__global_pointer+0xdff0>
    14fc:	fd161ee3          	bne	a2,a7,14d8 <print_hex32+0x5c>
    1500:	00008067          	ret

00001504 <handle_exception>:
    1504:	00200793          	li	a5,2
    1508:	18f80863          	beq	a6,a5,1698 <handle_exception+0x194>
    150c:	00b00793          	li	a5,11
    1510:	12f80063          	beq	a6,a5,1630 <handle_exception+0x12c>
    1514:	04000737          	lui	a4,0x4000
    1518:	14081463          	bnez	a6,1660 <handle_exception+0x15c>
    151c:	04000837          	lui	a6,0x4000
    1520:	00003637          	lui	a2,0x3
    1524:	2fc60613          	addi	a2,a2,764 # 32fc <__global_pointer+0x12f0>
    1528:	00a00593          	li	a1,10
    152c:	04470713          	addi	a4,a4,68 # 4000044 <_stack_end+0x3efccc0>
    1530:	000106b7          	lui	a3,0x10
    1534:	04080813          	addi	a6,a6,64 # 4000040 <_stack_end+0x3efccbc>
    1538:	00072783          	lw	a5,0(a4)
    153c:	fed7eee3          	bltu	a5,a3,1538 <handle_exception+0x34>
    1540:	00b82023          	sw	a1,0(a6)
    1544:	00164583          	lbu	a1,1(a2)
    1548:	00160613          	addi	a2,a2,1
    154c:	fe0596e3          	bnez	a1,1538 <handle_exception+0x34>
    1550:	04000737          	lui	a4,0x4000
    1554:	04000837          	lui	a6,0x4000
    1558:	00003637          	lui	a2,0x3
    155c:	37060613          	addi	a2,a2,880 # 3370 <__global_pointer+0x1364>
    1560:	04500593          	li	a1,69
    1564:	04470713          	addi	a4,a4,68 # 4000044 <_stack_end+0x3efccc0>
    1568:	000106b7          	lui	a3,0x10
    156c:	04080813          	addi	a6,a6,64 # 4000040 <_stack_end+0x3efccbc>
    1570:	00072783          	lw	a5,0(a4)
    1574:	fed7eee3          	bltu	a5,a3,1570 <handle_exception+0x6c>
    1578:	00b82023          	sw	a1,0(a6)
    157c:	00164583          	lbu	a1,1(a2)
    1580:	00160613          	addi	a2,a2,1
    1584:	fe0596e3          	bnez	a1,1570 <handle_exception+0x6c>
    1588:	04000737          	lui	a4,0x4000
    158c:	04470713          	addi	a4,a4,68 # 4000044 <_stack_end+0x3efccc0>
    1590:	000106b7          	lui	a3,0x10
    1594:	00072783          	lw	a5,0(a4)
    1598:	fed7eee3          	bltu	a5,a3,1594 <handle_exception+0x90>
    159c:	03000693          	li	a3,48
    15a0:	040007b7          	lui	a5,0x4000
    15a4:	04000737          	lui	a4,0x4000
    15a8:	04d7a023          	sw	a3,64(a5) # 4000040 <_stack_end+0x3efccbc>
    15ac:	04470713          	addi	a4,a4,68 # 4000044 <_stack_end+0x3efccc0>
    15b0:	000106b7          	lui	a3,0x10
    15b4:	00072783          	lw	a5,0(a4)
    15b8:	fed7eee3          	bltu	a5,a3,15b4 <handle_exception+0xb0>
    15bc:	04000837          	lui	a6,0x4000
    15c0:	04080813          	addi	a6,a6,64 # 4000040 <_stack_end+0x3efccbc>
    15c4:	04000737          	lui	a4,0x4000
    15c8:	07800793          	li	a5,120
    15cc:	00f82023          	sw	a5,0(a6)
    15d0:	01c00613          	li	a2,28
    15d4:	00900313          	li	t1,9
    15d8:	04470713          	addi	a4,a4,68 # 4000044 <_stack_end+0x3efccc0>
    15dc:	000106b7          	lui	a3,0x10
    15e0:	ffc00893          	li	a7,-4
    15e4:	00c557b3          	srl	a5,a0,a2
    15e8:	00f7f793          	andi	a5,a5,15
    15ec:	03778593          	addi	a1,a5,55
    15f0:	00f36463          	bltu	t1,a5,15f8 <handle_exception+0xf4>
    15f4:	03078593          	addi	a1,a5,48
    15f8:	00072783          	lw	a5,0(a4)
    15fc:	fed7eee3          	bltu	a5,a3,15f8 <handle_exception+0xf4>
    1600:	00b82023          	sw	a1,0(a6)
    1604:	ffc60613          	addi	a2,a2,-4
    1608:	fd161ee3          	bne	a2,a7,15e4 <handle_exception+0xe0>
    160c:	04000737          	lui	a4,0x4000
    1610:	04470713          	addi	a4,a4,68 # 4000044 <_stack_end+0x3efccc0>
    1614:	000106b7          	lui	a3,0x10
    1618:	00072783          	lw	a5,0(a4)
    161c:	fed7eee3          	bltu	a5,a3,1618 <handle_exception+0x114>
    1620:	040007b7          	lui	a5,0x4000
    1624:	00a00713          	li	a4,10
    1628:	04e7a023          	sw	a4,64(a5) # 4000040 <_stack_end+0x3efccbc>
    162c:	0000006f          	j	162c <handle_exception+0x128>
    1630:	00400793          	li	a5,4
    1634:	0af88063          	beq	a7,a5,16d4 <handle_exception+0x1d0>
    1638:	0d089a63          	bne	a7,a6,170c <handle_exception+0x208>
    163c:	04000737          	lui	a4,0x4000
    1640:	04470713          	addi	a4,a4,68 # 4000044 <_stack_end+0x3efccc0>
    1644:	000106b7          	lui	a3,0x10
    1648:	00072783          	lw	a5,0(a4)
    164c:	fed7eee3          	bltu	a5,a3,1648 <handle_exception+0x144>
    1650:	040007b7          	lui	a5,0x4000
    1654:	0ff57513          	zext.b	a0,a0
    1658:	04a7a023          	sw	a0,64(a5) # 4000040 <_stack_end+0x3efccbc>
    165c:	00008067          	ret
    1660:	04000837          	lui	a6,0x4000
    1664:	00003637          	lui	a2,0x3
    1668:	35060613          	addi	a2,a2,848 # 3350 <__global_pointer+0x1344>
    166c:	00a00593          	li	a1,10
    1670:	04470713          	addi	a4,a4,68
    1674:	000106b7          	lui	a3,0x10
    1678:	04080813          	addi	a6,a6,64 # 4000040 <_stack_end+0x3efccbc>
    167c:	00072783          	lw	a5,0(a4)
    1680:	fed7eee3          	bltu	a5,a3,167c <handle_exception+0x178>
    1684:	00b82023          	sw	a1,0(a6)
    1688:	00164583          	lbu	a1,1(a2)
    168c:	00160613          	addi	a2,a2,1
    1690:	fe0596e3          	bnez	a1,167c <handle_exception+0x178>
    1694:	ebdff06f          	j	1550 <handle_exception+0x4c>
    1698:	04000737          	lui	a4,0x4000
    169c:	04000837          	lui	a6,0x4000
    16a0:	00003637          	lui	a2,0x3
    16a4:	32c60613          	addi	a2,a2,812 # 332c <__global_pointer+0x1320>
    16a8:	00a00593          	li	a1,10
    16ac:	04470713          	addi	a4,a4,68 # 4000044 <_stack_end+0x3efccc0>
    16b0:	000106b7          	lui	a3,0x10
    16b4:	04080813          	addi	a6,a6,64 # 4000040 <_stack_end+0x3efccbc>
    16b8:	00072783          	lw	a5,0(a4)
    16bc:	fed7eee3          	bltu	a5,a3,16b8 <handle_exception+0x1b4>
    16c0:	00b82023          	sw	a1,0(a6)
    16c4:	00164583          	lbu	a1,1(a2)
    16c8:	00160613          	addi	a2,a2,1
    16cc:	fe0596e3          	bnez	a1,16b8 <handle_exception+0x1b4>
    16d0:	e81ff06f          	j	1550 <handle_exception+0x4c>
    16d4:	00054603          	lbu	a2,0(a0)
    16d8:	02060a63          	beqz	a2,170c <handle_exception+0x208>
    16dc:	04000737          	lui	a4,0x4000
    16e0:	040005b7          	lui	a1,0x4000
    16e4:	04470713          	addi	a4,a4,68 # 4000044 <_stack_end+0x3efccc0>
    16e8:	000106b7          	lui	a3,0x10
    16ec:	04058593          	addi	a1,a1,64 # 4000040 <_stack_end+0x3efccbc>
    16f0:	00072783          	lw	a5,0(a4)
    16f4:	fed7eee3          	bltu	a5,a3,16f0 <handle_exception+0x1ec>
    16f8:	00c5a023          	sw	a2,0(a1)
    16fc:	00154603          	lbu	a2,1(a0)
    1700:	00150513          	addi	a0,a0,1
    1704:	fe0616e3          	bnez	a2,16f0 <handle_exception+0x1ec>
    1708:	00008067          	ret
    170c:	00008067          	ret

00001710 <nextprime>:
    1710:	00200713          	li	a4,2
    1714:	00050793          	mv	a5,a0
    1718:	02a74063          	blt	a4,a0,1738 <nextprime+0x28>
    171c:	00100513          	li	a0,1
    1720:	00f05a63          	blez	a5,1734 <nextprime+0x24>
    1724:	fff78793          	addi	a5,a5,-1
    1728:	00f037b3          	snez	a5,a5
    172c:	00278513          	addi	a0,a5,2
    1730:	00008067          	ret
    1734:	00008067          	ret
    1738:	00150793          	addi	a5,a0,1
    173c:	0017e513          	ori	a0,a5,1
    1740:	00300613          	li	a2,3
    1744:	02c567b3          	rem	a5,a0,a2
    1748:	40155693          	srai	a3,a0,0x1
    174c:	02078263          	beqz	a5,1770 <nextprime+0x60>
    1750:	00268693          	addi	a3,a3,2 # 10002 <__global_pointer+0xdff6>
    1754:	00300793          	li	a5,3
    1758:	00c0006f          	j	1764 <nextprime+0x54>
    175c:	02f56733          	rem	a4,a0,a5
    1760:	00070863          	beqz	a4,1770 <nextprime+0x60>
    1764:	00178793          	addi	a5,a5,1
    1768:	fef69ae3          	bne	a3,a5,175c <nextprime+0x4c>
    176c:	00008067          	ret
    1770:	00250513          	addi	a0,a0,2
    1774:	fd1ff06f          	j	1744 <nextprime+0x34>

Disassembly of section .data:

00001778 <welcome_msg>:
    1778:	3d3d                	.insn	2, 0x3d3d
    177a:	3d3d                	.insn	2, 0x3d3d
    177c:	3d3d                	.insn	2, 0x3d3d
    177e:	3d3d                	.insn	2, 0x3d3d
    1780:	3d3d                	.insn	2, 0x3d3d
    1782:	3d3d                	.insn	2, 0x3d3d
    1784:	3d3d                	.insn	2, 0x3d3d
    1786:	3d3d                	.insn	2, 0x3d3d
    1788:	3d3d                	.insn	2, 0x3d3d
    178a:	3d3d                	.insn	2, 0x3d3d
    178c:	3d3d                	.insn	2, 0x3d3d
    178e:	3d3d                	.insn	2, 0x3d3d
    1790:	3d3d                	.insn	2, 0x3d3d
    1792:	3d3d                	.insn	2, 0x3d3d
    1794:	3d3d                	.insn	2, 0x3d3d
    1796:	3d3d                	.insn	2, 0x3d3d
    1798:	3d3d                	.insn	2, 0x3d3d
    179a:	3d3d                	.insn	2, 0x3d3d
    179c:	3d3d                	.insn	2, 0x3d3d
    179e:	3d3d                	.insn	2, 0x3d3d
    17a0:	3d3d                	.insn	2, 0x3d3d
    17a2:	3d3d                	.insn	2, 0x3d3d
    17a4:	3d3d                	.insn	2, 0x3d3d
    17a6:	3d3d                	.insn	2, 0x3d3d
    17a8:	3d0a                	.insn	2, 0x3d0a
    17aa:	3d3d                	.insn	2, 0x3d3d
    17ac:	3d3d                	.insn	2, 0x3d3d
    17ae:	5220                	.insn	2, 0x5220
    17b0:	5349                	.insn	2, 0x5349
    17b2:	20562d43          	.insn	4, 0x20562d43
    17b6:	6f42                	.insn	2, 0x6f42
    17b8:	552d746f          	jal	s0,d8d0a <__global_pointer+0xd6cfe>
    17bc:	2070                	.insn	2, 0x2070
    17be:	7250                	.insn	2, 0x7250
    17c0:	7365636f          	jal	t1,57ef6 <__global_pointer+0x55eea>
    17c4:	6f4e2073          	csrs	0x6f4,t3
    17c8:	6f432077          	.insn	4, 0x6f432077
    17cc:	706d                	.insn	2, 0x706d
    17ce:	656c                	.insn	2, 0x656c
    17d0:	6574                	.insn	2, 0x6574
    17d2:	3d20                	.insn	2, 0x3d20
    17d4:	3d3d                	.insn	2, 0x3d3d
    17d6:	3d3d                	.insn	2, 0x3d3d
    17d8:	0a3d                	.insn	2, 0x0a3d
    17da:	3d3d                	.insn	2, 0x3d3d
    17dc:	3d3d                	.insn	2, 0x3d3d
    17de:	3d3d                	.insn	2, 0x3d3d
    17e0:	3d3d                	.insn	2, 0x3d3d
    17e2:	3d3d                	.insn	2, 0x3d3d
    17e4:	3d3d                	.insn	2, 0x3d3d
    17e6:	3d3d                	.insn	2, 0x3d3d
    17e8:	3d3d                	.insn	2, 0x3d3d
    17ea:	3d3d                	.insn	2, 0x3d3d
    17ec:	3d3d                	.insn	2, 0x3d3d
    17ee:	3d3d                	.insn	2, 0x3d3d
    17f0:	3d3d                	.insn	2, 0x3d3d
    17f2:	3d3d                	.insn	2, 0x3d3d
    17f4:	3d3d                	.insn	2, 0x3d3d
    17f6:	3d3d                	.insn	2, 0x3d3d
    17f8:	3d3d                	.insn	2, 0x3d3d
    17fa:	3d3d                	.insn	2, 0x3d3d
    17fc:	3d3d                	.insn	2, 0x3d3d
    17fe:	3d3d                	.insn	2, 0x3d3d
    1800:	3d3d                	.insn	2, 0x3d3d
    1802:	3d3d                	.insn	2, 0x3d3d
    1804:	3d3d                	.insn	2, 0x3d3d
    1806:	3d3d                	.insn	2, 0x3d3d
    1808:	3d3d                	.insn	2, 0x3d3d
    180a:	000a                	.insn	2, 0x000a

Disassembly of section .rodata.str1.4:

0000180c <.rodata.str1.4>:
    180c:	4a325b1b          	.insn	4, 0x4a325b1b
    1810:	00485b1b          	.insn	4, 0x00485b1b
    1814:	41315b1b          	.insn	4, 0x41315b1b
    1818:	4b325b1b          	.insn	4, 0x4b325b1b
    181c:	0000                	.insn	2, 0x
    181e:	0000                	.insn	2, 0x
    1820:	6e49                	.insn	2, 0x6e49
    1822:	6176                	.insn	2, 0x6176
    1824:	696c                	.insn	2, 0x696c
    1826:	2064                	.insn	2, 0x2064
    1828:	696f6863          	bltu	t5,s6,1eb8 <welcome_msg+0x740>
    182c:	20216563          	bltu	sp,sp,1a36 <welcome_msg+0x2be>
    1830:	6c46                	.insn	2, 0x6c46
    1832:	7069                	.insn	2, 0x7069
    1834:	6f20                	.insn	2, 0x6f20
    1836:	6c6e                	.insn	2, 0x6c6e
    1838:	2079                	.insn	2, 0x2079
    183a:	20454e4f          	.insn	4, 0x20454e4f
    183e:	74697773          	csrrci	a4,0x746,18
    1842:	61206863          	bltu	zero,s2,1e52 <welcome_msg+0x6da>
    1846:	646e                	.insn	2, 0x646e
    1848:	7020                	.insn	2, 0x7020
    184a:	6572                	.insn	2, 0x6572
    184c:	74207373          	csrrci	t1,0x742,0
    1850:	6568                	.insn	2, 0x6568
    1852:	6220                	.insn	2, 0x6220
    1854:	7475                	.insn	2, 0x7475
    1856:	6f74                	.insn	2, 0x6f74
    1858:	2e6e                	.insn	2, 0x2e6e
    185a:	000a                	.insn	2, 0x000a
    185c:	2d0a                	.insn	2, 0x2d0a
    185e:	2d2d                	.insn	2, 0x2d2d
    1860:	4320                	.insn	2, 0x4320
    1862:	7275                	.insn	2, 0x7275
    1864:	6572                	.insn	2, 0x6572
    1866:	746e                	.insn	2, 0x746e
    1868:	5320                	.insn	2, 0x5320
    186a:	6174                	.insn	2, 0x6174
    186c:	7574                	.insn	2, 0x7574
    186e:	2d2d2073          	csrs	0x2d2,s10
    1872:	0a2d                	.insn	2, 0x0a2d
    1874:	0000                	.insn	2, 0x
    1876:	0000                	.insn	2, 0x
    1878:	6e45                	.insn	2, 0x6e45
    187a:	7265                	.insn	2, 0x7265
    187c:	203a7967          	.insn	4, 0x203a7967
    1880:	0000                	.insn	2, 0x
    1882:	0000                	.insn	2, 0x
    1884:	000a                	.insn	2, 0x000a
    1886:	0000                	.insn	2, 0x
    1888:	68736143          	.insn	4, 0x68736143
    188c:	203a                	.insn	2, 0x203a
    188e:	0024                	.insn	2, 0x0024
    1890:	72616843          	.insn	4, 0x72616843
    1894:	7369                	.insn	2, 0x7369
    1896:	616d                	.insn	2, 0x616d
    1898:	203a                	.insn	2, 0x203a
    189a:	0000                	.insn	2, 0x
    189c:	636f6c43          	.insn	4, 0x636f6c43
    18a0:	00203a6b          	.insn	4, 0x00203a6b
    18a4:	6941                	.insn	2, 0x6941
    18a6:	6d6c                	.insn	2, 0x6d6c
    18a8:	6e65                	.insn	2, 0x6e65
    18aa:	7374                	.insn	2, 0x7374
    18ac:	203a                	.insn	2, 0x203a
    18ae:	0000                	.insn	2, 0x
    18b0:	9ff0                	.insn	2, 0x9ff0
    18b2:	b598                	.insn	2, 0xb598
    18b4:	5320                	.insn	2, 0x5320
    18b6:	7274                	.insn	2, 0x7274
    18b8:	7365                	.insn	2, 0x7365
    18ba:	20646573          	csrrsi	a0,0x206,8
    18be:	0020                	.insn	2, 0x0020
    18c0:	9ff0                	.insn	2, 0x9ff0
    18c2:	b1a5                	.insn	2, 0xb1a5
    18c4:	5320                	.insn	2, 0x5320
    18c6:	656c                	.insn	2, 0x656c
    18c8:	7065                	.insn	2, 0x7065
    18ca:	2079                	.insn	2, 0x2079
    18cc:	0020                	.insn	2, 0x0020
    18ce:	0000                	.insn	2, 0x
    18d0:	98e2                	.insn	2, 0x98e2
    18d2:	2095                	.insn	2, 0x2095
    18d4:	7265764f          	.insn	4, 0x7265764f
    18d8:	632d                	.insn	2, 0x632d
    18da:	6661                	.insn	2, 0x6661
    18dc:	6566                	.insn	2, 0x6566
    18de:	6e69                	.insn	2, 0x6e69
    18e0:	7461                	.insn	2, 0x7461
    18e2:	6465                	.insn	2, 0x6465
    18e4:	2020                	.insn	2, 0x2020
    18e6:	0000                	.insn	2, 0x
    18e8:	9ff0                	.insn	2, 0x9ff0
    18ea:	5020868f          	.insn	4, 0x5020868f
    18ee:	6f72                	.insn	2, 0x6f72
    18f0:	7564                	.insn	2, 0x7564
    18f2:	76697463          	bgeu	s2,t1,205a <__global_pointer+0x4e>
    18f6:	2065                	.insn	2, 0x2065
    18f8:	0020                	.insn	2, 0x0020
    18fa:	0000                	.insn	2, 0x
    18fc:	6f4e                	.insn	2, 0x6f4e
    18fe:	656e                	.insn	2, 0x656e
    1900:	f020                	.insn	2, 0xf020
    1902:	989f 008a 0000      	.insn	6, 0x008a989f
    1908:	2020                	.insn	2, 0x2020
    190a:	000a                	.insn	2, 0x000a
    190c:	6f59                	.insn	2, 0x6f59
    190e:	2075                	.insn	2, 0x2075
    1910:	656b6177          	.insn	4, 0x656b6177
    1914:	7520                	.insn	2, 0x7520
    1916:	2c70                	.insn	2, 0x2c70
    1918:	6220                	.insn	2, 0x6220
    191a:	7475                	.insn	2, 0x7475
    191c:	7420                	.insn	2, 0x7420
    191e:	6568                	.insn	2, 0x6568
    1920:	6120                	.insn	2, 0x6120
    1922:	616c                	.insn	2, 0x616c
    1924:	6d72                	.insn	2, 0x6d72
    1926:	6820                	.insn	2, 0x6820
    1928:	7361                	.insn	2, 0x7361
    192a:	276e                	.insn	2, 0x276e
    192c:	2074                	.insn	2, 0x2074
    192e:	7572                	.insn	2, 0x7572
    1930:	676e                	.insn	2, 0x676e
    1932:	7920                	.insn	2, 0x7920
    1934:	7465                	.insn	2, 0x7465
    1936:	2e2e                	.insn	2, 0x2e2e
    1938:	0a2e                	.insn	2, 0x0a2e
    193a:	0000                	.insn	2, 0x
    193c:	6c46                	.insn	2, 0x6c46
    193e:	7069                	.insn	2, 0x7069
    1940:	7420                	.insn	2, 0x7420
    1942:	6568                	.insn	2, 0x6568
    1944:	7320                	.insn	2, 0x7320
    1946:	63746977          	.insn	4, 0x63746977
    194a:	6568                	.insn	2, 0x6568
    194c:	6f742073          	csrs	0x6f7,s0
    1950:	6320                	.insn	2, 0x6320
    1952:	6f68                	.insn	2, 0x6f68
    1954:	3a65736f          	jal	t1,58cfa <__global_pointer+0x56cee>
    1958:	000a                	.insn	2, 0x000a
    195a:	0000                	.insn	2, 0x
    195c:	20305753          	.insn	4, 0x20305753
    1960:	86e2                	.insn	2, 0x86e2
    1962:	2092                	.insn	2, 0x2092
    1964:	6f6f6e53          	.insn	4, 0x6f6f6e53
    1968:	657a                	.insn	2, 0x657a
    196a:	6120                	.insn	2, 0x6120
    196c:	6e696167          	.insn	4, 0x6e696167
    1970:	000a                	.insn	2, 0x000a
    1972:	0000                	.insn	2, 0x
    1974:	20315753          	.insn	4, 0x20315753
    1978:	86e2                	.insn	2, 0x86e2
    197a:	2092                	.insn	2, 0x2092
    197c:	20746547          	.insn	4, 0x20746547
    1980:	7075                	.insn	2, 0x7075
    1982:	6620                	.insn	2, 0x6620
    1984:	6f72                	.insn	2, 0x6f72
    1986:	206d                	.insn	2, 0x206d
    1988:	6562                	.insn	2, 0x6562
    198a:	0a64                	.insn	2, 0x0a64
    198c:	0000                	.insn	2, 0x
    198e:	0000                	.insn	2, 0x
    1990:	7250                	.insn	2, 0x7250
    1992:	7365                	.insn	2, 0x7365
    1994:	68742073          	csrs	0x687,s0
    1998:	2065                	.insn	2, 0x2065
    199a:	7562                	.insn	2, 0x7562
    199c:	7474                	.insn	2, 0x7474
    199e:	74206e6f          	jal	t3,80e0 <__global_pointer+0x60d4>
    19a2:	6f63206f          	j	34098 <__global_pointer+0x3208c>
    19a6:	666e                	.insn	2, 0x666e
    19a8:	7269                	.insn	2, 0x7269
    19aa:	206d                	.insn	2, 0x206d
    19ac:	6f79                	.insn	2, 0x6f79
    19ae:	7275                	.insn	2, 0x7275
    19b0:	6320                	.insn	2, 0x6320
    19b2:	6f68                	.insn	2, 0x6f68
    19b4:	6369                	.insn	2, 0x6369
    19b6:	2e65                	.insn	2, 0x2e65
    19b8:	2e2e                	.insn	2, 0x2e2e
    19ba:	000a                	.insn	2, 0x000a
    19bc:	2020                	.insn	2, 0x2020
    19be:	2828                	.insn	2, 0x2828
    19c0:	2020                	.insn	2, 0x2020
    19c2:	5f28                	.insn	2, 0x5f28
    19c4:	495f 5f5f 2029      	.insn	6, 0x20295f5f495f
    19ca:	2920                	.insn	2, 0x2920
    19cc:	0a29                	.insn	2, 0x0a29
    19ce:	0000                	.insn	2, 0x
    19d0:	2020                	.insn	2, 0x2020
    19d2:	2020                	.insn	2, 0x2020
    19d4:	272e                	.insn	2, 0x272e
    19d6:	2e5f 2e2e 2e2e      	.insn	6, 0x2e2e2e2e2e5f
    19dc:	275f 0a2e 0000      	.insn	6, 0x0a2e275f
    19e2:	0000                	.insn	2, 0x
    19e4:	2020                	.insn	2, 0x2020
    19e6:	2f20                	.insn	2, 0x2f20
    19e8:	2f20                	.insn	2, 0x2f20
    19ea:	2e20                	.insn	2, 0x2e20
    19ec:	3231                	.insn	2, 0x3231
    19ee:	2e20                	.insn	2, 0x2e20
    19f0:	5c20                	.insn	2, 0x5c20
    19f2:	5c20                	.insn	2, 0x5c20
    19f4:	000a                	.insn	2, 0x000a
    19f6:	0000                	.insn	2, 0x
    19f8:	2020                	.insn	2, 0x2020
    19fa:	207c                	.insn	2, 0x207c
    19fc:	207c                	.insn	2, 0x207c
    19fe:	7c202027          	.insn	4, 0x7c202027
    1a02:	2020                	.insn	2, 0x2020
    1a04:	207c2027          	.insn	4, 0x207c2027
    1a08:	0a7c                	.insn	2, 0x0a7c
    1a0a:	0000                	.insn	2, 0x
    1a0c:	2020                	.insn	2, 0x2020
    1a0e:	207c                	.insn	2, 0x207c
    1a10:	207c                	.insn	2, 0x207c
    1a12:	2039                	.insn	2, 0x2039
    1a14:	2f20                	.insn	2, 0x2f20
    1a16:	2020                	.insn	2, 0x2020
    1a18:	207c2033          	.insn	4, 0x207c2033
    1a1c:	0a7c                	.insn	2, 0x0a7c
    1a1e:	0000                	.insn	2, 0x
    1a20:	2020                	.insn	2, 0x2020
    1a22:	5c20                	.insn	2, 0x5c20
    1a24:	5c20                	.insn	2, 0x5c20
    1a26:	2720                	.insn	2, 0x2720
    1a28:	362e                	.insn	2, 0x362e
    1a2a:	272e                	.insn	2, 0x272e
    1a2c:	2f20                	.insn	2, 0x2f20
    1a2e:	2f20                	.insn	2, 0x2f20
    1a30:	000a                	.insn	2, 0x000a
    1a32:	0000                	.insn	2, 0x
    1a34:	2020                	.insn	2, 0x2020
    1a36:	2020                	.insn	2, 0x2020
    1a38:	2d602e27          	.insn	4, 0x2d602e27
    1a3c:	2e2e                	.insn	2, 0x2e2e
    1a3e:	2d2e                	.insn	2, 0x2d2e
    1a40:	0a272e27          	.insn	4, 0x0a272e27
    1a44:	0000                	.insn	2, 0x
    1a46:	0000                	.insn	2, 0x
    1a48:	2020                	.insn	2, 0x2020
    1a4a:	2020                	.insn	2, 0x2020
    1a4c:	2d2d272f          	.insn	4, 0x2d2d272f
    1a50:	2d20                	.insn	2, 0x2d20
    1a52:	272d                	.insn	2, 0x272d
    1a54:	0a5c                	.insn	2, 0x0a5c
    1a56:	0000                	.insn	2, 0x
    1a58:	2020                	.insn	2, 0x2020
    1a5a:	2020                	.insn	2, 0x2020
    1a5c:	2260                	.insn	2, 0x2260
    1a5e:	2222                	.insn	2, 0x2222
    1a60:	2222                	.insn	2, 0x2222
    1a62:	2222                	.insn	2, 0x2222
    1a64:	2222                	.insn	2, 0x2222
    1a66:	0a60                	.insn	2, 0x0a60
    1a68:	0000                	.insn	2, 0x
    1a6a:	0000                	.insn	2, 0x
    1a6c:	6f59                	.insn	2, 0x6f59
    1a6e:	2075                	.insn	2, 0x2075
    1a70:	6f6f6e73          	csrrsi	t3,0x6f6,30
    1a74:	657a                	.insn	2, 0x657a
    1a76:	2064                	.insn	2, 0x2064
    1a78:	6f74                	.insn	2, 0x6f74
    1a7a:	756d206f          	j	d41d0 <__global_pointer+0xd21c4>
    1a7e:	2e2e6863          	bltu	t3,sp,1d6e <welcome_msg+0x5f6>
    1a82:	202e                	.insn	2, 0x202e
    1a84:	6f59                	.insn	2, 0x6f59
    1a86:	2075                	.insn	2, 0x2075
    1a88:	6566                	.insn	2, 0x6566
    1a8a:	6c65                	.insn	2, 0x6c65
    1a8c:	7320                	.insn	2, 0x7320
    1a8e:	7274                	.insn	2, 0x7274
    1a90:	7365                	.insn	2, 0x7365
    1a92:	2e646573          	csrrsi	a0,0x2e6,8
    1a96:	000a                	.insn	2, 0x000a
    1a98:	676f7247          	.insn	4, 0x676f7247
    1a9c:	61207967          	.insn	4, 0x61207967
    1aa0:	646e                	.insn	2, 0x646e
    1aa2:	7320                	.insn	2, 0x7320
    1aa4:	6f6c                	.insn	2, 0x6f6c
    1aa6:	6375                	.insn	2, 0x6375
    1aa8:	7968                	.insn	2, 0x7968
    1aaa:	202c                	.insn	2, 0x202c
    1aac:	6f79                	.insn	2, 0x6f79
    1aae:	2075                	.insn	2, 0x2075
    1ab0:	6972                	.insn	2, 0x6972
    1ab2:	66206573          	csrrsi	a0,0x662,0
    1ab6:	6f72                	.insn	2, 0x6f72
    1ab8:	206d                	.insn	2, 0x206d
    1aba:	6874                	.insn	2, 0x6874
    1abc:	2065                	.insn	2, 0x2065
    1abe:	6562                	.insn	2, 0x6562
    1ac0:	2e64                	.insn	2, 0x2e64
    1ac2:	2e2e                	.insn	2, 0x2e2e
    1ac4:	000a                	.insn	2, 0x000a
    1ac6:	0000                	.insn	2, 0x
    1ac8:	68746957          	.insn	4, 0x68746957
    1acc:	6820                	.insn	2, 0x6820
    1ace:	6165                	.insn	2, 0x6165
    1ad0:	7976                	.insn	2, 0x7976
    1ad2:	7320                	.insn	2, 0x7320
    1ad4:	6574                	.insn	2, 0x6574
    1ad6:	7370                	.insn	2, 0x7370
    1ad8:	202c                	.insn	2, 0x202c
    1ada:	6f79                	.insn	2, 0x6f79
    1adc:	2075                	.insn	2, 0x2075
    1ade:	776f6c73          	csrrsi	s8,0x776,30
    1ae2:	796c                	.insn	2, 0x796c
    1ae4:	6120                	.insn	2, 0x6120
    1ae6:	7070                	.insn	2, 0x7070
    1ae8:	6f72                	.insn	2, 0x6f72
    1aea:	6361                	.insn	2, 0x6361
    1aec:	2068                	.insn	2, 0x2068
    1aee:	6874                	.insn	2, 0x6874
    1af0:	2065                	.insn	2, 0x2065
    1af2:	64726177          	.insn	4, 0x64726177
    1af6:	6f72                	.insn	2, 0x6f72
    1af8:	6562                	.insn	2, 0x6562
    1afa:	2e2e                	.insn	2, 0x2e2e
    1afc:	0a2e                	.insn	2, 0x0a2e
    1afe:	0000                	.insn	2, 0x
    1b00:	6146                	.insn	2, 0x6146
    1b02:	636e                	.insn	2, 0x636e
    1b04:	6979                	.insn	2, 0x6979
    1b06:	676e                	.insn	2, 0x676e
    1b08:	7920                	.insn	2, 0x7920
    1b0a:	7372756f          	jal	a0,29a40 <__global_pointer+0x27a34>
    1b0e:	6c65                	.insn	2, 0x6c65
    1b10:	2c66                	.insn	2, 0x2c66
    1b12:	7720                	.insn	2, 0x7720
    1b14:	6168                	.insn	2, 0x6168
    1b16:	2074                	.insn	2, 0x2074
    1b18:	6c6c6977          	.insn	4, 0x6c6c6977
    1b1c:	7920                	.insn	2, 0x7920
    1b1e:	7720756f          	jal	a0,9290 <__global_pointer+0x7284>
    1b22:	6165                	.insn	2, 0x6165
    1b24:	2072                	.insn	2, 0x2072
    1b26:	6f74                	.insn	2, 0x6f74
    1b28:	6164                	.insn	2, 0x6164
    1b2a:	3f79                	.insn	2, 0x3f79
    1b2c:	000a                	.insn	2, 0x000a
    1b2e:	0000                	.insn	2, 0x
    1b30:	2e31                	.insn	2, 0x2e31
    1b32:	4620                	.insn	2, 0x4620
    1b34:	6e61                	.insn	2, 0x6e61
    1b36:	73207963          	bgeu	zero,s2,2268 <__global_pointer+0x25c>
    1b3a:	6975                	.insn	2, 0x6975
    1b3c:	2074                	.insn	2, 0x2074
    1b3e:	68746977          	.insn	4, 0x68746977
    1b42:	6620                	.insn	2, 0x6620
    1b44:	6465                	.insn	2, 0x6465
    1b46:	0a61726f          	jal	tp,18bec <__global_pointer+0x16be0>
    1b4a:	0000                	.insn	2, 0x
    1b4c:	2e32                	.insn	2, 0x2e32
    1b4e:	5320                	.insn	2, 0x5320
    1b50:	74616577          	.insn	4, 0x74616577
    1b54:	6170                	.insn	2, 0x6170
    1b56:	746e                	.insn	2, 0x746e
    1b58:	6e612073          	csrs	0x6e6,sp
    1b5c:	2064                	.insn	2, 0x2064
    1b5e:	61657773          	csrrci	a4,0x616,10
    1b62:	7374                	.insn	2, 0x7374
    1b64:	6968                	.insn	2, 0x6968
    1b66:	7472                	.insn	2, 0x7472
    1b68:	000a                	.insn	2, 0x000a
    1b6a:	0000                	.insn	2, 0x
    1b6c:	54202e33          	.insn	4, 0x54202e33
    1b70:	732d                	.insn	2, 0x732d
    1b72:	6968                	.insn	2, 0x6968
    1b74:	7472                	.insn	2, 0x7472
    1b76:	6120                	.insn	2, 0x6120
    1b78:	646e                	.insn	2, 0x646e
    1b7a:	7320                	.insn	2, 0x7320
    1b7c:	20656d6f          	jal	s10,57d82 <__global_pointer+0x55d76>
    1b80:	656a                	.insn	2, 0x656a
    1b82:	6e61                	.insn	2, 0x6e61
    1b84:	00000a73          	.insn	4, 0x0a73
    1b88:	2020                	.insn	2, 0x2020
    1b8a:	2020                	.insn	2, 0x2020
    1b8c:	2020                	.insn	2, 0x2020
    1b8e:	2020                	.insn	2, 0x2020
    1b90:	5f5f 5f5f 5f5f      	.insn	6, 0x5f5f5f5f5f5f
    1b96:	5f5f 5f5f 5f5f      	.insn	6, 0x5f5f5f5f5f5f
    1b9c:	5f5f 5f5f 5f5f      	.insn	6, 0x5f5f5f5f5f5f
    1ba2:	5f5f 5f5f 5f5f      	.insn	6, 0x5f5f5f5f5f5f
    1ba8:	0a5f 0000 2020      	.insn	6, 0x202000000a5f
    1bae:	2020                	.insn	2, 0x2020
    1bb0:	2020                	.insn	2, 0x2020
    1bb2:	2820                	.insn	2, 0x2820
    1bb4:	202c                	.insn	2, 0x202c
    1bb6:	5f5f 5f5f 5f5f      	.insn	6, 0x5f5f5f5f5f5f
    1bbc:	5f5f 5f5f 5f5f      	.insn	6, 0x5f5f5f5f5f5f
    1bc2:	5f5f 5f5f 5f5f      	.insn	6, 0x5f5f5f5f5f5f
    1bc8:	5f5f 5f5f 2920      	.insn	6, 0x29205f5f5f5f
    1bce:	000a                	.insn	2, 0x000a
    1bd0:	2020                	.insn	2, 0x2020
    1bd2:	2020                	.insn	2, 0x2020
    1bd4:	2020                	.insn	2, 0x2020
    1bd6:	7c20                	.insn	2, 0x7c20
    1bd8:	7c20                	.insn	2, 0x7c20
    1bda:	2020                	.insn	2, 0x2020
    1bdc:	2020                	.insn	2, 0x2020
    1bde:	2020                	.insn	2, 0x2020
    1be0:	2020                	.insn	2, 0x2020
    1be2:	2020                	.insn	2, 0x2020
    1be4:	2020                	.insn	2, 0x2020
    1be6:	2020                	.insn	2, 0x2020
    1be8:	2020                	.insn	2, 0x2020
    1bea:	2020                	.insn	2, 0x2020
    1bec:	2020                	.insn	2, 0x2020
    1bee:	2020                	.insn	2, 0x2020
    1bf0:	7c7c                	.insn	2, 0x7c7c
    1bf2:	000a                	.insn	2, 0x000a
    1bf4:	2020                	.insn	2, 0x2020
    1bf6:	2020                	.insn	2, 0x2020
    1bf8:	2020                	.insn	2, 0x2020
    1bfa:	7c20                	.insn	2, 0x7c20
    1bfc:	7c20                	.insn	2, 0x7c20
    1bfe:	2020                	.insn	2, 0x2020
    1c00:	2020                	.insn	2, 0x2020
    1c02:	2020                	.insn	2, 0x2020
    1c04:	2020                	.insn	2, 0x2020
    1c06:	2020                	.insn	2, 0x2020
    1c08:	4040                	.insn	2, 0x4040
    1c0a:	4040                	.insn	2, 0x4040
    1c0c:	2020                	.insn	2, 0x2020
    1c0e:	2020                	.insn	2, 0x2020
    1c10:	2020                	.insn	2, 0x2020
    1c12:	2020                	.insn	2, 0x2020
    1c14:	7c7c                	.insn	2, 0x7c7c
    1c16:	2020                	.insn	2, 0x2020
    1c18:	2020                	.insn	2, 0x2020
    1c1a:	2020                	.insn	2, 0x2020
    1c1c:	2020                	.insn	2, 0x2020
    1c1e:	2020                	.insn	2, 0x2020
    1c20:	2020                	.insn	2, 0x2020
    1c22:	4040                	.insn	2, 0x4040
    1c24:	4040                	.insn	2, 0x4040
    1c26:	000a                	.insn	2, 0x000a
    1c28:	2020                	.insn	2, 0x2020
    1c2a:	2020                	.insn	2, 0x2020
    1c2c:	2020                	.insn	2, 0x2020
    1c2e:	7c20                	.insn	2, 0x7c20
    1c30:	7c20                	.insn	2, 0x7c20
    1c32:	2020                	.insn	2, 0x2020
    1c34:	2020                	.insn	2, 0x2020
    1c36:	2020                	.insn	2, 0x2020
    1c38:	2020                	.insn	2, 0x2020
    1c3a:	4040                	.insn	2, 0x4040
    1c3c:	4040                	.insn	2, 0x4040
    1c3e:	4040                	.insn	2, 0x4040
    1c40:	2040                	.insn	2, 0x2040
    1c42:	2020                	.insn	2, 0x2020
    1c44:	2020                	.insn	2, 0x2020
    1c46:	2020                	.insn	2, 0x2020
    1c48:	7c7c                	.insn	2, 0x7c7c
    1c4a:	2020                	.insn	2, 0x2020
    1c4c:	2020                	.insn	2, 0x2020
    1c4e:	2020                	.insn	2, 0x2020
    1c50:	2020                	.insn	2, 0x2020
    1c52:	2020                	.insn	2, 0x2020
    1c54:	4040                	.insn	2, 0x4040
    1c56:	4040                	.insn	2, 0x4040
    1c58:	4040                	.insn	2, 0x4040
    1c5a:	0a40                	.insn	2, 0x0a40
    1c5c:	0000                	.insn	2, 0x
    1c5e:	0000                	.insn	2, 0x
    1c60:	2020                	.insn	2, 0x2020
    1c62:	2020                	.insn	2, 0x2020
    1c64:	2020                	.insn	2, 0x2020
    1c66:	7c20                	.insn	2, 0x7c20
    1c68:	7c20                	.insn	2, 0x7c20
    1c6a:	2020                	.insn	2, 0x2020
    1c6c:	2020                	.insn	2, 0x2020
    1c6e:	2020                	.insn	2, 0x2020
    1c70:	2020                	.insn	2, 0x2020
    1c72:	4020                	.insn	2, 0x4020
    1c74:	2040                	.insn	2, 0x2040
    1c76:	202d                	.insn	2, 0x202d
    1c78:	202d                	.insn	2, 0x202d
    1c7a:	2020                	.insn	2, 0x2020
    1c7c:	2020                	.insn	2, 0x2020
    1c7e:	2020                	.insn	2, 0x2020
    1c80:	7c7c                	.insn	2, 0x7c7c
    1c82:	2020                	.insn	2, 0x2020
    1c84:	2020                	.insn	2, 0x2020
    1c86:	2020                	.insn	2, 0x2020
    1c88:	2020                	.insn	2, 0x2020
    1c8a:	2020                	.insn	2, 0x2020
    1c8c:	202d                	.insn	2, 0x202d
    1c8e:	4040                	.insn	2, 0x4040
    1c90:	4040                	.insn	2, 0x4040
    1c92:	000a                	.insn	2, 0x000a
    1c94:	2020                	.insn	2, 0x2020
    1c96:	2020                	.insn	2, 0x2020
    1c98:	2020                	.insn	2, 0x2020
    1c9a:	7c20                	.insn	2, 0x7c20
    1c9c:	7c20                	.insn	2, 0x7c20
    1c9e:	2020                	.insn	2, 0x2020
    1ca0:	2020                	.insn	2, 0x2020
    1ca2:	2020                	.insn	2, 0x2020
    1ca4:	2020                	.insn	2, 0x2020
    1ca6:	2020                	.insn	2, 0x2020
    1ca8:	2040                	.insn	2, 0x2040
    1caa:	6320                	.insn	2, 0x6320
    1cac:	2020202f          	.insn	4, 0x2020202f
    1cb0:	2020                	.insn	2, 0x2020
    1cb2:	2020                	.insn	2, 0x2020
    1cb4:	7c7c                	.insn	2, 0x7c7c
    1cb6:	2020                	.insn	2, 0x2020
    1cb8:	2020                	.insn	2, 0x2020
    1cba:	2020                	.insn	2, 0x2020
    1cbc:	2020                	.insn	2, 0x2020
    1cbe:	2720                	.insn	2, 0x2720
    1cc0:	205f 4040 0a40      	.insn	6, 0x0a404040205f
    1cc6:	0000                	.insn	2, 0x
    1cc8:	2020                	.insn	2, 0x2020
    1cca:	2020                	.insn	2, 0x2020
    1ccc:	2020                	.insn	2, 0x2020
    1cce:	7c20                	.insn	2, 0x7c20
    1cd0:	7c20                	.insn	2, 0x7c20
    1cd2:	2020                	.insn	2, 0x2020
    1cd4:	2020                	.insn	2, 0x2020
    1cd6:	2020                	.insn	2, 0x2020
    1cd8:	2020                	.insn	2, 0x2020
    1cda:	405f 207c 5f7c      	.insn	6, 0x5f7c207c405f
    1ce0:	2020                	.insn	2, 0x2020
    1ce2:	2020                	.insn	2, 0x2020
    1ce4:	2020                	.insn	2, 0x2020
    1ce6:	2020                	.insn	2, 0x2020
    1ce8:	7c7c                	.insn	2, 0x7c7c
    1cea:	2020                	.insn	2, 0x2020
    1cec:	2020                	.insn	2, 0x2020
    1cee:	2020                	.insn	2, 0x2020
    1cf0:	2020                	.insn	2, 0x2020
    1cf2:	5f20                	.insn	2, 0x5f20
    1cf4:	5c5f 2040 405c      	.insn	6, 0x405c20405c5f
    1cfa:	000a                	.insn	2, 0x000a
    1cfc:	2020                	.insn	2, 0x2020
    1cfe:	2020                	.insn	2, 0x2020
    1d00:	2020                	.insn	2, 0x2020
    1d02:	7c20                	.insn	2, 0x7c20
    1d04:	7c20                	.insn	2, 0x7c20
    1d06:	2020                	.insn	2, 0x2020
    1d08:	2020                	.insn	2, 0x2020
    1d0a:	2020                	.insn	2, 0x2020
    1d0c:	2820                	.insn	2, 0x2820
    1d0e:	5c20                	.insn	2, 0x5c20
    1d10:	2920                	.insn	2, 0x2920
    1d12:	205c5f2f          	.insn	4, 0x205c5f2f
    1d16:	20205f2f          	.insn	4, 0x20205f2f
    1d1a:	7c7c                	.insn	2, 0x7c7c
    1d1c:	2020                	.insn	2, 0x2020
    1d1e:	5c5f 205c 2820      	.insn	6, 0x2820205c5c5f
    1d24:	2029202f          	.insn	4, 0x2029202f
    1d28:	5c40                	.insn	2, 0x5c40
    1d2a:	2f5f 0a29 0000      	.insn	6, 0x0a292f5f
    1d30:	2020                	.insn	2, 0x2020
    1d32:	2020                	.insn	2, 0x2020
    1d34:	2020                	.insn	2, 0x2020
    1d36:	7c20                	.insn	2, 0x7c20
    1d38:	7c20                	.insn	2, 0x7c20
    1d3a:	2020                	.insn	2, 0x2020
    1d3c:	2020                	.insn	2, 0x2020
    1d3e:	2020                	.insn	2, 0x2020
    1d40:	2020                	.insn	2, 0x2020
    1d42:	205c                	.insn	2, 0x205c
    1d44:	7c5c                	.insn	2, 0x7c5c
    1d46:	2029                	.insn	2, 0x2029
    1d48:	295c202f          	.insn	4, 0x295c202f
    1d4c:	7c20                	.insn	2, 0x7c20
    1d4e:	207c                	.insn	2, 0x207c
    1d50:	2020                	.insn	2, 0x2020
    1d52:	287c                	.insn	2, 0x287c
    1d54:	5f5f 202f 202f      	.insn	6, 0x202f202f5f5f
    1d5a:	2020                	.insn	2, 0x2020
    1d5c:	2020                	.insn	2, 0x2020
    1d5e:	000a7c2f          	.insn	4, 0x000a7c2f
    1d62:	0000                	.insn	2, 0x
    1d64:	2020                	.insn	2, 0x2020
    1d66:	2020                	.insn	2, 0x2020
    1d68:	2020                	.insn	2, 0x2020
    1d6a:	7c20                	.insn	2, 0x7c20
    1d6c:	7c20                	.insn	2, 0x7c20
    1d6e:	2020                	.insn	2, 0x2020
    1d70:	2020                	.insn	2, 0x2020
    1d72:	2020                	.insn	2, 0x2020
    1d74:	2020                	.insn	2, 0x2020
    1d76:	5c7c                	.insn	2, 0x5c7c
    1d78:	2f5f 2820 2d20      	.insn	6, 0x2d2028202f5f
    1d7e:	2020202f          	.insn	4, 0x2020202f
    1d82:	7c20                	.insn	2, 0x7c20
    1d84:	207c                	.insn	2, 0x207c
    1d86:	2020                	.insn	2, 0x2020
    1d88:	5c20                	.insn	2, 0x5c20
    1d8a:	5f5f 2f5f 2d20      	.insn	6, 0x2d202f5f5f5f
    1d90:	2d2d                	.insn	2, 0x2d2d
    1d92:	2f2d                	.insn	2, 0x2f2d
    1d94:	7c5f 000a 6f59      	.insn	6, 0x6f59000a7c5f
    1d9a:	2075                	.insn	2, 0x2075
    1d9c:	6f6c                	.insn	2, 0x6f6c
    1d9e:	64206b6f          	jal	s6,83e0 <__global_pointer+0x63d4>
    1da2:	7061                	.insn	2, 0x7061
    1da4:	6570                	.insn	2, 0x6570
    1da6:	2072                	.insn	2, 0x2072
    1da8:	6e69                	.insn	2, 0x6e69
    1daa:	7920                	.insn	2, 0x7920
    1dac:	2072756f          	jal	a0,297b2 <__global_pointer+0x277a6>
    1db0:	74697573          	csrrci	a0,0x746,18
    1db4:	6120                	.insn	2, 0x6120
    1db6:	646e                	.insn	2, 0x646e
    1db8:	6620                	.insn	2, 0x6620
    1dba:	6465                	.insn	2, 0x6465
    1dbc:	2161726f          	jal	tp,18fd2 <__global_pointer+0x16fc6>
    1dc0:	000a                	.insn	2, 0x000a
    1dc2:	0000                	.insn	2, 0x
    1dc4:	6f59                	.insn	2, 0x6f59
    1dc6:	2075                	.insn	2, 0x2075
    1dc8:	6566                	.insn	2, 0x6566
    1dca:	6c65                	.insn	2, 0x6c65
    1dcc:	6320                	.insn	2, 0x6320
    1dce:	79666d6f          	jal	s10,68564 <__global_pointer+0x66558>
    1dd2:	6920                	.insn	2, 0x6920
    1dd4:	206e                	.insn	2, 0x206e
    1dd6:	6f79                	.insn	2, 0x6f79
    1dd8:	7275                	.insn	2, 0x7275
    1dda:	7320                	.insn	2, 0x7320
    1ddc:	74616577          	.insn	4, 0x74616577
    1de0:	6170                	.insn	2, 0x6170
    1de2:	746e                	.insn	2, 0x746e
    1de4:	6e612073          	csrs	0x6e6,sp
    1de8:	2064                	.insn	2, 0x2064
    1dea:	61657773          	csrrci	a4,0x616,10
    1dee:	7374                	.insn	2, 0x7374
    1df0:	6968                	.insn	2, 0x6968
    1df2:	7472                	.insn	2, 0x7472
    1df4:	0a2e                	.insn	2, 0x0a2e
    1df6:	0000                	.insn	2, 0x
    1df8:	6f59                	.insn	2, 0x6f59
    1dfa:	2775                	.insn	2, 0x2775
    1dfc:	6572                	.insn	2, 0x6572
    1dfe:	6320                	.insn	2, 0x6320
    1e00:	7361                	.insn	2, 0x7361
    1e02:	6175                	.insn	2, 0x6175
    1e04:	206c                	.insn	2, 0x206c
    1e06:	6e69                	.insn	2, 0x6e69
    1e08:	7920                	.insn	2, 0x7920
    1e0a:	2072756f          	jal	a0,29810 <__global_pointer+0x27804>
    1e0e:	2d74                	.insn	2, 0x2d74
    1e10:	72696873          	csrrsi	a6,mhpmevent6h,18
    1e14:	2074                	.insn	2, 0x2074
    1e16:	6e61                	.insn	2, 0x6e61
    1e18:	2064                	.insn	2, 0x2064
    1e1a:	656a                	.insn	2, 0x656a
    1e1c:	6e61                	.insn	2, 0x6e61
    1e1e:	000a2e73          	csrrs	t3,ustatus,s4
    1e22:	0000                	.insn	2, 0x
    1e24:	6854                	.insn	2, 0x6854
    1e26:	7369                	.insn	2, 0x7369
    1e28:	7320                	.insn	2, 0x7320
    1e2a:	6565                	.insn	2, 0x6565
    1e2c:	736d                	.insn	2, 0x736d
    1e2e:	7420                	.insn	2, 0x7420
    1e30:	6562206f          	j	24486 <__global_pointer+0x2247a>
    1e34:	6f20                	.insn	2, 0x6f20
    1e36:	6666                	.insn	2, 0x6666
    1e38:	6369                	.insn	2, 0x6369
    1e3a:	2065                	.insn	2, 0x2065
    1e3c:	7061                	.insn	2, 0x7061
    1e3e:	7270                	.insn	2, 0x7270
    1e40:	6169706f          	j	99456 <__global_pointer+0x9744a>
    1e44:	6574                	.insn	2, 0x6574
    1e46:	6420                	.insn	2, 0x6420
    1e48:	676e696f          	jal	s2,e84be <__global_pointer+0xe64b2>
    1e4c:	6120                	.insn	2, 0x6120
    1e4e:	206e                	.insn	2, 0x206e
    1e50:	6761                	.insn	2, 0x6761
    1e52:	6572                	.insn	2, 0x6572
    1e54:	6165                	.insn	2, 0x6165
    1e56:	6c62                	.insn	2, 0x6c62
    1e58:	2065                	.insn	2, 0x2065
    1e5a:	6568                	.insn	2, 0x6568
    1e5c:	6461                	.insn	2, 0x6461
    1e5e:	6720                	.insn	2, 0x6720
    1e60:	7365                	.insn	2, 0x7365
    1e62:	7574                	.insn	2, 0x7574
    1e64:	6572                	.insn	2, 0x6572
    1e66:	000a                	.insn	2, 0x000a
    1e68:	68746957          	.insn	4, 0x68746957
    1e6c:	6e20                	.insn	2, 0x6e20
    1e6e:	7765                	.insn	2, 0x7765
    1e70:	6f66                	.insn	2, 0x6f66
    1e72:	6e75                	.insn	2, 0x6e75
    1e74:	2064                	.insn	2, 0x2064
    1e76:	6e65                	.insn	2, 0x6e65
    1e78:	7265                	.insn	2, 0x7265
    1e7a:	79207967          	.insn	4, 0x79207967
    1e7e:	7420756f          	jal	a0,95c0 <__global_pointer+0x75b4>
    1e82:	6b61                	.insn	2, 0x6b61
    1e84:	2065                	.insn	2, 0x2065
    1e86:	2061                	.insn	2, 0x2061
    1e88:	69727473          	csrrci	s0,0x697,4
    1e8c:	6564                	.insn	2, 0x6564
    1e8e:	6420                	.insn	2, 0x6420
    1e90:	7269                	.insn	2, 0x7269
    1e92:	6365                	.insn	2, 0x6365
    1e94:	6c74                	.insn	2, 0x6c74
    1e96:	2079                	.insn	2, 0x2079
    1e98:	6f74                	.insn	2, 0x6f74
    1e9a:	7420                	.insn	2, 0x7420
    1e9c:	6568                	.insn	2, 0x6568
    1e9e:	6b20                	.insn	2, 0x6b20
    1ea0:	7469                	.insn	2, 0x7469
    1ea2:	6e656863          	bltu	a0,t1,2592 <__global_pointer+0x586>
    1ea6:	000a                	.insn	2, 0x000a
    1ea8:	74616857          	.insn	4, 0x74616857
    1eac:	7720                	.insn	2, 0x7720
    1eae:	6c69                	.insn	2, 0x6c69
    1eb0:	206c                	.insn	2, 0x206c
    1eb2:	6f79                	.insn	2, 0x6f79
    1eb4:	2075                	.insn	2, 0x2075
    1eb6:	6168                	.insn	2, 0x6168
    1eb8:	6576                	.insn	2, 0x6576
    1eba:	6620                	.insn	2, 0x6620
    1ebc:	6220726f          	jal	tp,94de <__global_pointer+0x74d2>
    1ec0:	6572                	.insn	2, 0x6572
    1ec2:	6b61                	.insn	2, 0x6b61
    1ec4:	6166                	.insn	2, 0x6166
    1ec6:	0a3f7473          	csrrci	s0,0xa3,30
    1eca:	0000                	.insn	2, 0x
    1ecc:	2e31                	.insn	2, 0x2e31
    1ece:	4320                	.insn	2, 0x4320
    1ed0:	6566666f          	jal	a2,68526 <__global_pointer+0x6651a>
    1ed4:	2065                	.insn	2, 0x2065
    1ed6:	2026                	.insn	2, 0x2026
    1ed8:	6f74                	.insn	2, 0x6f74
    1eda:	7361                	.insn	2, 0x7361
    1edc:	0a74                	.insn	2, 0x0a74
    1ede:	0000                	.insn	2, 0x
    1ee0:	2e32                	.insn	2, 0x2e32
    1ee2:	4220                	.insn	2, 0x4220
    1ee4:	6572                	.insn	2, 0x6572
    1ee6:	6b61                	.insn	2, 0x6b61
    1ee8:	6166                	.insn	2, 0x6166
    1eea:	66207473          	csrrci	s0,0x662,0
    1eee:	6172                	.insn	2, 0x6172
    1ef0:	636e                	.insn	2, 0x636e
    1ef2:	6961                	.insn	2, 0x6961
    1ef4:	00000a73          	.insn	4, 0x0a73
    1ef8:	4c202e33          	.insn	4, 0x4c202e33
    1efc:	6665                	.insn	2, 0x6665
    1efe:	6f74                	.insn	2, 0x6f74
    1f00:	6576                	.insn	2, 0x6576
    1f02:	2072                	.insn	2, 0x2072
    1f04:	6964                	.insn	2, 0x6964
    1f06:	6e6e                	.insn	2, 0x6e6e
    1f08:	7265                	.insn	2, 0x7265
    1f0a:	000a                	.insn	2, 0x000a
    1f0c:	a0e2                	.insn	2, 0xa0e2
    1f0e:	e280                	.insn	2, 0xe280
    1f10:	80a0                	.insn	2, 0x80a0
    1f12:	a0e2                	.insn	2, 0xa0e2
    1f14:	e280                	.insn	2, 0xe280
    1f16:	80a0                	.insn	2, 0x80a0
    1f18:	a0e2                	.insn	2, 0xa0e2
    1f1a:	e280                	.insn	2, 0xe280
    1f1c:	80a0                	.insn	2, 0x80a0
    1f1e:	a0e2                	.insn	2, 0xa0e2
    1f20:	e280                	.insn	2, 0xe280
    1f22:	80a0                	.insn	2, 0x80a0
    1f24:	a3e2                	.insn	2, 0xa3e2
    1f26:	e2a0                	.insn	2, 0xe2a0
    1f28:	a3e2a4a3          	sw	t5,-1495(t0)
    1f2c:	e2a4                	.insn	2, 0xe2a4
    1f2e:	a3e2a4a3          	sw	t5,-1495(t0)
    1f32:	e2a4                	.insn	2, 0xe2a4
    1f34:	a3e2a4a3          	sw	t5,-1495(t0)
    1f38:	e2a4                	.insn	2, 0xe2a4
    1f3a:	a3e2a4a3          	sw	t5,-1495(t0)
    1f3e:	e2a4                	.insn	2, 0xe2a4
    1f40:	a3e2a4a3          	sw	t5,-1495(t0)
    1f44:	e2a4                	.insn	2, 0xe2a4
    1f46:	a3e2a4a3          	sw	t5,-1495(t0)
    1f4a:	e2a4                	.insn	2, 0xe2a4
    1f4c:	a0e284a3          	sb	a4,-1527(t0)
    1f50:	e280                	.insn	2, 0xe280
    1f52:	80a0                	.insn	2, 0x80a0
    1f54:	a0e2                	.insn	2, 0xa0e2
    1f56:	e280                	.insn	2, 0xe280
    1f58:	80a0                	.insn	2, 0x80a0
    1f5a:	a0e2                	.insn	2, 0xa0e2
    1f5c:	e280                	.insn	2, 0xe280
    1f5e:	80a0                	.insn	2, 0x80a0
    1f60:	a0e2                	.insn	2, 0xa0e2
    1f62:	e280                	.insn	2, 0xe280
    1f64:	80a0                	.insn	2, 0x80a0
    1f66:	000a                	.insn	2, 0x000a
    1f68:	a0e2                	.insn	2, 0xa0e2
    1f6a:	e280                	.insn	2, 0xe280
    1f6c:	80a0                	.insn	2, 0x80a0
    1f6e:	a0e2                	.insn	2, 0xa0e2
    1f70:	e280                	.insn	2, 0xe280
    1f72:	80a0                	.insn	2, 0x80a0
    1f74:	a0e2                	.insn	2, 0xa0e2
    1f76:	e280                	.insn	2, 0xe280
    1f78:	80a0                	.insn	2, 0x80a0
    1f7a:	a0e2                	.insn	2, 0xa0e2
    1f7c:	e280                	.insn	2, 0xe280
    1f7e:	80a0                	.insn	2, 0x80a0
    1f80:	a3e2                	.insn	2, 0xa3e2
    1f82:	bfa1e2bf e2bfa3e2 	.insn	8, 0xe2bfa3e2bfa1e2bf
    1f8a:	a3e2bfa3          	.insn	4, 0xa3e2bfa3
    1f8e:	bfa3e2bf e2bfa3e2 	.insn	8, 0xe2bfa3e2bfa3e2bf
    1f96:	a3e2bfa3          	.insn	4, 0xa3e2bfa3
    1f9a:	bfa3e2bf e2bfa3e2 	.insn	8, 0xe2bfa3e2bfa3e2bf
    1fa2:	a3e2bfa3          	.insn	4, 0xa3e2bfa3
    1fa6:	bfa3e2bf e280a0e2 	.insn	8, 0xe280a0e2bfa3e2bf
    1fae:	80a0                	.insn	2, 0x80a0
    1fb0:	a0e2                	.insn	2, 0xa0e2
    1fb2:	e280                	.insn	2, 0xe280
    1fb4:	80a0                	.insn	2, 0x80a0
    1fb6:	a0e2                	.insn	2, 0xa0e2
    1fb8:	e280                	.insn	2, 0xe280
    1fba:	80a0                	.insn	2, 0x80a0
    1fbc:	a0e2                	.insn	2, 0xa0e2
    1fbe:	e280                	.insn	2, 0xe280
    1fc0:	80a0                	.insn	2, 0x80a0
    1fc2:	000a                	.insn	2, 0x000a
    1fc4:	a0e2                	.insn	2, 0xa0e2
    1fc6:	e280                	.insn	2, 0xe280
    1fc8:	80a0                	.insn	2, 0x80a0
    1fca:	a0e2                	.insn	2, 0xa0e2
    1fcc:	e280                	.insn	2, 0xe280
    1fce:	80a0                	.insn	2, 0x80a0
    1fd0:	a0e2                	.insn	2, 0xa0e2
    1fd2:	e280                	.insn	2, 0xe280
    1fd4:	80a0                	.insn	2, 0x80a0
    1fd6:	a0e2                	.insn	2, 0xa0e2
    1fd8:	e280                	.insn	2, 0xe280
    1fda:	80a0                	.insn	2, 0x80a0
    1fdc:	a3e2                	.insn	2, 0xa3e2
    1fde:	87a1e2bf e2bfa3e2 	.insn	8, 0xe2bfa3e287a1e2bf
    1fe6:	a3e2bfa3          	.insn	4, 0xa3e2bfa3
    1fea:	bfa3e2bf e2bfa3e2 	.insn	8, 0xe2bfa3e2bfa3e2bf
    1ff2:	a3e2bfa3          	.insn	4, 0xa3e2bfa3
    1ff6:	bfa3e2bf e2bfa3e2 	.insn	8, 0xe2bfa3e2bfa3e2bf
    1ffe:	a3e2bfa3          	.insn	4, 0xa3e2bfa3
    2002:	bfa3e2bf e280a0e2 	.insn	8, 0xe280a0e2bfa3e2bf
    200a:	80a0                	.insn	2, 0x80a0
    200c:	a0e2                	.insn	2, 0xa0e2
    200e:	e280                	.insn	2, 0xe280
    2010:	80a0                	.insn	2, 0x80a0
    2012:	a0e2                	.insn	2, 0xa0e2
    2014:	e280                	.insn	2, 0xe280
    2016:	80a0                	.insn	2, 0x80a0
    2018:	a0e2                	.insn	2, 0xa0e2
    201a:	e280                	.insn	2, 0xe280
    201c:	80a0                	.insn	2, 0x80a0
    201e:	000a                	.insn	2, 0x000a
    2020:	a0e2                	.insn	2, 0xa0e2
    2022:	e280                	.insn	2, 0xe280
    2024:	80a0                	.insn	2, 0x80a0
    2026:	a0e2                	.insn	2, 0xa0e2
    2028:	e280                	.insn	2, 0xe280
    202a:	80a0                	.insn	2, 0x80a0
    202c:	a0e2                	.insn	2, 0xa0e2
    202e:	e280                	.insn	2, 0xe280
    2030:	80a0                	.insn	2, 0x80a0
    2032:	a0e2                	.insn	2, 0xa0e2
    2034:	e280                	.insn	2, 0xe280
    2036:	80a0                	.insn	2, 0x80a0
    2038:	a3e2                	.insn	2, 0xa3e2
    203a:	83a1e2bf e2bfa3e2 	.insn	8, 0xe2bfa3e283a1e2bf
    2042:	a3e2bfa3          	.insn	4, 0xa3e2bfa3
    2046:	bfa3e2bf e2bfa3e2 	.insn	8, 0xe2bfa3e2bfa3e2bf
    204e:	a3e2bfa3          	.insn	4, 0xa3e2bfa3
    2052:	bfa3e2bf e2bfa3e2 	.insn	8, 0xe2bfa3e2bfa3e2bf
    205a:	a3e2bfa3          	.insn	4, 0xa3e2bfa3
    205e:	bfa3e2bf e280a0e2 	.insn	8, 0xe280a0e2bfa3e2bf
    2066:	80a0                	.insn	2, 0x80a0
    2068:	a0e2                	.insn	2, 0xa0e2
    206a:	e280                	.insn	2, 0xe280
    206c:	80a0                	.insn	2, 0x80a0
    206e:	a0e2                	.insn	2, 0xa0e2
    2070:	e280                	.insn	2, 0xe280
    2072:	80a0                	.insn	2, 0x80a0
    2074:	a0e2                	.insn	2, 0xa0e2
    2076:	e280                	.insn	2, 0xe280
    2078:	80a0                	.insn	2, 0x80a0
    207a:	000a                	.insn	2, 0x000a
    207c:	a0e2                	.insn	2, 0xa0e2
    207e:	e280                	.insn	2, 0xe280
    2080:	80a0                	.insn	2, 0x80a0
    2082:	a0e2                	.insn	2, 0xa0e2
    2084:	e280                	.insn	2, 0xe280
    2086:	80a0                	.insn	2, 0x80a0
    2088:	a0e2                	.insn	2, 0xa0e2
    208a:	e280                	.insn	2, 0xe280
    208c:	80a0                	.insn	2, 0x80a0
    208e:	a0e2                	.insn	2, 0xa0e2
    2090:	e280                	.insn	2, 0xe280
    2092:	80a0                	.insn	2, 0x80a0
    2094:	a0e2                	.insn	2, 0xa0e2
    2096:	9ba0e29b          	.insn	4, 0x9ba0e29b
    209a:	a0e2                	.insn	2, 0xa0e2
    209c:	9ba0e29b          	.insn	4, 0x9ba0e29b
    20a0:	a0e2                	.insn	2, 0xa0e2
    20a2:	9ba0e29b          	.insn	4, 0x9ba0e29b
    20a6:	a0e2                	.insn	2, 0xa0e2
    20a8:	9ba0e29b          	.insn	4, 0x9ba0e29b
    20ac:	a0e2                	.insn	2, 0xa0e2
    20ae:	9ba0e29b          	.insn	4, 0x9ba0e29b
    20b2:	a0e2                	.insn	2, 0xa0e2
    20b4:	9ba0e29b          	.insn	4, 0x9ba0e29b
    20b8:	a0e2                	.insn	2, 0xa0e2
    20ba:	9ba0e29b          	.insn	4, 0x9ba0e29b
    20be:	a0e2                	.insn	2, 0xa0e2
    20c0:	e280                	.insn	2, 0xe280
    20c2:	80a0                	.insn	2, 0x80a0
    20c4:	a0e2                	.insn	2, 0xa0e2
    20c6:	e280                	.insn	2, 0xe280
    20c8:	80a0                	.insn	2, 0x80a0
    20ca:	a0e2                	.insn	2, 0xa0e2
    20cc:	e280                	.insn	2, 0xe280
    20ce:	80a0                	.insn	2, 0x80a0
    20d0:	a0e2                	.insn	2, 0xa0e2
    20d2:	e280                	.insn	2, 0xe280
    20d4:	80a0                	.insn	2, 0x80a0
    20d6:	000a                	.insn	2, 0x000a
    20d8:	a0e2                	.insn	2, 0xa0e2
    20da:	e280                	.insn	2, 0xe280
    20dc:	80a0                	.insn	2, 0x80a0
    20de:	a0e2                	.insn	2, 0xa0e2
    20e0:	e280                	.insn	2, 0xe280
    20e2:	80a0                	.insn	2, 0x80a0
    20e4:	a0e2                	.insn	2, 0xa0e2
    20e6:	e280                	.insn	2, 0xe280
    20e8:	80a0                	.insn	2, 0x80a0
    20ea:	a0e2                	.insn	2, 0xa0e2
    20ec:	e280                	.insn	2, 0xe280
    20ee:	80a0                	.insn	2, 0x80a0
    20f0:	a3e2                	.insn	2, 0xa3e2
    20f2:	9ba0e2bf e2bfa3e2 	.insn	8, 0xe2bfa3e29ba0e2bf
    20fa:	a3e2bfa3          	.insn	4, 0xa3e2bfa3
    20fe:	bfa3e2bf e2bfa3e2 	.insn	8, 0xe2bfa3e2bfa3e2bf
    2106:	a3e2bfa3          	.insn	4, 0xa3e2bfa3
    210a:	bfa3e2bf e2bfa3e2 	.insn	8, 0xe2bfa3e2bfa3e2bf
    2112:	a3e2bfa3          	.insn	4, 0xa3e2bfa3
    2116:	bfa3e2bf e280a0e2 	.insn	8, 0xe280a0e2bfa3e2bf
    211e:	80a0                	.insn	2, 0x80a0
    2120:	a0e2                	.insn	2, 0xa0e2
    2122:	e280                	.insn	2, 0xe280
    2124:	80a0                	.insn	2, 0x80a0
    2126:	a0e2                	.insn	2, 0xa0e2
    2128:	e280                	.insn	2, 0xe280
    212a:	80a0                	.insn	2, 0x80a0
    212c:	a0e2                	.insn	2, 0xa0e2
    212e:	e280                	.insn	2, 0xe280
    2130:	80a0                	.insn	2, 0x80a0
    2132:	000a                	.insn	2, 0x000a
    2134:	a0e2                	.insn	2, 0xa0e2
    2136:	e280                	.insn	2, 0xe280
    2138:	80a0                	.insn	2, 0x80a0
    213a:	a0e2                	.insn	2, 0xa0e2
    213c:	e280                	.insn	2, 0xe280
    213e:	80a0                	.insn	2, 0x80a0
    2140:	a0e2                	.insn	2, 0xa0e2
    2142:	e280                	.insn	2, 0xe280
    2144:	80a0                	.insn	2, 0x80a0
    2146:	a0e2                	.insn	2, 0xa0e2
    2148:	e280                	.insn	2, 0xe280
    214a:	80a0                	.insn	2, 0x80a0
    214c:	a3e2                	.insn	2, 0xa3e2
    214e:	80a1e2bf e2bfa3e2 	.insn	8, 0xe2bfa3e280a1e2bf
    2156:	a3e2bfa3          	.insn	4, 0xa3e2bfa3
    215a:	bfa3e2bf e2bfa3e2 	.insn	8, 0xe2bfa3e2bfa3e2bf
    2162:	a3e2bfa3          	.insn	4, 0xa3e2bfa3
    2166:	bfa3e2bf e2bfa3e2 	.insn	8, 0xe2bfa3e2bfa3e2bf
    216e:	a3e2bfa3          	.insn	4, 0xa3e2bfa3
    2172:	bfa3e2bf e280a0e2 	.insn	8, 0xe280a0e2bfa3e2bf
    217a:	80a0                	.insn	2, 0x80a0
    217c:	a0e2                	.insn	2, 0xa0e2
    217e:	e280                	.insn	2, 0xe280
    2180:	80a0                	.insn	2, 0x80a0
    2182:	a0e2                	.insn	2, 0xa0e2
    2184:	e280                	.insn	2, 0xe280
    2186:	80a0                	.insn	2, 0x80a0
    2188:	a0e2                	.insn	2, 0xa0e2
    218a:	e280                	.insn	2, 0xe280
    218c:	80a0                	.insn	2, 0x80a0
    218e:	000a                	.insn	2, 0x000a
    2190:	a0e2                	.insn	2, 0xa0e2
    2192:	e280                	.insn	2, 0xe280
    2194:	80a0                	.insn	2, 0x80a0
    2196:	a0e2                	.insn	2, 0xa0e2
    2198:	e280                	.insn	2, 0xe280
    219a:	80a0                	.insn	2, 0x80a0
    219c:	a0e2                	.insn	2, 0xa0e2
    219e:	e280                	.insn	2, 0xe280
    21a0:	80a0                	.insn	2, 0x80a0
    21a2:	a0e2                	.insn	2, 0xa0e2
    21a4:	e280                	.insn	2, 0xe280
    21a6:	80a0                	.insn	2, 0x80a0
    21a8:	a3e2                	.insn	2, 0xa3e2
    21aa:	87a3e2bf e2bfa3e2 	.insn	8, 0xe2bfa3e287a3e2bf
    21b2:	a3e2bfa3          	.insn	4, 0xa3e2bfa3
    21b6:	bfa3e2bf e2bfa3e2 	.insn	8, 0xe2bfa3e2bfa3e2bf
    21be:	a3e2bfa3          	.insn	4, 0xa3e2bfa3
    21c2:	bfa3e2bf e2bfa3e2 	.insn	8, 0xe2bfa3e2bfa3e2bf
    21ca:	a3e2bfa3          	.insn	4, 0xa3e2bfa3
    21ce:	bfa3e2bf e280a0e2 	.insn	8, 0xe280a0e2bfa3e2bf
    21d6:	80a0                	.insn	2, 0x80a0
    21d8:	a0e2                	.insn	2, 0xa0e2
    21da:	e280                	.insn	2, 0xe280
    21dc:	80a0                	.insn	2, 0x80a0
    21de:	a0e2                	.insn	2, 0xa0e2
    21e0:	e280                	.insn	2, 0xe280
    21e2:	80a0                	.insn	2, 0x80a0
    21e4:	a0e2                	.insn	2, 0xa0e2
    21e6:	e280                	.insn	2, 0xe280
    21e8:	80a0                	.insn	2, 0x80a0
    21ea:	000a                	.insn	2, 0x000a
    21ec:	6f59                	.insn	2, 0x6f59
    21ee:	2075                	.insn	2, 0x2075
    21f0:	6566                	.insn	2, 0x6566
    21f2:	6c65                	.insn	2, 0x6c65
    21f4:	6520                	.insn	2, 0x6520
    21f6:	656e                	.insn	2, 0x656e
    21f8:	6772                	.insn	2, 0x6772
    21fa:	7a69                	.insn	2, 0x7a69
    21fc:	6465                	.insn	2, 0x6465
    21fe:	6120                	.insn	2, 0x6120
    2200:	7466                	.insn	2, 0x7466
    2202:	7265                	.insn	2, 0x7265
    2204:	7920                	.insn	2, 0x7920
    2206:	2072756f          	jal	a0,29c0c <__global_pointer+0x27c00>
    220a:	66666f63          	bltu	a2,t1,2888 <__global_pointer+0x87c>
    220e:	6565                	.insn	2, 0x6565
    2210:	6120                	.insn	2, 0x6120
    2212:	646e                	.insn	2, 0x646e
    2214:	7420                	.insn	2, 0x7420
    2216:	7473616f          	jal	sp,3915c <__global_pointer+0x37150>
    221a:	0a21                	.insn	2, 0x0a21
    221c:	0000                	.insn	2, 0x
    221e:	0000                	.insn	2, 0x
    2220:	6f59                	.insn	2, 0x6f59
    2222:	2075                	.insn	2, 0x2075
    2224:	6f206f67          	.insn	4, 0x6f206f67
    2228:	7475                	.insn	2, 0x7475
    222a:	7420                	.insn	2, 0x7420
    222c:	6568                	.insn	2, 0x6568
    222e:	6220                	.insn	2, 0x6220
    2230:	6c61                	.insn	2, 0x6c61
    2232:	796e6f63          	bltu	t3,s6,29d0 <__global_pointer+0x9c4>
    2236:	6120                	.insn	2, 0x6120
    2238:	646e                	.insn	2, 0x646e
    223a:	6c20                	.insn	2, 0x6c20
    223c:	6769                	.insn	2, 0x6769
    223e:	7468                	.insn	2, 0x7468
    2240:	7520                	.insn	2, 0x7520
    2242:	2070                	.insn	2, 0x2070
    2244:	2061                	.insn	2, 0x2061
    2246:	67676963          	bltu	a4,s6,28b8 <__global_pointer+0x8ac>
    224a:	7261                	.insn	2, 0x7261
    224c:	7465                	.insn	2, 0x7465
    224e:	2165                	.insn	2, 0x2165
    2250:	000a                	.insn	2, 0x000a
    2252:	0000                	.insn	2, 0x
    2254:	6f59                	.insn	2, 0x6f59
    2256:	2075                	.insn	2, 0x2075
    2258:	6566                	.insn	2, 0x6566
    225a:	6c65                	.insn	2, 0x6c65
    225c:	6620                	.insn	2, 0x6620
    225e:	6c75                	.insn	2, 0x6c75
    2260:	206c                	.insn	2, 0x206c
    2262:	6661                	.insn	2, 0x6661
    2264:	6574                	.insn	2, 0x6574
    2266:	2072                	.insn	2, 0x2072
    2268:	6f79                	.insn	2, 0x6f79
    226a:	7275                	.insn	2, 0x7275
    226c:	6c20                	.insn	2, 0x6c20
    226e:	6665                	.insn	2, 0x6665
    2270:	6f74                	.insn	2, 0x6f74
    2272:	6576                	.insn	2, 0x6576
    2274:	2072                	.insn	2, 0x2072
    2276:	6964                	.insn	2, 0x6964
    2278:	6e6e                	.insn	2, 0x6e6e
    227a:	7265                	.insn	2, 0x7265
    227c:	0a21                	.insn	2, 0x0a21
    227e:	0000                	.insn	2, 0x
    2280:	63656843          	.insn	4, 0x63656843
    2284:	676e696b          	.insn	4, 0x676e696b
    2288:	7420                	.insn	2, 0x7420
    228a:	6168                	.insn	2, 0x6168
    228c:	2074                	.insn	2, 0x2074
    228e:	6874                	.insn	2, 0x6874
    2290:	2065                	.insn	2, 0x2065
    2292:	6e65766f          	jal	a2,59978 <__global_pointer+0x5796c>
    2296:	6920                	.insn	2, 0x6920
    2298:	6c632073          	csrs	0x6c6,t1
    229c:	6465736f          	jal	t1,598e2 <__global_pointer+0x578d6>
    22a0:	6620                	.insn	2, 0x6620
    22a2:	7420726f          	jal	tp,99e4 <__global_pointer+0x79d8>
    22a6:	6568                	.insn	2, 0x6568
    22a8:	6c20                	.insn	2, 0x6c20
    22aa:	7361                	.insn	2, 0x7361
    22ac:	2074                	.insn	2, 0x2074
    22ae:	6974                	.insn	2, 0x6974
    22b0:	656d                	.insn	2, 0x656d
    22b2:	000a                	.insn	2, 0x000a
    22b4:	6f59                	.insn	2, 0x6f59
    22b6:	2075                	.insn	2, 0x2075
    22b8:	7568                	.insn	2, 0x7568
    22ba:	7272                	.insn	2, 0x7272
    22bc:	2079                	.insn	2, 0x2079
    22be:	6f64                	.insn	2, 0x6f64
    22c0:	74206e77          	.insn	4, 0x74206e77
    22c4:	6568                	.insn	2, 0x6568
    22c6:	7320                	.insn	2, 0x7320
    22c8:	6574                	.insn	2, 0x6574
    22ca:	7370                	.insn	2, 0x7370
    22cc:	6f20                	.insn	2, 0x6f20
    22ce:	2066                	.insn	2, 0x2066
    22d0:	7275                	.insn	2, 0x7275
    22d2:	6120                	.insn	2, 0x6120
    22d4:	6170                	.insn	2, 0x6170
    22d6:	7472                	.insn	2, 0x7472
    22d8:	656d                	.insn	2, 0x656d
    22da:	746e                	.insn	2, 0x746e
    22dc:	6120                	.insn	2, 0x6120
    22de:	646e                	.insn	2, 0x646e
    22e0:	6520                	.insn	2, 0x6520
    22e2:	746e                	.insn	2, 0x746e
    22e4:	7265                	.insn	2, 0x7265
    22e6:	68742073          	csrs	0x687,s0
    22ea:	2065                	.insn	2, 0x2065
    22ec:	0a726163          	bltu	tp,t2,238e <__global_pointer+0x382>
    22f0:	0000                	.insn	2, 0x
    22f2:	0000                	.insn	2, 0x
    22f4:	6f59                	.insn	2, 0x6f59
    22f6:	2075                	.insn	2, 0x2075
    22f8:	7261                	.insn	2, 0x7261
    22fa:	6972                	.insn	2, 0x6972
    22fc:	6576                	.insn	2, 0x6576
    22fe:	6120                	.insn	2, 0x6120
    2300:	2074                	.insn	2, 0x2074
    2302:	6874                	.insn	2, 0x6874
    2304:	2065                	.insn	2, 0x2065
    2306:	6170                	.insn	2, 0x6170
    2308:	6b72                	.insn	2, 0x6b72
    230a:	6e69                	.insn	2, 0x6e69
    230c:	6f6c2067          	.insn	4, 0x6f6c2067
    2310:	2e74                	.insn	2, 0x2e74
    2312:	5920                	.insn	2, 0x5920
    2314:	7320756f          	jal	a0,9a46 <__global_pointer+0x7a3a>
    2318:	6565                	.insn	2, 0x6565
    231a:	7620                	.insn	2, 0x7620
    231c:	6361                	.insn	2, 0x6361
    231e:	6e61                	.insn	2, 0x6e61
    2320:	2074                	.insn	2, 0x2074
    2322:	746f7073          	csrci	0x746,30
    2326:	70732073          	csrs	0x707,t1
    232a:	6574746f          	jal	s0,4a180 <__global_pointer+0x48174>
    232e:	2064                	.insn	2, 0x2064
    2330:	6874                	.insn	2, 0x6874
    2332:	6f72                	.insn	2, 0x6f72
    2334:	6775                	.insn	2, 0x6775
    2336:	6f68                	.insn	2, 0x6f68
    2338:	7475                	.insn	2, 0x7475
    233a:	000a                	.insn	2, 0x000a
    233c:	2020                	.insn	2, 0x2020
    233e:	2020                	.insn	2, 0x2020
    2340:	2020                	.insn	2, 0x2020
    2342:	5f5f 5f5f 5f5f      	.insn	6, 0x5f5f5f5f5f5f
    2348:	5f5f 5f5f 5f5f      	.insn	6, 0x5f5f5f5f5f5f
    234e:	5f5f 5f5f 5f5f      	.insn	6, 0x5f5f5f5f5f5f
    2354:	5f5f 5f5f 5f5f      	.insn	6, 0x5f5f5f5f5f5f
    235a:	000a                	.insn	2, 0x000a
    235c:	2020                	.insn	2, 0x2020
    235e:	2020                	.insn	2, 0x2020
    2360:	2f20                	.insn	2, 0x2f20
    2362:	2f2f2f2f          	.insn	4, 0x2f2f2f2f
    2366:	2f2f2f2f          	.insn	4, 0x2f2f2f2f
    236a:	2f2f2f2f          	.insn	4, 0x2f2f2f2f
    236e:	5c7c                	.insn	2, 0x5c7c
    2370:	5c5c                	.insn	2, 0x5c5c
    2372:	5c5c                	.insn	2, 0x5c5c
    2374:	6e5c                	.insn	2, 0x6e5c
    2376:	0000                	.insn	2, 0x
    2378:	2020                	.insn	2, 0x2020
    237a:	2020                	.insn	2, 0x2020
    237c:	2d2d2e27          	.insn	4, 0x2d2d2e27
    2380:	2d2d                	.insn	2, 0x2d2d
    2382:	2d2d                	.insn	2, 0x2d2d
    2384:	2d2d                	.insn	2, 0x2d2d
    2386:	2d2d                	.insn	2, 0x2d2d
    2388:	2d2d                	.insn	2, 0x2d2d
    238a:	2d2d                	.insn	2, 0x2d2d
    238c:	2d2d                	.insn	2, 0x2d2d
    238e:	2d2d                	.insn	2, 0x2d2d
    2390:	2d2d                	.insn	2, 0x2d2d
    2392:	2d2d                	.insn	2, 0x2d2d
    2394:	2d2d                	.insn	2, 0x2d2d
    2396:	2e2d                	.insn	2, 0x2e2d
    2398:	00000a27          	.insn	4, 0x0a27
    239c:	2020                	.insn	2, 0x2020
    239e:	2020                	.insn	2, 0x2020
    23a0:	7c20                	.insn	2, 0x7c20
    23a2:	2020                	.insn	2, 0x2020
    23a4:	2020                	.insn	2, 0x2020
    23a6:	2020                	.insn	2, 0x2020
    23a8:	2020                	.insn	2, 0x2020
    23aa:	2020                	.insn	2, 0x2020
    23ac:	2020                	.insn	2, 0x2020
    23ae:	2020                	.insn	2, 0x2020
    23b0:	2020                	.insn	2, 0x2020
    23b2:	2020                	.insn	2, 0x2020
    23b4:	2020                	.insn	2, 0x2020
    23b6:	2020                	.insn	2, 0x2020
    23b8:	2020                	.insn	2, 0x2020
    23ba:	7c20                	.insn	2, 0x7c20
    23bc:	000a                	.insn	2, 0x000a
    23be:	0000                	.insn	2, 0x
    23c0:	2020                	.insn	2, 0x2020
    23c2:	2020                	.insn	2, 0x2020
    23c4:	7c20                	.insn	2, 0x7c20
    23c6:	5b20                	.insn	2, 0x5b20
    23c8:	205d                	.insn	2, 0x205d
    23ca:	5b205d5b          	.insn	4, 0x5b205d5b
    23ce:	205d                	.insn	2, 0x205d
    23d0:	5b205d5b          	.insn	4, 0x5b205d5b
    23d4:	205d                	.insn	2, 0x205d
    23d6:	5b205d5b          	.insn	4, 0x5b205d5b
    23da:	205d                	.insn	2, 0x205d
    23dc:	7c205d5b          	.insn	4, 0x7c205d5b
    23e0:	000a                	.insn	2, 0x000a
    23e2:	0000                	.insn	2, 0x
    23e4:	2020                	.insn	2, 0x2020
    23e6:	5f20                	.insn	2, 0x5f20
    23e8:	2d2e                	.insn	2, 0x2d2e
    23ea:	202e                	.insn	2, 0x202e
    23ec:	2020                	.insn	2, 0x2020
    23ee:	2020                	.insn	2, 0x2020
    23f0:	2020                	.insn	2, 0x2020
    23f2:	5f20                	.insn	2, 0x5f20
    23f4:	5f20                	.insn	2, 0x5f20
    23f6:	5f32                	.insn	2, 0x5f32
    23f8:	5f20                	.insn	2, 0x5f20
    23fa:	2020                	.insn	2, 0x2020
    23fc:	2020                	.insn	2, 0x2020
    23fe:	2020                	.insn	2, 0x2020
    2400:	2020                	.insn	2, 0x2020
    2402:	7c20                	.insn	2, 0x7c20
    2404:	000a                	.insn	2, 0x000a
    2406:	0000                	.insn	2, 0x
    2408:	2020                	.insn	2, 0x2020
    240a:	3e20                	.insn	2, 0x3e20
    240c:	2020                	.insn	2, 0x2020
    240e:	2920                	.insn	2, 0x2920
    2410:	205d                	.insn	2, 0x205d
    2412:	5b205d5b          	.insn	4, 0x5b205d5b
    2416:	7c5d                	.insn	2, 0x7c5d
    2418:	5f7c                	.insn	2, 0x5f7c
    241a:	7c7c                	.insn	2, 0x7c7c
    241c:	7c7c                	.insn	2, 0x7c7c
    241e:	5b205d5b          	.insn	4, 0x5b205d5b
    2422:	205d                	.insn	2, 0x205d
    2424:	7c205d5b          	.insn	4, 0x7c205d5b
    2428:	000a                	.insn	2, 0x000a
    242a:	0000                	.insn	2, 0x
    242c:	2020                	.insn	2, 0x2020
    242e:	6020                	.insn	2, 0x6020
    2430:	2c2e                	.insn	2, 0x2c2e
    2432:	5f5f5f27          	.insn	4, 0x5f5f5f27
    2436:	5f5f 5f5f 7c5f      	.insn	6, 0x7c5f5f5f5f5f
    243c:	5f7c                	.insn	2, 0x5f7c
    243e:	5f5f 7c7c 5f5f      	.insn	6, 0x5f5f7c7c5f5f
    2444:	5f5f 5f5f 5f5f      	.insn	6, 0x5f5f5f5f5f5f
    244a:	7c5f 2020 0a3c      	.insn	6, 0x0a3c20207c5f
    2450:	0000                	.insn	2, 0x
    2452:	0000                	.insn	2, 0x
    2454:	2020                	.insn	2, 0x2020
    2456:	2020                	.insn	2, 0x2020
    2458:	7c7c                	.insn	2, 0x7c7c
    245a:	2020                	.insn	2, 0x2020
    245c:	5f20202f          	.insn	4, 0x5f20202f
    2460:	3e3c                	.insn	2, 0x3e3c
    2462:	5f20                	.insn	2, 0x5f20
    2464:	2020                	.insn	2, 0x2020
    2466:	2020                	.insn	2, 0x2020
    2468:	5f20                	.insn	2, 0x5f20
    246a:	2020                	.insn	2, 0x2020
    246c:	2020                	.insn	2, 0x2020
    246e:	5f28                	.insn	2, 0x5f28
    2470:	3c29                	.insn	2, 0x3c29
    2472:	203e                	.insn	2, 0x203e
    2474:	0a7c                	.insn	2, 0x0a7c
    2476:	0000                	.insn	2, 0x
    2478:	2020                	.insn	2, 0x2020
    247a:	2020                	.insn	2, 0x2020
    247c:	2f202727          	.insn	4, 0x2f202727
    2480:	3e3c                	.insn	2, 0x3e3c
    2482:	5f28                	.insn	2, 0x5f28
    2484:	2c29                	.insn	2, 0x2c29
    2486:	2f3a                	.insn	2, 0x2f3a
    2488:	2020                	.insn	2, 0x2020
    248a:	2020                	.insn	2, 0x2020
    248c:	5c20                	.insn	2, 0x5c20
    248e:	2e3a                	.insn	2, 0x2e3a
    2490:	3c20                	.insn	2, 0x3c20
    2492:	273e                	.insn	2, 0x273e
    2494:	2020                	.insn	2, 0x2020
    2496:	3e3c                	.insn	2, 0x3e3c
    2498:	0a7c                	.insn	2, 0x0a7c
    249a:	0000                	.insn	2, 0x
    249c:	2020                	.insn	2, 0x2020
    249e:	2020                	.insn	2, 0x2020
    24a0:	5f5f 3a3a 3a3a      	.insn	6, 0x3a3a3a3a5f5f
    24a6:	3a3a                	.insn	2, 0x3a3a
    24a8:	3a3a                	.insn	2, 0x3a3a
    24aa:	205f202f          	.insn	4, 0x205f202f
    24ae:	205f 205f 3a5c      	.insn	6, 0x3a5c205f205f
    24b4:	3a3a                	.insn	2, 0x3a3a
    24b6:	3a3a                	.insn	2, 0x3a3a
    24b8:	3a3a                	.insn	2, 0x3a3a
    24ba:	3a3a                	.insn	2, 0x3a3a
    24bc:	3a3a                	.insn	2, 0x3a3a
    24be:	0a5f 0000 0000      	.insn	6, 0x0a5f
    24c4:	2e31                	.insn	2, 0x2e31
    24c6:	5020                	.insn	2, 0x5020
    24c8:	7261                	.insn	2, 0x7261
    24ca:	6562206b          	.insn	4, 0x6562206b
    24ce:	65646973          	csrrsi	s2,hviprio1h,8
    24d2:	6f792073          	csrs	0x6f7,s2
    24d6:	7275                	.insn	2, 0x7275
    24d8:	6b20                	.insn	2, 0x6b20
    24da:	6f6e                	.insn	2, 0x6f6e
    24dc:	6862                	.insn	2, 0x6862
    24de:	6165                	.insn	2, 0x6165
    24e0:	2064                	.insn	2, 0x2064
    24e2:	6f62                	.insn	2, 0x6f62
    24e4:	73277373          	csrrci	t1,mhpmevent18h,14
    24e8:	7520                	.insn	2, 0x7520
    24ea:	6c617573          	csrrci	a0,0x6c6,2
    24ee:	7320                	.insn	2, 0x7320
    24f0:	6f70                	.insn	2, 0x6f70
    24f2:	0a74                	.insn	2, 0x0a74
    24f4:	0000                	.insn	2, 0x
    24f6:	0000                	.insn	2, 0x
    24f8:	2e32                	.insn	2, 0x2e32
    24fa:	5020                	.insn	2, 0x5020
    24fc:	7261                	.insn	2, 0x7261
    24fe:	6562206b          	.insn	4, 0x6562206b
    2502:	65646973          	csrrsi	s2,hviprio1h,8
    2506:	6f792073          	csrs	0x6f7,s2
    250a:	7275                	.insn	2, 0x7275
    250c:	6220                	.insn	2, 0x6220
    250e:	7365                	.insn	2, 0x7365
    2510:	6974                	.insn	2, 0x6974
    2512:	0a65                	.insn	2, 0x0a65
    2514:	0000                	.insn	2, 0x
    2516:	0000                	.insn	2, 0x
    2518:	50202e33          	.insn	4, 0x50202e33
    251c:	7261                	.insn	2, 0x7261
    251e:	6562206b          	.insn	4, 0x6562206b
    2522:	65646973          	csrrsi	s2,hviprio1h,8
    2526:	6f792073          	csrs	0x6f7,s2
    252a:	7275                	.insn	2, 0x7275
    252c:	6e20                	.insn	2, 0x6e20
    252e:	6d65                	.insn	2, 0x6d65
    2530:	7365                	.insn	2, 0x7365
    2532:	7369                	.insn	2, 0x7369
    2534:	000a                	.insn	2, 0x000a
    2536:	0000                	.insn	2, 0x
    2538:	6f59                	.insn	2, 0x6f59
    253a:	2075                	.insn	2, 0x2075
    253c:	6e65                	.insn	2, 0x6e65
    253e:	6574                	.insn	2, 0x6574
    2540:	2072                	.insn	2, 0x2072
    2542:	6874                	.insn	2, 0x6874
    2544:	2065                	.insn	2, 0x2065
    2546:	7562                	.insn	2, 0x7562
    2548:	6c69                	.insn	2, 0x6c69
    254a:	6964                	.insn	2, 0x6964
    254c:	676e                	.insn	2, 0x676e
    254e:	6120                	.insn	2, 0x6120
    2550:	646e                	.insn	2, 0x646e
    2552:	7720                	.insn	2, 0x7720
    2554:	7661                	.insn	2, 0x7661
    2556:	6465                	.insn	2, 0x6465
    2558:	6120                	.insn	2, 0x6120
    255a:	2074                	.insn	2, 0x2074
    255c:	6874                	.insn	2, 0x6874
    255e:	2065                	.insn	2, 0x2065
    2560:	6572                	.insn	2, 0x6572
    2562:	74706563          	bltu	zero,t2,2cac <__global_pointer+0xca0>
    2566:	6f69                	.insn	2, 0x6f69
    2568:	696e                	.insn	2, 0x696e
    256a:	000a7473          	csrrci	s0,ustatus,20
    256e:	0000                	.insn	2, 0x
    2570:	6f59                	.insn	2, 0x6f59
    2572:	2775                	.insn	2, 0x2775
    2574:	6572                	.insn	2, 0x6572
    2576:	6620                	.insn	2, 0x6620
    2578:	6e69                	.insn	2, 0x6e69
    257a:	6c61                	.insn	2, 0x6c61
    257c:	796c                	.insn	2, 0x796c
    257e:	6420                	.insn	2, 0x6420
    2580:	20656e6f          	jal	t3,58786 <__global_pointer+0x5677a>
    2584:	6f66                	.insn	2, 0x6f66
    2586:	2072                	.insn	2, 0x2072
    2588:	6874                	.insn	2, 0x6874
    258a:	2065                	.insn	2, 0x2065
    258c:	6164                	.insn	2, 0x6164
    258e:	2e79                	.insn	2, 0x2e79
    2590:	5920                	.insn	2, 0x5920
    2592:	6320756f          	jal	a0,9bc4 <__global_pointer+0x7bb8>
    2596:	6f6c                	.insn	2, 0x6f6c
    2598:	6f206b63          	bltu	zero,s2,2c8e <__global_pointer+0xc82>
    259c:	7475                	.insn	2, 0x7475
    259e:	6120                	.insn	2, 0x6120
    25a0:	646e                	.insn	2, 0x646e
    25a2:	6820                	.insn	2, 0x6820
    25a4:	6165                	.insn	2, 0x6165
    25a6:	2064                	.insn	2, 0x2064
    25a8:	6f68                	.insn	2, 0x6f68
    25aa:	656d                	.insn	2, 0x656d
    25ac:	2e2e                	.insn	2, 0x2e2e
    25ae:	0a2e                	.insn	2, 0x0a2e
    25b0:	0000                	.insn	2, 0x
    25b2:	0000                	.insn	2, 0x
    25b4:	6f59                	.insn	2, 0x6f59
    25b6:	2075                	.insn	2, 0x2075
    25b8:	76727573          	csrrci	a0,0x767,4
    25bc:	7669                	.insn	2, 0x7669
    25be:	6465                	.insn	2, 0x6465
    25c0:	6120                	.insn	2, 0x6120
    25c2:	6f6e                	.insn	2, 0x6f6e
    25c4:	6874                	.insn	2, 0x6874
    25c6:	7265                	.insn	2, 0x7265
    25c8:	6420                	.insn	2, 0x6420
    25ca:	7961                	.insn	2, 0x7961
    25cc:	6120                	.insn	2, 0x6120
    25ce:	2074                	.insn	2, 0x2074
    25d0:	6874                	.insn	2, 0x6874
    25d2:	2065                	.insn	2, 0x2065
    25d4:	6966666f          	jal	a2,68c6a <__global_pointer+0x66c5e>
    25d8:	0a216563          	bltu	sp,sp,2682 <__global_pointer+0x676>
    25dc:	0000                	.insn	2, 0x
    25de:	0000                	.insn	2, 0x
    25e0:	6f59                	.insn	2, 0x6f59
    25e2:	2775                	.insn	2, 0x2775
    25e4:	6572                	.insn	2, 0x6572
    25e6:	7420                	.insn	2, 0x7420
    25e8:	74206f6f          	jal	t5,8d2a <__global_pointer+0x6d1e>
    25ec:	7269                	.insn	2, 0x7269
    25ee:	6465                	.insn	2, 0x6465
    25f0:	7420                	.insn	2, 0x7420
    25f2:	6f63206f          	j	34ce8 <__global_pointer+0x32cdc>
    25f6:	746e                	.insn	2, 0x746e
    25f8:	6e69                	.insn	2, 0x6e69
    25fa:	6575                	.insn	2, 0x6575
    25fc:	2e2e                	.insn	2, 0x2e2e
    25fe:	202e                	.insn	2, 0x202e
    2600:	6f59                	.insn	2, 0x6f59
    2602:	2075                	.insn	2, 0x2075
    2604:	6166                	.insn	2, 0x6166
    2606:	6c6c                	.insn	2, 0x6c6c
    2608:	6120                	.insn	2, 0x6120
    260a:	65656c73          	csrrsi	s8,hviprio1h,10
    260e:	2070                	.insn	2, 0x2070
    2610:	7461                	.insn	2, 0x7461
    2612:	7920                	.insn	2, 0x7920
    2614:	2072756f          	jal	a0,2a01a <__global_pointer+0x2800e>
    2618:	6564                	.insn	2, 0x6564
    261a:	0a2e6b73          	csrrsi	s6,0xa2,28
    261e:	0000                	.insn	2, 0x
    2620:	6542                	.insn	2, 0x6542
    2622:	7474                	.insn	2, 0x7474
    2624:	7265                	.insn	2, 0x7265
    2626:	6c20                	.insn	2, 0x6c20
    2628:	6375                	.insn	2, 0x6375
    262a:	656e206b          	.insn	4, 0x656e206b
    262e:	7478                	.insn	2, 0x7478
    2630:	7420                	.insn	2, 0x7420
    2632:	6d69                	.insn	2, 0x6d69
    2634:	2e65                	.insn	2, 0x2e65
    2636:	2e2e                	.insn	2, 0x2e2e
    2638:	212e                	.insn	2, 0x212e
    263a:	000a                	.insn	2, 0x000a
    263c:	6f59                	.insn	2, 0x6f59
    263e:	2775                	.insn	2, 0x2775
    2640:	6572                	.insn	2, 0x6572
    2642:	6220                	.insn	2, 0x6220
    2644:	6f72                	.insn	2, 0x6f72
    2646:	2e2e656b          	.insn	4, 0x2e2e656b
    264a:	202e                	.insn	2, 0x202e
    264c:	0a2e                	.insn	2, 0x0a2e
    264e:	0000                	.insn	2, 0x
    2650:	a0e2                	.insn	2, 0xa0e2
    2652:	e280                	.insn	2, 0xe280
    2654:	80a0                	.insn	2, 0x80a0
    2656:	a0e2                	.insn	2, 0xa0e2
    2658:	e280                	.insn	2, 0xe280
    265a:	80a0                	.insn	2, 0x80a0
    265c:	a0e2                	.insn	2, 0xa0e2
    265e:	e280                	.insn	2, 0xe280
    2660:	80a0                	.insn	2, 0x80a0
    2662:	a0e2                	.insn	2, 0xa0e2
    2664:	e280                	.insn	2, 0xe280
    2666:	80a0                	.insn	2, 0x80a0
    2668:	a0e2                	.insn	2, 0xa0e2
    266a:	e280                	.insn	2, 0xe280
    266c:	80a0                	.insn	2, 0x80a0
    266e:	a0e2                	.insn	2, 0xa0e2
    2670:	e280                	.insn	2, 0xe280
    2672:	80a0                	.insn	2, 0x80a0
    2674:	a0e2                	.insn	2, 0xa0e2
    2676:	e280                	.insn	2, 0xe280
    2678:	80a0                	.insn	2, 0x80a0
    267a:	a0e2                	.insn	2, 0xa0e2
    267c:	e280                	.insn	2, 0xe280
    267e:	80a0                	.insn	2, 0x80a0
    2680:	a0e2                	.insn	2, 0xa0e2
    2682:	e280                	.insn	2, 0xe280
    2684:	80a0                	.insn	2, 0x80a0
    2686:	a0e2                	.insn	2, 0xa0e2
    2688:	e280                	.insn	2, 0xe280
    268a:	80a0                	.insn	2, 0x80a0
    268c:	a0e2                	.insn	2, 0xa0e2
    268e:	e280                	.insn	2, 0xe280
    2690:	80a0                	.insn	2, 0x80a0
    2692:	a0e2                	.insn	2, 0xa0e2
    2694:	e280                	.insn	2, 0xe280
    2696:	80a0                	.insn	2, 0x80a0
    2698:	a0e2                	.insn	2, 0xa0e2
    269a:	e280                	.insn	2, 0xe280
    269c:	80a0                	.insn	2, 0x80a0
    269e:	a0e2                	.insn	2, 0xa0e2
    26a0:	e280                	.insn	2, 0xe280
    26a2:	80a0                	.insn	2, 0x80a0
    26a4:	a0e2                	.insn	2, 0xa0e2
    26a6:	e280                	.insn	2, 0xe280
    26a8:	80a0                	.insn	2, 0x80a0
    26aa:	a0e2                	.insn	2, 0xa0e2
    26ac:	e280                	.insn	2, 0xe280
    26ae:	80a0                	.insn	2, 0x80a0
    26b0:	a0e2                	.insn	2, 0xa0e2
    26b2:	e280                	.insn	2, 0xe280
    26b4:	80a0                	.insn	2, 0x80a0
    26b6:	a0e2                	.insn	2, 0xa0e2
    26b8:	e280                	.insn	2, 0xe280
    26ba:	a3e280a3          	sb	t5,-1503(t0)
    26be:	e2a0                	.insn	2, 0xe2a0
    26c0:	80a1                	.insn	2, 0x80a1
    26c2:	a0e2                	.insn	2, 0xa0e2
    26c4:	0a80                	.insn	2, 0x0a80
    26c6:	0000                	.insn	2, 0x
    26c8:	a0e2                	.insn	2, 0xa0e2
    26ca:	e280                	.insn	2, 0xe280
    26cc:	80a0                	.insn	2, 0x80a0
    26ce:	a0e2                	.insn	2, 0xa0e2
    26d0:	e280                	.insn	2, 0xe280
    26d2:	80a0                	.insn	2, 0x80a0
    26d4:	a0e2                	.insn	2, 0xa0e2
    26d6:	e280                	.insn	2, 0xe280
    26d8:	80a0                	.insn	2, 0x80a0
    26da:	a0e2                	.insn	2, 0xa0e2
    26dc:	e280                	.insn	2, 0xe280
    26de:	80a0                	.insn	2, 0x80a0
    26e0:	a0e2                	.insn	2, 0xa0e2
    26e2:	e280                	.insn	2, 0xe280
    26e4:	80a0                	.insn	2, 0x80a0
    26e6:	a0e2                	.insn	2, 0xa0e2
    26e8:	e280                	.insn	2, 0xe280
    26ea:	80a0                	.insn	2, 0x80a0
    26ec:	a0e2                	.insn	2, 0xa0e2
    26ee:	e280                	.insn	2, 0xe280
    26f0:	80a0                	.insn	2, 0x80a0
    26f2:	a0e2                	.insn	2, 0xa0e2
    26f4:	e280                	.insn	2, 0xe280
    26f6:	80a0                	.insn	2, 0x80a0
    26f8:	a0e2                	.insn	2, 0xa0e2
    26fa:	e280                	.insn	2, 0xe280
    26fc:	80a0                	.insn	2, 0x80a0
    26fe:	a0e2                	.insn	2, 0xa0e2
    2700:	e280                	.insn	2, 0xe280
    2702:	80a0                	.insn	2, 0x80a0
    2704:	a0e2                	.insn	2, 0xa0e2
    2706:	e280                	.insn	2, 0xe280
    2708:	80a2                	.insn	2, 0x80a2
    270a:	a3e2                	.insn	2, 0xa3e2
    270c:	e2a4                	.insn	2, 0xe2a4
    270e:	a0e2a4a3          	sw	a4,-1527(t0)
    2712:	e280                	.insn	2, 0xe280
    2714:	80a0                	.insn	2, 0x80a0
    2716:	a0e2                	.insn	2, 0xa0e2
    2718:	e280                	.insn	2, 0xe280
    271a:	80a2                	.insn	2, 0x80a2
    271c:	a3e2                	.insn	2, 0xa3e2
    271e:	e2b4                	.insn	2, 0xe2b4
    2720:	a1e2bfa3          	.insn	4, 0xa1e2bfa3
    2724:	e2b6                	.insn	2, 0xe2b6
    2726:	80a0                	.insn	2, 0x80a0
    2728:	a3e2                	.insn	2, 0xa3e2
    272a:	e2be                	.insn	2, 0xe2be
    272c:	a3e2bfa3          	.insn	4, 0xa3e2bfa3
    2730:	bfa1e2bf e29fa0e2 	.insn	8, 0xe29fa0e2bfa1e2bf
    2738:	9ba0                	.insn	2, 0x9ba0
    273a:	a0e2                	.insn	2, 0xa0e2
    273c:	0a81                	.insn	2, 0x0a81
    273e:	0000                	.insn	2, 0x
    2740:	a0e2                	.insn	2, 0xa0e2
    2742:	e280                	.insn	2, 0xe280
    2744:	80a0                	.insn	2, 0x80a0
    2746:	a0e2                	.insn	2, 0xa0e2
    2748:	e280                	.insn	2, 0xe280
    274a:	80a0                	.insn	2, 0x80a0
    274c:	a0e2                	.insn	2, 0xa0e2
    274e:	e280                	.insn	2, 0xe280
    2750:	80a0                	.insn	2, 0x80a0
    2752:	a3e2                	.insn	2, 0xa3e2
    2754:	e280                	.insn	2, 0xe280
    2756:	a3e280a3          	sb	t5,-1503(t0)
    275a:	e284                	.insn	2, 0xe284
    275c:	a0e280a3          	sb	a4,-1535(t0)
    2760:	e280                	.insn	2, 0xe280
    2762:	80a0                	.insn	2, 0x80a0
    2764:	a0e2                	.insn	2, 0xa0e2
    2766:	e280                	.insn	2, 0xe280
    2768:	80a0                	.insn	2, 0x80a0
    276a:	a3e2                	.insn	2, 0xa3e2
    276c:	e2b6                	.insn	2, 0xe2b6
    276e:	a3e2b6a3          	.insn	4, 0xa3e2b6a3
    2772:	e2a6                	.insn	2, 0xe2a6
    2774:	80a0                	.insn	2, 0x80a0
    2776:	a0e2                	.insn	2, 0xa0e2
    2778:	e280                	.insn	2, 0xe280
    277a:	80a0                	.insn	2, 0x80a0
    277c:	a0e2                	.insn	2, 0xa0e2
    277e:	e280                	.insn	2, 0xe280
    2780:	a3e2bca3          	.insn	4, 0xa3e2bca3
    2784:	bfa3e2bf e287a1e2 	.insn	8, 0xe287a1e2bfa3e2bf
    278c:	80a0                	.insn	2, 0x80a0
    278e:	a3e2                	.insn	2, 0xa3e2
    2790:	e2a0                	.insn	2, 0xe2a0
    2792:	a3e2bfa3          	.insn	4, 0xa3e2bfa3
    2796:	bfa3e2bf e287a0e2 	.insn	8, 0xe287a0e2bfa3e2bf
    279e:	a3e2b8a3          	.insn	4, 0xa3e2b8a3
    27a2:	bfa3e2bf e2a7a3e2 	.insn	8, 0xe2a7a3e2bfa3e2bf
    27aa:	a0e2a4a3          	sw	a4,-1527(t0)
    27ae:	e280                	.insn	2, 0xe280
    27b0:	80a0                	.insn	2, 0x80a0
    27b2:	a0e2                	.insn	2, 0xa0e2
    27b4:	0a80                	.insn	2, 0x0a80
    27b6:	0000                	.insn	2, 0x
    27b8:	a0e2                	.insn	2, 0xa0e2
    27ba:	e280                	.insn	2, 0xe280
    27bc:	80a0                	.insn	2, 0x80a0
    27be:	a2e2                	.insn	2, 0xa2e2
    27c0:	e280                	.insn	2, 0xe280
    27c2:	a3e2b4a3          	.insn	4, 0xa3e2b4a3
    27c6:	e2be                	.insn	2, 0xe2be
    27c8:	a1e2bfa3          	.insn	4, 0xa1e2bfa3
    27cc:	bfa0e2bf e2bfa0e2 	.insn	8, 0xe2bfa0e2bfa0e2bf
    27d4:	bfa0                	.insn	2, 0xbfa0
    27d6:	a0e2                	.insn	2, 0xa0e2
    27d8:	80a0e287          	.insn	4, 0x80a0e287
    27dc:	a0e2                	.insn	2, 0xa0e2
    27de:	e280                	.insn	2, 0xe280
    27e0:	a3e2b8a3          	.insn	4, 0xa3e2b8a3
    27e4:	bfa3e2bf e2bfa3e2 	.insn	8, 0xe2bfa3e2bfa3e2bf
    27ec:	86a1                	.insn	2, 0x86a1
    27ee:	a0e2                	.insn	2, 0xa0e2
    27f0:	e280                	.insn	2, 0xe280
    27f2:	80a0                	.insn	2, 0x80a0
    27f4:	a2e2                	.insn	2, 0xa2e2
    27f6:	e2b0                	.insn	2, 0xe2b0
    27f8:	a3e2bfa3          	.insn	4, 0xa3e2bfa3
    27fc:	bfa3e2bf e2b7a3e2 	.insn	8, 0xe2b7a3e2bfa3e2bf
    2804:	a3e2bca3          	.insn	4, 0xa3e2bca3
    2808:	bfa3e2bf e2bfa3e2 	.insn	8, 0xe2bfa3e2bfa3e2bf
    2810:	bfa1                	.insn	2, 0xbfa1
    2812:	a2e2                	.insn	2, 0xa2e2
    2814:	e280                	.insn	2, 0xe280
    2816:	a3e2bfa3          	.insn	4, 0xa3e2bfa3
    281a:	bfa1e2bf e29fa0e2 	.insn	8, 0xe29fa0e2bfa1e2bf
    2822:	9ba0                	.insn	2, 0x9ba0
    2824:	a0e2                	.insn	2, 0xa0e2
    2826:	e281                	.insn	2, 0xe281
    2828:	80a0                	.insn	2, 0x80a0
    282a:	a0e2                	.insn	2, 0xa0e2
    282c:	0a80                	.insn	2, 0x0a80
    282e:	0000                	.insn	2, 0x
    2830:	a0e2                	.insn	2, 0xa0e2
    2832:	e280                	.insn	2, 0xe280
    2834:	a3e2b4a3          	.insn	4, 0xa3e2b4a3
    2838:	bfa1e2bf e28ba0e2 	.insn	8, 0xe28ba0e2bfa1e2bf
    2840:	81a0                	.insn	2, 0x81a0
    2842:	a0e2                	.insn	2, 0xa0e2
    2844:	e280                	.insn	2, 0xe280
    2846:	80a0                	.insn	2, 0x80a0
    2848:	a0e2                	.insn	2, 0xa0e2
    284a:	e280                	.insn	2, 0xe280
    284c:	80a0                	.insn	2, 0x80a0
    284e:	a0e2                	.insn	2, 0xa0e2
    2850:	e280                	.insn	2, 0xe280
    2852:	80a0                	.insn	2, 0x80a0
    2854:	a2e2                	.insn	2, 0xa2e2
    2856:	e2a0                	.insn	2, 0xe2a0
    2858:	a3e2bfa3          	.insn	4, 0xa3e2bfa3
    285c:	b9a3e2bf e2bfa3e2 	.insn	8, 0xe2bfa3e2b9a3e2bf
    2864:	a3e2bfa3          	.insn	4, 0xa3e2bfa3
    2868:	bfa3e2bf e2bfa3e2 	.insn	8, 0xe2bfa3e2bfa3e2bf
    2870:	a1e2bfa3          	.insn	4, 0xa1e2bfa3
    2874:	bba2e28f          	.insn	4, 0xbba2e28f
    2878:	a3e2                	.insn	2, 0xa3e2
    287a:	bfa3e2bf e2bfa2e2 	.insn	8, 0xe2bfa2e2bfa3e2bf
    2882:	a3e2bfa3          	.insn	4, 0xa3e2bfa3
    2886:	83a0e2bf e2bca3e2 	.insn	8, 0xe2bca3e283a0e2bf
    288e:	a3e2bfa3          	.insn	4, 0xa3e2bfa3
    2892:	a4a3e2af          	.insn	4, 0xa4a3e2af
    2896:	a3e2                	.insn	2, 0xa3e2
    2898:	e2b4                	.insn	2, 0xe2b4
    289a:	a3e2b6a3          	.insn	4, 0xa3e2b6a3
    289e:	a4a1e2bf 0a80a0e2 	.insn	8, 0x0a80a0e2a4a1e2bf
    28a6:	0000                	.insn	2, 0x
    28a8:	a3e2                	.insn	2, 0xa3e2
    28aa:	e2bc                	.insn	2, 0xe2bc
    28ac:	a0e2bfa3          	.insn	4, 0xa0e2bfa3
    28b0:	80a0e28f          	.insn	4, 0x80a0e28f
    28b4:	a3e2                	.insn	2, 0xa3e2
    28b6:	e280                	.insn	2, 0xe280
    28b8:	a3e2a0a3          	sw	t5,-1503(t0)
    28bc:	e2a4                	.insn	2, 0xe2a4
    28be:	a3e2b6a3          	.insn	4, 0xa3e2b6a3
    28c2:	e2be                	.insn	2, 0xe2be
    28c4:	a0e2b7a3          	.insn	4, 0xa0e2b7a3
    28c8:	e284                	.insn	2, 0xe284
    28ca:	a3e2b0a3          	.insn	4, 0xa3e2b0a3
    28ce:	bfa3e2bf e2bfa1e2 	.insn	8, 0xe2bfa1e2bfa3e2bf
    28d6:	bfa0                	.insn	2, 0xbfa0
    28d8:	a0e2                	.insn	2, 0xa0e2
    28da:	bfa3e2bb          	.insn	4, 0xbfa3e2bb
    28de:	a3e2                	.insn	2, 0xa3e2
    28e0:	b8a3e2af          	.insn	4, 0xb8a3e2af
    28e4:	a3e2                	.insn	2, 0xa3e2
    28e6:	bfa1e2bf e280a0e2 	.insn	8, 0xe280a0e2bfa1e2bf
    28ee:	80a0                	.insn	2, 0x80a0
    28f0:	a0e2                	.insn	2, 0xa0e2
    28f2:	e280                	.insn	2, 0xe280
    28f4:	81a0                	.insn	2, 0x81a0
    28f6:	a3e2                	.insn	2, 0xa3e2
    28f8:	e2be                	.insn	2, 0xe2be
    28fa:	a1e2bfa3          	.insn	4, 0xa1e2bfa3
    28fe:	a0a2e28f          	.insn	4, 0xa0a2e28f
    2902:	a3e2                	.insn	2, 0xa3e2
    2904:	bfa3e2bf e2bfa0e2 	.insn	8, 0xe2bfa0e2bfa3e2bf
    290c:	9ba0                	.insn	2, 0x9ba0
    290e:	a0e2                	.insn	2, 0xa0e2
    2910:	89a0e28b          	.insn	4, 0x89a0e28b
    2914:	a0e2                	.insn	2, 0xa0e2
    2916:	e280                	.insn	2, 0xe280
    2918:	80a0                	.insn	2, 0x80a0
    291a:	a0e2                	.insn	2, 0xa0e2
    291c:	0a80                	.insn	2, 0x0a80
    291e:	0000                	.insn	2, 0x
    2920:	a3e2                	.insn	2, 0xa3e2
    2922:	bfa3e2bf e2b2a0e2 	.insn	8, 0xe2b2a0e2bfa3e2bf
    292a:	bfa2                	.insn	2, 0xbfa2
    292c:	a3e2                	.insn	2, 0xa3e2
    292e:	bfa3e2bf e2bfa3e2 	.insn	8, 0xe2bfa3e2bfa3e2bf
    2936:	a1e2bfa3          	.insn	4, 0xa1e2bfa3
    293a:	8ba0e2bf e2b0a2e2 	.insn	8, 0xe2b0a2e28ba0e2bf
    2942:	a3e2bfa3          	.insn	4, 0xa3e2bfa3
    2946:	8ba0e2bf e280a0e2 	.insn	8, 0xe280a0e28ba0e2bf
    294e:	80a0                	.insn	2, 0x80a0
    2950:	a0e2                	.insn	2, 0xa0e2
    2952:	e280                	.insn	2, 0xe280
    2954:	bba2                	.insn	2, 0xbba2
    2956:	a3e2                	.insn	2, 0xa3e2
    2958:	bfa3e2bf e2bfa3e2 	.insn	8, 0xe2bfa3e2bfa3e2bf
    2960:	87a0                	.insn	2, 0x87a0
    2962:	a0e2                	.insn	2, 0xa0e2
    2964:	e280                	.insn	2, 0xe280
    2966:	80a0                	.insn	2, 0x80a0
    2968:	a0e2                	.insn	2, 0xa0e2
    296a:	e280                	.insn	2, 0xe280
    296c:	80a0                	.insn	2, 0x80a0
    296e:	a0e2                	.insn	2, 0xa0e2
    2970:	e299                	.insn	2, 0xe299
    2972:	9ba0                	.insn	2, 0x9ba0
    2974:	a0e2                	.insn	2, 0xa0e2
    2976:	e280                	.insn	2, 0xe280
    2978:	80a0                	.insn	2, 0x80a0
    297a:	a0e2                	.insn	2, 0xa0e2
    297c:	e289                	.insn	2, 0xe289
    297e:	81a0                	.insn	2, 0x81a0
    2980:	a0e2                	.insn	2, 0xa0e2
    2982:	e280                	.insn	2, 0xe280
    2984:	80a0                	.insn	2, 0x80a0
    2986:	a0e2                	.insn	2, 0xa0e2
    2988:	e280                	.insn	2, 0xe280
    298a:	80a0                	.insn	2, 0x80a0
    298c:	a0e2                	.insn	2, 0xa0e2
    298e:	e280                	.insn	2, 0xe280
    2990:	80a0                	.insn	2, 0x80a0
    2992:	a0e2                	.insn	2, 0xa0e2
    2994:	0a80                	.insn	2, 0x0a80
    2996:	0000                	.insn	2, 0x
    2998:	a0e2                	.insn	2, 0xa0e2
    299a:	e2b9                	.insn	2, 0xe2b9
    299c:	bfa2                	.insn	2, 0xbfa2
    299e:	a3e2                	.insn	2, 0xa3e2
    29a0:	b6a3e2b7          	lui	t0,0xb6a3e
    29a4:	a3e2                	.insn	2, 0xa3e2
    29a6:	bfa3e2bf e2bfa0e2 	.insn	8, 0xe2bfa0e2bfa3e2bf
    29ae:	8ba0                	.insn	2, 0x8ba0
    29b0:	a0e2                	.insn	2, 0xa0e2
    29b2:	e280                	.insn	2, 0xe280
    29b4:	80a0                	.insn	2, 0x80a0
    29b6:	a0e2                	.insn	2, 0xa0e2
    29b8:	e288                	.insn	2, 0xe288
    29ba:	99a0                	.insn	2, 0x99a0
    29bc:	a0e2                	.insn	2, 0xa0e2
    29be:	80a0e283          	.insn	4, 0x80a0e283
    29c2:	a0e2                	.insn	2, 0xa0e2
    29c4:	e280                	.insn	2, 0xe280
    29c6:	80a0                	.insn	2, 0x80a0
    29c8:	a0e2                	.insn	2, 0xa0e2
    29ca:	e280                	.insn	2, 0xe280
    29cc:	80a0                	.insn	2, 0x80a0
    29ce:	a0e2                	.insn	2, 0xa0e2
    29d0:	e281                	.insn	2, 0xe281
    29d2:	80a0                	.insn	2, 0x80a0
    29d4:	a0e2                	.insn	2, 0xa0e2
    29d6:	e280                	.insn	2, 0xe280
    29d8:	80a0                	.insn	2, 0x80a0
    29da:	a0e2                	.insn	2, 0xa0e2
    29dc:	e280                	.insn	2, 0xe280
    29de:	80a0                	.insn	2, 0x80a0
    29e0:	a0e2                	.insn	2, 0xa0e2
    29e2:	e280                	.insn	2, 0xe280
    29e4:	80a0                	.insn	2, 0x80a0
    29e6:	a0e2                	.insn	2, 0xa0e2
    29e8:	e280                	.insn	2, 0xe280
    29ea:	80a0                	.insn	2, 0x80a0
    29ec:	a0e2                	.insn	2, 0xa0e2
    29ee:	e280                	.insn	2, 0xe280
    29f0:	80a0                	.insn	2, 0x80a0
    29f2:	a0e2                	.insn	2, 0xa0e2
    29f4:	e280                	.insn	2, 0xe280
    29f6:	80a0                	.insn	2, 0x80a0
    29f8:	a0e2                	.insn	2, 0xa0e2
    29fa:	e280                	.insn	2, 0xe280
    29fc:	80a0                	.insn	2, 0x80a0
    29fe:	a0e2                	.insn	2, 0xa0e2
    2a00:	e280                	.insn	2, 0xe280
    2a02:	80a0                	.insn	2, 0x80a0
    2a04:	a0e2                	.insn	2, 0xa0e2
    2a06:	e280                	.insn	2, 0xe280
    2a08:	80a0                	.insn	2, 0x80a0
    2a0a:	a0e2                	.insn	2, 0xa0e2
    2a0c:	0a80                	.insn	2, 0x0a80
    2a0e:	0000                	.insn	2, 0x
    2a10:	a0e2                	.insn	2, 0xa0e2
    2a12:	e280                	.insn	2, 0xe280
    2a14:	80a0                	.insn	2, 0x80a0
    2a16:	a0e2                	.insn	2, 0xa0e2
    2a18:	e288                	.insn	2, 0xe288
    2a1a:	89a0                	.insn	2, 0x89a0
    2a1c:	a0e2                	.insn	2, 0xa0e2
    2a1e:	e281                	.insn	2, 0xe281
    2a20:	80a0                	.insn	2, 0x80a0
    2a22:	a0e2                	.insn	2, 0xa0e2
    2a24:	e280                	.insn	2, 0xe280
    2a26:	80a0                	.insn	2, 0x80a0
    2a28:	a0e2                	.insn	2, 0xa0e2
    2a2a:	e280                	.insn	2, 0xe280
    2a2c:	80a0                	.insn	2, 0x80a0
    2a2e:	a0e2                	.insn	2, 0xa0e2
    2a30:	e280                	.insn	2, 0xe280
    2a32:	80a0                	.insn	2, 0x80a0
    2a34:	a0e2                	.insn	2, 0xa0e2
    2a36:	e280                	.insn	2, 0xe280
    2a38:	80a0                	.insn	2, 0x80a0
    2a3a:	a0e2                	.insn	2, 0xa0e2
    2a3c:	e280                	.insn	2, 0xe280
    2a3e:	80a0                	.insn	2, 0x80a0
    2a40:	a0e2                	.insn	2, 0xa0e2
    2a42:	e280                	.insn	2, 0xe280
    2a44:	80a0                	.insn	2, 0x80a0
    2a46:	a0e2                	.insn	2, 0xa0e2
    2a48:	e280                	.insn	2, 0xe280
    2a4a:	80a0                	.insn	2, 0x80a0
    2a4c:	a0e2                	.insn	2, 0xa0e2
    2a4e:	e280                	.insn	2, 0xe280
    2a50:	80a0                	.insn	2, 0x80a0
    2a52:	a0e2                	.insn	2, 0xa0e2
    2a54:	e280                	.insn	2, 0xe280
    2a56:	80a0                	.insn	2, 0x80a0
    2a58:	a0e2                	.insn	2, 0xa0e2
    2a5a:	e280                	.insn	2, 0xe280
    2a5c:	80a0                	.insn	2, 0x80a0
    2a5e:	a0e2                	.insn	2, 0xa0e2
    2a60:	e280                	.insn	2, 0xe280
    2a62:	80a0                	.insn	2, 0x80a0
    2a64:	a0e2                	.insn	2, 0xa0e2
    2a66:	e280                	.insn	2, 0xe280
    2a68:	80a0                	.insn	2, 0x80a0
    2a6a:	a3e2                	.insn	2, 0xa3e2
    2a6c:	e280                	.insn	2, 0xe280
    2a6e:	a3e2a4a3          	sw	t5,-1495(t0) # b6a3da29 <_stack_end+0xb693a6a5>
    2a72:	e2a4                	.insn	2, 0xe2a4
    2a74:	a3e2b4a3          	.insn	4, 0xa3e2b4a3
    2a78:	e2b6                	.insn	2, 0xe2b6
    2a7a:	a3e2a6a3          	sw	t5,-1491(t0)
    2a7e:	e2a4                	.insn	2, 0xe2a4
    2a80:	80a1                	.insn	2, 0x80a1
    2a82:	a0e2                	.insn	2, 0xa0e2
    2a84:	0a80                	.insn	2, 0x0a80
    2a86:	0000                	.insn	2, 0x
    2a88:	a0e2                	.insn	2, 0xa0e2
    2a8a:	e280                	.insn	2, 0xe280
    2a8c:	80a0                	.insn	2, 0x80a0
    2a8e:	a0e2                	.insn	2, 0xa0e2
    2a90:	e280                	.insn	2, 0xe280
    2a92:	80a0                	.insn	2, 0x80a0
    2a94:	a0e2                	.insn	2, 0xa0e2
    2a96:	e280                	.insn	2, 0xe280
    2a98:	80a0                	.insn	2, 0x80a0
    2a9a:	a0e2                	.insn	2, 0xa0e2
    2a9c:	e280                	.insn	2, 0xe280
    2a9e:	80a0                	.insn	2, 0x80a0
    2aa0:	a0e2                	.insn	2, 0xa0e2
    2aa2:	e280                	.insn	2, 0xe280
    2aa4:	80a0                	.insn	2, 0x80a0
    2aa6:	a0e2                	.insn	2, 0xa0e2
    2aa8:	e280                	.insn	2, 0xe280
    2aaa:	80a0                	.insn	2, 0x80a0
    2aac:	a3e2                	.insn	2, 0xa3e2
    2aae:	e280                	.insn	2, 0xe280
    2ab0:	80a1                	.insn	2, 0x80a1
    2ab2:	a0e2                	.insn	2, 0xa0e2
    2ab4:	e280                	.insn	2, 0xe280
    2ab6:	80a0                	.insn	2, 0x80a0
    2ab8:	a0e2                	.insn	2, 0xa0e2
    2aba:	e280                	.insn	2, 0xe280
    2abc:	80a0                	.insn	2, 0x80a0
    2abe:	a0e2                	.insn	2, 0xa0e2
    2ac0:	e280                	.insn	2, 0xe280
    2ac2:	80a0                	.insn	2, 0x80a0
    2ac4:	a0e2                	.insn	2, 0xa0e2
    2ac6:	e280                	.insn	2, 0xe280
    2ac8:	a1e2a0a3          	sw	t5,-1535(t0)
    2acc:	b0a2e287          	.insn	4, 0xb0a2e287
    2ad0:	a3e2                	.insn	2, 0xa3e2
    2ad2:	e2b6                	.insn	2, 0xe2b6
    2ad4:	a3e2b6a3          	.insn	4, 0xa3e2b6a3
    2ad8:	e2be                	.insn	2, 0xe2be
    2ada:	bfa1                	.insn	2, 0xbfa1
    2adc:	a0e2                	.insn	2, 0xa0e2
    2ade:	bfa3e2b7          	lui	t0,0xbfa3e
    2ae2:	a3e2                	.insn	2, 0xa3e2
    2ae4:	bfa3e2bf e29fa1e2 	.insn	8, 0xe29fa1e2bfa3e2bf
    2aec:	9ba0                	.insn	2, 0x9ba0
    2aee:	a3e2                	.insn	2, 0xa3e2
    2af0:	e289                	.insn	2, 0xe289
    2af2:	a3e2bfa3          	.insn	4, 0xa3e2bfa3
    2af6:	bfa3e2bf 0a86a0e2 	.insn	8, 0x0a86a0e2bfa3e2bf
    2afe:	0000                	.insn	2, 0x
    2b00:	a0e2                	.insn	2, 0xa0e2
    2b02:	e280                	.insn	2, 0xe280
    2b04:	80a0                	.insn	2, 0x80a0
    2b06:	a0e2                	.insn	2, 0xa0e2
    2b08:	e280                	.insn	2, 0xe280
    2b0a:	80a0                	.insn	2, 0x80a0
    2b0c:	a0e2                	.insn	2, 0xa0e2
    2b0e:	e280                	.insn	2, 0xe280
    2b10:	80a0                	.insn	2, 0x80a0
    2b12:	a2e2                	.insn	2, 0xa2e2
    2b14:	e280                	.insn	2, 0xe280
    2b16:	a3e2a4a3          	sw	t5,-1495(t0) # bfa3da29 <_stack_end+0xbf93a6a5>
    2b1a:	e2b6                	.insn	2, 0xe2b6
    2b1c:	a3e2bfa3          	.insn	4, 0xa3e2bfa3
    2b20:	8ea1e2bf e2bfa3e2 	.insn	8, 0xe2bfa3e28ea1e2bf
    2b28:	a3e2bfa3          	.insn	4, 0xa3e2bfa3
    2b2c:	e2a6                	.insn	2, 0xe2a6
    2b2e:	80a0                	.insn	2, 0x80a0
    2b30:	a0e2                	.insn	2, 0xa0e2
    2b32:	e280                	.insn	2, 0xe280
    2b34:	80a0                	.insn	2, 0x80a0
    2b36:	a2e2                	.insn	2, 0xa2e2
    2b38:	e280                	.insn	2, 0xe280
    2b3a:	a3e2a4a3          	sw	t5,-1495(t0)
    2b3e:	e2be                	.insn	2, 0xe2be
    2b40:	9fa0                	.insn	2, 0x9fa0
    2b42:	a2e2                	.insn	2, 0xa2e2
    2b44:	e280                	.insn	2, 0xe280
    2b46:	a3e2bfa3          	.insn	4, 0xa3e2bfa3
    2b4a:	9fa1e2bf e281a3e2 	.insn	8, 0xe281a3e29fa1e2bf
    2b52:	80a0                	.insn	2, 0x80a0
    2b54:	a0e2                	.insn	2, 0xa0e2
    2b56:	e280                	.insn	2, 0xe280
    2b58:	a3e2b8a3          	.insn	4, 0xa3e2b8a3
    2b5c:	bfa3e2bf e2a4a3e2 	.insn	8, 0xe2a4a3e2bfa3e2bf
    2b64:	a3e2bea3          	.insn	4, 0xa3e2bea3
    2b68:	bfa1e2bf e29ba0e2 	.insn	8, 0xe29ba0e2bfa1e2bf
    2b70:	81a0                	.insn	2, 0x81a0
    2b72:	a0e2                	.insn	2, 0xa0e2
    2b74:	0a80                	.insn	2, 0x0a80
    2b76:	0000                	.insn	2, 0x
    2b78:	a0e2                	.insn	2, 0xa0e2
    2b7a:	e280                	.insn	2, 0xe280
    2b7c:	80a0                	.insn	2, 0x80a0
    2b7e:	a0e2                	.insn	2, 0xa0e2
    2b80:	e280                	.insn	2, 0xe280
    2b82:	80a0                	.insn	2, 0x80a0
    2b84:	a3e2                	.insn	2, 0xa3e2
    2b86:	e2a0                	.insn	2, 0xe2a0
    2b88:	a3e2bea3          	.insn	4, 0xa3e2bea3
    2b8c:	bfa1e2bf e29ba0e2 	.insn	8, 0xe29ba0e2bfa1e2bf
    2b94:	89a0                	.insn	2, 0x89a0
    2b96:	a2e2                	.insn	2, 0xa2e2
    2b98:	a6a3e2bf e298a0e2 	.insn	8, 0xe298a0e2a6a3e2bf
    2ba0:	a3e2bfa3          	.insn	4, 0xa3e2bfa3
    2ba4:	86a1e2bf e280a0e2 	.insn	8, 0xe280a0e286a1e2bf
    2bac:	a0a2                	.insn	2, 0xa0a2
    2bae:	a3e2                	.insn	2, 0xa3e2
    2bb0:	e2be                	.insn	2, 0xe2be
    2bb2:	a0e2bfa3          	.insn	4, 0xa0e2bfa3
    2bb6:	80a0e28b          	.insn	4, 0x80a0e28b
    2bba:	a3e2                	.insn	2, 0xa3e2
    2bbc:	e2bc                	.insn	2, 0xe2bc
    2bbe:	a3e2bfa3          	.insn	4, 0xa3e2bfa3
    2bc2:	bfa3e2bf e2bfa0e2 	.insn	8, 0xe2bfa0e2bfa3e2bf
    2bca:	b7a0                	.insn	2, 0xb7a0
    2bcc:	a2e2                	.insn	2, 0xa2e2
    2bce:	e2a0                	.insn	2, 0xe2a0
    2bd0:	a3e2bfa3          	.insn	4, 0xa3e2bfa3
    2bd4:	bfa3e2bf e2bfa0e2 	.insn	8, 0xe2bfa0e2bfa3e2bf
    2bdc:	bba2                	.insn	2, 0xbba2
    2bde:	a3e2                	.insn	2, 0xa3e2
    2be0:	a7a3e2bf e280a0e2 	.insn	8, 0xe280a0e2a7a3e2bf
    2be8:	80a0                	.insn	2, 0x80a0
    2bea:	a0e2                	.insn	2, 0xa0e2
    2bec:	0a80                	.insn	2, 0x0a80
    2bee:	0000                	.insn	2, 0x
    2bf0:	a0e2                	.insn	2, 0xa0e2
    2bf2:	e280                	.insn	2, 0xe280
    2bf4:	80a0                	.insn	2, 0x80a0
    2bf6:	a0e2                	.insn	2, 0xa0e2
    2bf8:	e280                	.insn	2, 0xe280
    2bfa:	a3e2b4a3          	.insn	4, 0xa3e2b4a3
    2bfe:	bfa3e2bf e28ba0e2 	.insn	8, 0xe28ba0e2bfa3e2bf
    2c06:	80a0                	.insn	2, 0x80a0
    2c08:	a0e2                	.insn	2, 0xa0e2
    2c0a:	e280                	.insn	2, 0xe280
    2c0c:	80a0                	.insn	2, 0x80a0
    2c0e:	a2e2                	.insn	2, 0xa2e2
    2c10:	e2b8                	.insn	2, 0xe2b8
    2c12:	a3e2bfa3          	.insn	4, 0xa3e2bfa3
    2c16:	b9a2e287          	.insn	4, 0xb9a2e287
    2c1a:	a3e2                	.insn	2, 0xa3e2
    2c1c:	b7a3e2bf e2b0a3e2 	.insn	8, 0xe2b0a3e2b7a3e2bf
    2c24:	a3e2bfa3          	.insn	4, 0xa3e2bfa3
    2c28:	83a0e2bf e280a0e2 	.insn	8, 0xe280a0e283a0e2bf
    2c30:	a0a2                	.insn	2, 0xa0a2
    2c32:	a3e2                	.insn	2, 0xa3e2
    2c34:	bfa3e2bf e283a2e2 	.insn	8, 0xe283a2e2bfa3e2bf
    2c3c:	a3e280a3          	sb	t5,-1503(t0)
    2c40:	e2a4                	.insn	2, 0xe2a4
    2c42:	a3e2a4a3          	sw	t5,-1495(t0)
    2c46:	e2be                	.insn	2, 0xe2be
    2c48:	a1e2bfa3          	.insn	4, 0xa1e2bfa3
    2c4c:	e29f 80a0 a0e2      	.insn	6, 0xa0e280a0e29f
    2c52:	e280                	.insn	2, 0xe280
    2c54:	80a0                	.insn	2, 0x80a0
    2c56:	a2e2                	.insn	2, 0xa2e2
    2c58:	bfa3e2bb          	.insn	4, 0xbfa3e2bb
    2c5c:	a3e2                	.insn	2, 0xa3e2
    2c5e:	e286                	.insn	2, 0xe286
    2c60:	80a0                	.insn	2, 0x80a0
    2c62:	a0e2                	.insn	2, 0xa0e2
    2c64:	0a80                	.insn	2, 0x0a80
    2c66:	0000                	.insn	2, 0x
    2c68:	a0e2                	.insn	2, 0xa0e2
    2c6a:	e280                	.insn	2, 0xe280
    2c6c:	80a0                	.insn	2, 0x80a0
    2c6e:	a0e2                	.insn	2, 0xa0e2
    2c70:	e280                	.insn	2, 0xe280
    2c72:	a3e2bfa3          	.insn	4, 0xa3e2bfa3
    2c76:	87a1e2bf e280a0e2 	.insn	8, 0xe280a0e287a1e2bf
    2c7e:	80a0                	.insn	2, 0x80a0
    2c80:	a2e2                	.insn	2, 0xa2e2
    2c82:	e280                	.insn	2, 0xe280
    2c84:	a3e2b4a3          	.insn	4, 0xa3e2b4a3
    2c88:	bfa3e2bf e29fa1e2 	.insn	8, 0xe29fa1e2bfa3e2bf
    2c90:	80a0                	.insn	2, 0x80a0
    2c92:	a3e2                	.insn	2, 0xa3e2
    2c94:	bfa3e2bf e2bfa3e2 	.insn	8, 0xe2bfa3e2bfa3e2bf
    2c9c:	a0e2bfa3          	.insn	4, 0xa0e2bfa3
    2ca0:	80a0e283          	.insn	4, 0x80a0e283
    2ca4:	a0e2                	.insn	2, 0xa0e2
    2ca6:	e280                	.insn	2, 0xe280
    2ca8:	a3e2bea3          	.insn	4, 0xa3e2bea3
    2cac:	bfa3e2bf e2bfa1e2 	.insn	8, 0xe2bfa1e2bfa3e2bf
    2cb4:	bfa0                	.insn	2, 0xbfa0
    2cb6:	a0e2                	.insn	2, 0xa0e2
    2cb8:	9ba2e29b          	.insn	4, 0x9ba2e29b
    2cbc:	a3e2                	.insn	2, 0xa3e2
    2cbe:	9fa1e2bf e280a0e2 	.insn	8, 0xe280a0e29fa1e2bf
    2cc6:	80a0                	.insn	2, 0x80a0
    2cc8:	a0e2                	.insn	2, 0xa0e2
    2cca:	e280                	.insn	2, 0xe280
    2ccc:	80a0                	.insn	2, 0x80a0
    2cce:	a0e2                	.insn	2, 0xa0e2
    2cd0:	e280                	.insn	2, 0xe280
    2cd2:	bba0                	.insn	2, 0xbba0
    2cd4:	a0e2                	.insn	2, 0xa0e2
    2cd6:	80a0e2bf 0a80a0e2 	.insn	8, 0x0a80a0e280a0e2bf
    2cde:	0000                	.insn	2, 0x
    2ce0:	a0e2                	.insn	2, 0xa0e2
    2ce2:	e280                	.insn	2, 0xe280
    2ce4:	80a0                	.insn	2, 0x80a0
    2ce6:	a0e2                	.insn	2, 0xa0e2
    2ce8:	e280                	.insn	2, 0xe280
    2cea:	b9a0                	.insn	2, 0xb9a0
    2cec:	a3e2                	.insn	2, 0xa3e2
    2cee:	bfa3e2bf e2b6a3e2 	.insn	8, 0xe2b6a3e2bfa3e2bf
    2cf6:	a3e2bea3          	.insn	4, 0xa3e2bea3
    2cfa:	bfa3e2bf e2bfa3e2 	.insn	8, 0xe2bfa3e2bfa3e2bf
    2d02:	9fa0                	.insn	2, 0x9fa0
    2d04:	a0e2                	.insn	2, 0xa0e2
    2d06:	e281                	.insn	2, 0xe281
    2d08:	80a0                	.insn	2, 0x80a0
    2d0a:	a0e2                	.insn	2, 0xa0e2
    2d0c:	e2b8                	.insn	2, 0xe2b8
    2d0e:	bfa2                	.insn	2, 0xbfa2
    2d10:	a3e2                	.insn	2, 0xa3e2
    2d12:	87a0e2bf e280a0e2 	.insn	8, 0xe280a0e287a0e2bf
    2d1a:	80a0                	.insn	2, 0x80a0
    2d1c:	a0e2                	.insn	2, 0xa0e2
    2d1e:	e280                	.insn	2, 0xe280
    2d20:	9ba0                	.insn	2, 0x9ba0
    2d22:	a0e2                	.insn	2, 0xa0e2
    2d24:	81a0e29b          	.insn	4, 0x81a0e29b
    2d28:	a0e2                	.insn	2, 0xa0e2
    2d2a:	e280                	.insn	2, 0xe280
    2d2c:	80a0                	.insn	2, 0x80a0
    2d2e:	a0e2                	.insn	2, 0xa0e2
    2d30:	e280                	.insn	2, 0xe280
    2d32:	80a0                	.insn	2, 0x80a0
    2d34:	a0e2                	.insn	2, 0xa0e2
    2d36:	e280                	.insn	2, 0xe280
    2d38:	81a0                	.insn	2, 0x81a0
    2d3a:	a0e2                	.insn	2, 0xa0e2
    2d3c:	e280                	.insn	2, 0xe280
    2d3e:	80a0                	.insn	2, 0x80a0
    2d40:	a0e2                	.insn	2, 0xa0e2
    2d42:	e280                	.insn	2, 0xe280
    2d44:	80a0                	.insn	2, 0x80a0
    2d46:	a0e2                	.insn	2, 0xa0e2
    2d48:	e280                	.insn	2, 0xe280
    2d4a:	80a0                	.insn	2, 0x80a0
    2d4c:	a0e2                	.insn	2, 0xa0e2
    2d4e:	e280                	.insn	2, 0xe280
    2d50:	80a0                	.insn	2, 0x80a0
    2d52:	a0e2                	.insn	2, 0xa0e2
    2d54:	0a80                	.insn	2, 0x0a80
    2d56:	0000                	.insn	2, 0x
    2d58:	a0e2                	.insn	2, 0xa0e2
    2d5a:	e280                	.insn	2, 0xe280
    2d5c:	80a0                	.insn	2, 0x80a0
    2d5e:	a0e2                	.insn	2, 0xa0e2
    2d60:	e280                	.insn	2, 0xe280
    2d62:	80a0                	.insn	2, 0x80a0
    2d64:	a0e2                	.insn	2, 0xa0e2
    2d66:	e288                	.insn	2, 0xe288
    2d68:	99a0                	.insn	2, 0x99a0
    2d6a:	a0e2                	.insn	2, 0xa0e2
    2d6c:	9ba0e29b          	.insn	4, 0x9ba0e29b
    2d70:	a0e2                	.insn	2, 0xa0e2
    2d72:	8ba0e29b          	.insn	4, 0x8ba0e29b
    2d76:	a0e2                	.insn	2, 0xa0e2
    2d78:	e281                	.insn	2, 0xe281
    2d7a:	80a0                	.insn	2, 0x80a0
    2d7c:	a0e2                	.insn	2, 0xa0e2
    2d7e:	e280                	.insn	2, 0xe280
    2d80:	80a0                	.insn	2, 0x80a0
    2d82:	a0e2                	.insn	2, 0xa0e2
    2d84:	e280                	.insn	2, 0xe280
    2d86:	80a0                	.insn	2, 0x80a0
    2d88:	a0e2                	.insn	2, 0xa0e2
    2d8a:	e280                	.insn	2, 0xe280
    2d8c:	80a0                	.insn	2, 0x80a0
    2d8e:	a0e2                	.insn	2, 0xa0e2
    2d90:	e280                	.insn	2, 0xe280
    2d92:	80a0                	.insn	2, 0x80a0
    2d94:	a0e2                	.insn	2, 0xa0e2
    2d96:	e280                	.insn	2, 0xe280
    2d98:	80a0                	.insn	2, 0x80a0
    2d9a:	a0e2                	.insn	2, 0xa0e2
    2d9c:	e280                	.insn	2, 0xe280
    2d9e:	80a0                	.insn	2, 0x80a0
    2da0:	a0e2                	.insn	2, 0xa0e2
    2da2:	e280                	.insn	2, 0xe280
    2da4:	80a0                	.insn	2, 0x80a0
    2da6:	a0e2                	.insn	2, 0xa0e2
    2da8:	e280                	.insn	2, 0xe280
    2daa:	80a0                	.insn	2, 0x80a0
    2dac:	a0e2                	.insn	2, 0xa0e2
    2dae:	e280                	.insn	2, 0xe280
    2db0:	80a0                	.insn	2, 0x80a0
    2db2:	a0e2                	.insn	2, 0xa0e2
    2db4:	e280                	.insn	2, 0xe280
    2db6:	80a0                	.insn	2, 0x80a0
    2db8:	a0e2                	.insn	2, 0xa0e2
    2dba:	e280                	.insn	2, 0xe280
    2dbc:	80a0                	.insn	2, 0x80a0
    2dbe:	a0e2                	.insn	2, 0xa0e2
    2dc0:	e280                	.insn	2, 0xe280
    2dc2:	80a0                	.insn	2, 0x80a0
    2dc4:	a0e2                	.insn	2, 0xa0e2
    2dc6:	e280                	.insn	2, 0xe280
    2dc8:	80a0                	.insn	2, 0x80a0
    2dca:	a0e2                	.insn	2, 0xa0e2
    2dcc:	0a80                	.insn	2, 0x0a80
    2dce:	0000                	.insn	2, 0x
    2dd0:	614d                	.insn	2, 0x614d
    2dd2:	6279                	.insn	2, 0x6279
    2dd4:	2065                	.insn	2, 0x2065
    2dd6:	2069                	.insn	2, 0x2069
    2dd8:	756f6873          	csrrsi	a6,0x756,30
    2ddc:	646c                	.insn	2, 0x646c
    2dde:	276e                	.insn	2, 0x276e
    2de0:	2074                	.insn	2, 0x2074
    2de2:	6168                	.insn	2, 0x6168
    2de4:	6576                	.insn	2, 0x6576
    2de6:	6520                	.insn	2, 0x6520
    2de8:	7461                	.insn	2, 0x7461
    2dea:	6e65                	.insn	2, 0x6e65
    2dec:	7420                	.insn	2, 0x7420
    2dee:	6168                	.insn	2, 0x6168
    2df0:	2074                	.insn	2, 0x2074
    2df2:	656c                	.insn	2, 0x656c
    2df4:	7466                	.insn	2, 0x7466
    2df6:	7265766f          	jal	a2,5a51c <__global_pointer+0x58510>
    2dfa:	6420                	.insn	2, 0x6420
    2dfc:	6e69                	.insn	2, 0x6e69
    2dfe:	656e                	.insn	2, 0x656e
    2e00:	2e72                	.insn	2, 0x2e72
    2e02:	2e2e                	.insn	2, 0x2e2e
    2e04:	000a                	.insn	2, 0x000a
    2e06:	0000                	.insn	2, 0x
    2e08:	6f59                	.insn	2, 0x6f59
    2e0a:	2075                	.insn	2, 0x2075
    2e0c:	6166                	.insn	2, 0x6166
    2e0e:	7472                	.insn	2, 0x7472
    2e10:	6465                	.insn	2, 0x6465
    2e12:	6c20                	.insn	2, 0x6c20
    2e14:	6c64756f          	jal	a0,4a4da <__global_pointer+0x484ce>
    2e18:	2079                	.insn	2, 0x2079
    2e1a:	6e61                	.insn	2, 0x6e61
    2e1c:	2064                	.insn	2, 0x2064
    2e1e:	7665                	.insn	2, 0x7665
    2e20:	7265                	.insn	2, 0x7265
    2e22:	6f79                	.insn	2, 0x6f79
    2e24:	656e                	.insn	2, 0x656e
    2e26:	7420                	.insn	2, 0x7420
    2e28:	7275                	.insn	2, 0x7275
    2e2a:	656e                	.insn	2, 0x656e
    2e2c:	2064                	.insn	2, 0x2064
    2e2e:	6f74                	.insn	2, 0x6f74
    2e30:	6c20                	.insn	2, 0x6c20
    2e32:	206b6f6f          	jal	t5,b9038 <__global_pointer+0xb702c>
    2e36:	7461                	.insn	2, 0x7461
    2e38:	7920                	.insn	2, 0x7920
    2e3a:	2e2e756f          	jal	a0,ea11c <__global_pointer+0xe8110>
    2e3e:	0a2e                	.insn	2, 0x0a2e
    2e40:	0000                	.insn	2, 0x
    2e42:	0000                	.insn	2, 0x
    2e44:	6f59                	.insn	2, 0x6f59
    2e46:	2075                	.insn	2, 0x2075
    2e48:	6566                	.insn	2, 0x6566
    2e4a:	6c65                	.insn	2, 0x6c65
    2e4c:	6520                	.insn	2, 0x6520
    2e4e:	626d                	.insn	2, 0x626d
    2e50:	7261                	.insn	2, 0x7261
    2e52:	6172                	.insn	2, 0x6172
    2e54:	64657373          	csrrci	t1,hviprio1,10
    2e58:	0a2e                	.insn	2, 0x0a2e
    2e5a:	0000                	.insn	2, 0x
    2e5c:	6f59                	.insn	2, 0x6f59
    2e5e:	2075                	.insn	2, 0x2075
    2e60:	7261                	.insn	2, 0x7261
    2e62:	6972                	.insn	2, 0x6972
    2e64:	6576                	.insn	2, 0x6576
    2e66:	6120                	.insn	2, 0x6120
    2e68:	2074                	.insn	2, 0x2074
    2e6a:	6f79                	.insn	2, 0x6f79
    2e6c:	7275                	.insn	2, 0x7275
    2e6e:	6420                	.insn	2, 0x6420
    2e70:	7365                	.insn	2, 0x7365
    2e72:	42202e6b          	.insn	4, 0x42202e6b
    2e76:	20746f6f          	jal	t5,4987c <__global_pointer+0x47870>
    2e7a:	7075                	.insn	2, 0x7075
    2e7c:	7920                	.insn	2, 0x7920
    2e7e:	2072756f          	jal	a0,2a884 <__global_pointer+0x28878>
    2e82:	706d6f63          	bltu	s10,t1,35a0 <__global_pointer+0x1594>
    2e86:	7475                	.insn	2, 0x7475
    2e88:	7265                	.insn	2, 0x7265
    2e8a:	6120                	.insn	2, 0x6120
    2e8c:	69742073          	csrs	0x697,s0
    2e90:	656d                	.insn	2, 0x656d
    2e92:	7020                	.insn	2, 0x7020
    2e94:	7361                	.insn	2, 0x7361
    2e96:	2e736573          	csrrsi	a0,0x2e7,6
    2e9a:	2e2e                	.insn	2, 0x2e2e
    2e9c:	000a                	.insn	2, 0x000a
    2e9e:	0000                	.insn	2, 0x
    2ea0:	3a3a                	.insn	2, 0x3a3a
    2ea2:	3a3a                	.insn	2, 0x3a3a
    2ea4:	3d3d                	.insn	2, 0x3d3d
    2ea6:	3d3d                	.insn	2, 0x3d3d
    2ea8:	3d3d                	.insn	2, 0x3d3d
    2eaa:	3d3d                	.insn	2, 0x3d3d
    2eac:	3d3d                	.insn	2, 0x3d3d
    2eae:	3a3a                	.insn	2, 0x3a3a
    2eb0:	3a3a                	.insn	2, 0x3a3a
    2eb2:	3a3a                	.insn	2, 0x3a3a
    2eb4:	3a3a                	.insn	2, 0x3a3a
    2eb6:	3a3a                	.insn	2, 0x3a3a
    2eb8:	3a3a                	.insn	2, 0x3a3a
    2eba:	3a3a                	.insn	2, 0x3a3a
    2ebc:	3a3a                	.insn	2, 0x3a3a
    2ebe:	3a3a                	.insn	2, 0x3a3a
    2ec0:	3a3a                	.insn	2, 0x3a3a
    2ec2:	3a3a                	.insn	2, 0x3a3a
    2ec4:	3a3a                	.insn	2, 0x3a3a
    2ec6:	3a3a                	.insn	2, 0x3a3a
    2ec8:	3a3a                	.insn	2, 0x3a3a
    2eca:	3a3a                	.insn	2, 0x3a3a
    2ecc:	3a3a                	.insn	2, 0x3a3a
    2ece:	3a3a                	.insn	2, 0x3a3a
    2ed0:	3a3a                	.insn	2, 0x3a3a
    2ed2:	3a3a                	.insn	2, 0x3a3a
    2ed4:	3a3a                	.insn	2, 0x3a3a
    2ed6:	3a3a                	.insn	2, 0x3a3a
    2ed8:	3a3a                	.insn	2, 0x3a3a
    2eda:	3a3a                	.insn	2, 0x3a3a
    2edc:	3a3a                	.insn	2, 0x3a3a
    2ede:	3a3a                	.insn	2, 0x3a3a
    2ee0:	3a3a                	.insn	2, 0x3a3a
    2ee2:	3a3a                	.insn	2, 0x3a3a
    2ee4:	0a3a                	.insn	2, 0x0a3a
    2ee6:	0000                	.insn	2, 0x
    2ee8:	3a3a                	.insn	2, 0x3a3a
    2eea:	3a3a                	.insn	2, 0x3a3a
    2eec:	3a3a                	.insn	2, 0x3a3a
    2eee:	3d3a                	.insn	2, 0x3d3a
    2ef0:	3d3d                	.insn	2, 0x3d3d
    2ef2:	3d3d                	.insn	2, 0x3d3d
    2ef4:	3d3d                	.insn	2, 0x3d3d
    2ef6:	3d3d                	.insn	2, 0x3d3d
    2ef8:	3a3a                	.insn	2, 0x3a3a
    2efa:	3a3a                	.insn	2, 0x3a3a
    2efc:	3a3a                	.insn	2, 0x3a3a
    2efe:	2d2e                	.insn	2, 0x2d2e
    2f00:	2d2d                	.insn	2, 0x2d2d
    2f02:	2d2d                	.insn	2, 0x2d2d
    2f04:	2d2d                	.insn	2, 0x2d2d
    2f06:	2d2d                	.insn	2, 0x2d2d
    2f08:	2d2d                	.insn	2, 0x2d2d
    2f0a:	2d2d                	.insn	2, 0x2d2d
    2f0c:	2d2d                	.insn	2, 0x2d2d
    2f0e:	3a2e                	.insn	2, 0x3a2e
    2f10:	3a3a                	.insn	2, 0x3a3a
    2f12:	3a3a                	.insn	2, 0x3a3a
    2f14:	3a3a                	.insn	2, 0x3a3a
    2f16:	3a3a                	.insn	2, 0x3a3a
    2f18:	3a3a                	.insn	2, 0x3a3a
    2f1a:	3a3a                	.insn	2, 0x3a3a
    2f1c:	3a3a                	.insn	2, 0x3a3a
    2f1e:	3a3a                	.insn	2, 0x3a3a
    2f20:	3a3a                	.insn	2, 0x3a3a
    2f22:	3a3a                	.insn	2, 0x3a3a
    2f24:	3a3a                	.insn	2, 0x3a3a
    2f26:	3a3a                	.insn	2, 0x3a3a
    2f28:	3a3a                	.insn	2, 0x3a3a
    2f2a:	3a3a                	.insn	2, 0x3a3a
    2f2c:	3a3a                	.insn	2, 0x3a3a
    2f2e:	000a                	.insn	2, 0x000a
    2f30:	3a3a                	.insn	2, 0x3a3a
    2f32:	3d3a                	.insn	2, 0x3d3a
    2f34:	3d3d                	.insn	2, 0x3d3d
    2f36:	3d3d                	.insn	2, 0x3d3d
    2f38:	3d3d                	.insn	2, 0x3d3d
    2f3a:	3d3d                	.insn	2, 0x3d3d
    2f3c:	3d3d                	.insn	2, 0x3d3d
    2f3e:	3d3d                	.insn	2, 0x3d3d
    2f40:	3a3a                	.insn	2, 0x3a3a
    2f42:	3a3a                	.insn	2, 0x3a3a
    2f44:	3a3a                	.insn	2, 0x3a3a
    2f46:	207c                	.insn	2, 0x207c
    2f48:	2d2e                	.insn	2, 0x2d2e
    2f4a:	2d2d                	.insn	2, 0x2d2d
    2f4c:	2d2d                	.insn	2, 0x2d2d
    2f4e:	2d2d                	.insn	2, 0x2d2d
    2f50:	2d2d                	.insn	2, 0x2d2d
    2f52:	2d2d                	.insn	2, 0x2d2d
    2f54:	202e                	.insn	2, 0x202e
    2f56:	3a7c                	.insn	2, 0x3a7c
    2f58:	3a3a                	.insn	2, 0x3a3a
    2f5a:	3a3a                	.insn	2, 0x3a3a
    2f5c:	3a3a                	.insn	2, 0x3a3a
    2f5e:	3a3a                	.insn	2, 0x3a3a
    2f60:	3a3a                	.insn	2, 0x3a3a
    2f62:	3a3a                	.insn	2, 0x3a3a
    2f64:	3a3a                	.insn	2, 0x3a3a
    2f66:	3a3a                	.insn	2, 0x3a3a
    2f68:	3a3a                	.insn	2, 0x3a3a
    2f6a:	3a3a                	.insn	2, 0x3a3a
    2f6c:	3a3a                	.insn	2, 0x3a3a
    2f6e:	3a3a                	.insn	2, 0x3a3a
    2f70:	3a3a                	.insn	2, 0x3a3a
    2f72:	3a3a                	.insn	2, 0x3a3a
    2f74:	000a                	.insn	2, 0x000a
    2f76:	0000                	.insn	2, 0x
    2f78:	3a3a                	.insn	2, 0x3a3a
    2f7a:	3a3a                	.insn	2, 0x3a3a
    2f7c:	3d3d                	.insn	2, 0x3d3d
    2f7e:	3d3d                	.insn	2, 0x3d3d
    2f80:	3d3d                	.insn	2, 0x3d3d
    2f82:	3d3d                	.insn	2, 0x3d3d
    2f84:	3d3d                	.insn	2, 0x3d3d
    2f86:	3a3a                	.insn	2, 0x3a3a
    2f88:	3a3a                	.insn	2, 0x3a3a
    2f8a:	3a3a                	.insn	2, 0x3a3a
    2f8c:	3a3a                	.insn	2, 0x3a3a
    2f8e:	207c                	.insn	2, 0x207c
    2f90:	207c                	.insn	2, 0x207c
    2f92:	3d3d                	.insn	2, 0x3d3d
    2f94:	203d                	.insn	2, 0x203d
    2f96:	3d3d                	.insn	2, 0x3d3d
    2f98:	3d20                	.insn	2, 0x3d20
    2f9a:	203d                	.insn	2, 0x203d
    2f9c:	207c                	.insn	2, 0x207c
    2f9e:	3a7c                	.insn	2, 0x3a7c
    2fa0:	3a3a                	.insn	2, 0x3a3a
    2fa2:	3a3a                	.insn	2, 0x3a3a
    2fa4:	3a3a                	.insn	2, 0x3a3a
    2fa6:	3a3a                	.insn	2, 0x3a3a
    2fa8:	3a3a                	.insn	2, 0x3a3a
    2faa:	3a3a                	.insn	2, 0x3a3a
    2fac:	3a3a                	.insn	2, 0x3a3a
    2fae:	3a3a                	.insn	2, 0x3a3a
    2fb0:	3a3a                	.insn	2, 0x3a3a
    2fb2:	3a3a                	.insn	2, 0x3a3a
    2fb4:	3a3a                	.insn	2, 0x3a3a
    2fb6:	3a3a                	.insn	2, 0x3a3a
    2fb8:	3a3a                	.insn	2, 0x3a3a
    2fba:	3a3a                	.insn	2, 0x3a3a
    2fbc:	3a3a                	.insn	2, 0x3a3a
    2fbe:	3a3a                	.insn	2, 0x3a3a
    2fc0:	000a                	.insn	2, 0x000a
    2fc2:	0000                	.insn	2, 0x
    2fc4:	3a3a                	.insn	2, 0x3a3a
    2fc6:	3a3a                	.insn	2, 0x3a3a
    2fc8:	3d3d                	.insn	2, 0x3d3d
    2fca:	3d3d                	.insn	2, 0x3d3d
    2fcc:	3d3d                	.insn	2, 0x3d3d
    2fce:	3d3d                	.insn	2, 0x3d3d
    2fd0:	3d3d                	.insn	2, 0x3d3d
    2fd2:	3a3a                	.insn	2, 0x3a3a
    2fd4:	3a3a                	.insn	2, 0x3a3a
    2fd6:	3a3a                	.insn	2, 0x3a3a
    2fd8:	3a3a                	.insn	2, 0x3a3a
    2fda:	207c                	.insn	2, 0x207c
    2fdc:	207c                	.insn	2, 0x207c
    2fde:	4d45                	.insn	2, 0x4d45
    2fe0:	4941                	.insn	2, 0x4941
    2fe2:	204c                	.insn	2, 0x204c
    2fe4:	4420                	.insn	2, 0x4420
    2fe6:	207c204f          	.insn	4, 0x207c204f
    2fea:	3a7c                	.insn	2, 0x3a7c
    2fec:	3a3a                	.insn	2, 0x3a3a
    2fee:	3a3a                	.insn	2, 0x3a3a
    2ff0:	3a3a                	.insn	2, 0x3a3a
    2ff2:	3a3a                	.insn	2, 0x3a3a
    2ff4:	3a3a                	.insn	2, 0x3a3a
    2ff6:	3a3a                	.insn	2, 0x3a3a
    2ff8:	3a3a                	.insn	2, 0x3a3a
    2ffa:	3a3a                	.insn	2, 0x3a3a
    2ffc:	3a3a                	.insn	2, 0x3a3a
    2ffe:	3a3a                	.insn	2, 0x3a3a
    3000:	3a3a                	.insn	2, 0x3a3a
    3002:	3a3a                	.insn	2, 0x3a3a
    3004:	3a3a                	.insn	2, 0x3a3a
    3006:	3a3a                	.insn	2, 0x3a3a
    3008:	3a3a                	.insn	2, 0x3a3a
    300a:	000a                	.insn	2, 0x000a
    300c:	3a3a                	.insn	2, 0x3a3a
    300e:	3a3a                	.insn	2, 0x3a3a
    3010:	3a3a                	.insn	2, 0x3a3a
    3012:	3d3a                	.insn	2, 0x3d3a
    3014:	3d3d                	.insn	2, 0x3d3d
    3016:	3d3d                	.insn	2, 0x3d3d
    3018:	3d3d                	.insn	2, 0x3d3d
    301a:	3d3d                	.insn	2, 0x3d3d
    301c:	273d                	.insn	2, 0x273d
    301e:	3a3a                	.insn	2, 0x3a3a
    3020:	3a3a                	.insn	2, 0x3a3a
    3022:	207c                	.insn	2, 0x207c
    3024:	207c                	.insn	2, 0x207c
    3026:	7520                	.insn	2, 0x7520
    3028:	6772                	.insn	2, 0x6772
    302a:	6e65                	.insn	2, 0x6e65
    302c:	2174                	.insn	2, 0x2174
    302e:	2020                	.insn	2, 0x2020
    3030:	207c                	.insn	2, 0x207c
    3032:	3a7c                	.insn	2, 0x3a7c
    3034:	3a3a                	.insn	2, 0x3a3a
    3036:	3a3a                	.insn	2, 0x3a3a
    3038:	3a3a                	.insn	2, 0x3a3a
    303a:	3a3a                	.insn	2, 0x3a3a
    303c:	3a3a                	.insn	2, 0x3a3a
    303e:	3a3a                	.insn	2, 0x3a3a
    3040:	3a3a                	.insn	2, 0x3a3a
    3042:	3a3a                	.insn	2, 0x3a3a
    3044:	3a3a                	.insn	2, 0x3a3a
    3046:	3a3a                	.insn	2, 0x3a3a
    3048:	3a3a                	.insn	2, 0x3a3a
    304a:	3a3a                	.insn	2, 0x3a3a
    304c:	3a3a                	.insn	2, 0x3a3a
    304e:	3a3a                	.insn	2, 0x3a3a
    3050:	000a                	.insn	2, 0x000a
    3052:	0000                	.insn	2, 0x
    3054:	3a3a                	.insn	2, 0x3a3a
    3056:	3d3a                	.insn	2, 0x3d3a
    3058:	3d3d                	.insn	2, 0x3d3d
    305a:	3d3d                	.insn	2, 0x3d3d
    305c:	3d3d                	.insn	2, 0x3d3d
    305e:	3d3d                	.insn	2, 0x3d3d
    3060:	3d3d                	.insn	2, 0x3d3d
    3062:	3a3a                	.insn	2, 0x3a3a
    3064:	3a3a                	.insn	2, 0x3a3a
    3066:	3a3a                	.insn	2, 0x3a3a
    3068:	3a3a                	.insn	2, 0x3a3a
    306a:	207c                	.insn	2, 0x207c
    306c:	5f7c                	.insn	2, 0x5f7c
    306e:	5f5f 5f5f 5f5f      	.insn	6, 0x5f5f5f5f5f5f
    3074:	5f5f 5f5f 207c      	.insn	6, 0x207c5f5f5f5f
    307a:	3a7c                	.insn	2, 0x3a7c
    307c:	3a3a                	.insn	2, 0x3a3a
    307e:	3a3a                	.insn	2, 0x3a3a
    3080:	283a                	.insn	2, 0x283a
    3082:	3b28                	.insn	2, 0x3b28
    3084:	3a29                	.insn	2, 0x3a29
    3086:	3a3a                	.insn	2, 0x3a3a
    3088:	3a3a                	.insn	2, 0x3a3a
    308a:	3a3a                	.insn	2, 0x3a3a
    308c:	3a3a                	.insn	2, 0x3a3a
    308e:	3a3a                	.insn	2, 0x3a3a
    3090:	3a3a                	.insn	2, 0x3a3a
    3092:	3a3a                	.insn	2, 0x3a3a
    3094:	3a3a                	.insn	2, 0x3a3a
    3096:	3a3a                	.insn	2, 0x3a3a
    3098:	3a3a                	.insn	2, 0x3a3a
    309a:	000a                	.insn	2, 0x000a
    309c:	27272727          	.insn	4, 0x27272727
    30a0:	3d3d                	.insn	2, 0x3d3d
    30a2:	3d3d                	.insn	2, 0x3d3d
    30a4:	3d3d                	.insn	2, 0x3d3d
    30a6:	3d3d                	.insn	2, 0x3d3d
    30a8:	3d3d                	.insn	2, 0x3d3d
    30aa:	3d3d                	.insn	2, 0x3d3d
    30ac:	27272727          	.insn	4, 0x27272727
    30b0:	5f7c2727          	.insn	4, 0x5f7c2727
    30b4:	5f5f 5f5f 5f5f      	.insn	6, 0x5f5f5f5f5f5f
    30ba:	5f5f 5f5f 6f6f      	.insn	6, 0x6f6f5f5f5f5f
    30c0:	5f5f 227c 2922      	.insn	6, 0x2922227c5f5f
    30c6:	27272727          	.insn	4, 0x27272727
    30ca:	2222283b          	.insn	4, 0x2222283b
    30ce:	2222                	.insn	2, 0x2222
    30d0:	2222                	.insn	2, 0x2222
    30d2:	2222                	.insn	2, 0x2222
    30d4:	2222                	.insn	2, 0x2222
    30d6:	2222                	.insn	2, 0x2222
    30d8:	2222                	.insn	2, 0x2222
    30da:	2222                	.insn	2, 0x2222
    30dc:	2222                	.insn	2, 0x2222
    30de:	2222                	.insn	2, 0x2222
    30e0:	000a                	.insn	2, 0x000a
    30e2:	0000                	.insn	2, 0x
    30e4:	2020                	.insn	2, 0x2020
    30e6:	3d3d                	.insn	2, 0x3d3d
    30e8:	3d3d                	.insn	2, 0x3d3d
    30ea:	3d3d                	.insn	2, 0x3d3d
    30ec:	3d3d                	.insn	2, 0x3d3d
    30ee:	3d3d                	.insn	2, 0x3d3d
    30f0:	273d                	.insn	2, 0x273d
    30f2:	2020                	.insn	2, 0x2020
    30f4:	2020                	.insn	2, 0x2020
    30f6:	2020                	.insn	2, 0x2020
    30f8:	2020                	.insn	2, 0x2020
    30fa:	2020                	.insn	2, 0x2020
    30fc:	5f20                	.insn	2, 0x5f20
    30fe:	5f5f 5f29 5f5f      	.insn	6, 0x5f5f5f295f5f
    3104:	5f28                	.insn	2, 0x5f28
    3106:	5f5f 6f2c 2020      	.insn	6, 0x20206f2c5f5f
    310c:	2028                	.insn	2, 0x2028
    310e:	2020                	.insn	2, 0x2020
    3110:	2d2e                	.insn	2, 0x2d2e
    3112:	2d2d                	.insn	2, 0x2d2d
    3114:	5f2e                	.insn	2, 0x5f2e
    3116:	000a                	.insn	2, 0x000a
    3118:	2020                	.insn	2, 0x2020
    311a:	2020                	.insn	2, 0x2020
    311c:	3d20                	.insn	2, 0x3d20
    311e:	3d3d                	.insn	2, 0x3d3d
    3120:	3d3d                	.insn	2, 0x3d3d
    3122:	3d3d                	.insn	2, 0x3d3d
    3124:	3d3d                	.insn	2, 0x3d3d
    3126:	3d3d                	.insn	2, 0x3d3d
    3128:	2020                	.insn	2, 0x2020
    312a:	2020                	.insn	2, 0x2020
    312c:	2020                	.insn	2, 0x2020
    312e:	2020                	.insn	2, 0x2020
    3130:	5f7c                	.insn	2, 0x5f7c
    3132:	5f5f 5f5f 5f5f      	.insn	6, 0x5f5f5f5f5f5f
    3138:	5f5f 5f5f 207c      	.insn	6, 0x207c5f5f5f5f
    313e:	2038                	.insn	2, 0x2038
    3140:	5c20                	.insn	2, 0x5c20
    3142:	7c20                	.insn	2, 0x7c20
    3144:	4554                	.insn	2, 0x4554
    3146:	7c41                	.insn	2, 0x7c41
    3148:	295f 2020 2020      	.insn	6, 0x20202020295f
    314e:	2b2e                	.insn	2, 0x2b2e
    3150:	2d2d                	.insn	2, 0x2d2d
    3152:	2d2d                	.insn	2, 0x2d2d
    3154:	2d2d                	.insn	2, 0x2d2d
    3156:	2b2d                	.insn	2, 0x2b2d
    3158:	0a2e                	.insn	2, 0x0a2e
    315a:	0000                	.insn	2, 0x
    315c:	2020                	.insn	2, 0x2020
    315e:	3d3d                	.insn	2, 0x3d3d
    3160:	3d3d                	.insn	2, 0x3d3d
    3162:	3d3d                	.insn	2, 0x3d3d
    3164:	3d3d                	.insn	2, 0x3d3d
    3166:	3d3d                	.insn	2, 0x3d3d
    3168:	203d                	.insn	2, 0x203d
    316a:	2020                	.insn	2, 0x2020
    316c:	2020                	.insn	2, 0x2020
    316e:	2020                	.insn	2, 0x2020
    3170:	2020                	.insn	2, 0x2020
    3172:	2020                	.insn	2, 0x2020
    3174:	2020                	.insn	2, 0x2020
    3176:	2020                	.insn	2, 0x2020
    3178:	2020                	.insn	2, 0x2020
    317a:	2020                	.insn	2, 0x2020
    317c:	2020                	.insn	2, 0x2020
    317e:	386f386f          	jal	a6,f6504 <__global_pointer+0xf44f8>
    3182:	2020                	.insn	2, 0x2020
    3184:	2020                	.insn	2, 0x2020
    3186:	2029                	.insn	2, 0x2029
    3188:	5f7c                	.insn	2, 0x5f7c
    318a:	5f5f 207c 2020      	.insn	6, 0x2020207c5f5f
    3190:	2e20                	.insn	2, 0x2e20
    3192:	5f7c2027          	.insn	4, 0x5f7c2027
    3196:	5f5f 5f5f 5f5f      	.insn	6, 0x5f5f5f5f5f5f
    319c:	207c                	.insn	2, 0x207c
    319e:	2e60                	.insn	2, 0x2e60
    31a0:	000a                	.insn	2, 0x000a
    31a2:	0000                	.insn	2, 0x
    31a4:	5f5f 5f5f 5f5f      	.insn	6, 0x5f5f5f5f5f5f
    31aa:	5f5f 5f5f 5f5f      	.insn	6, 0x5f5f5f5f5f5f
    31b0:	5f5f 5f5f 5f5f      	.insn	6, 0x5f5f5f5f5f5f
    31b6:	5f5f 5f5f 5f5f      	.insn	6, 0x5f5f5f5f5f5f
    31bc:	5f5f 5f5f 5f5f      	.insn	6, 0x5f5f5f5f5f5f
    31c2:	5f5f 5f5f 5f5f      	.insn	6, 0x5f5f5f5f5f5f
    31c8:	5f5f 5f5f 5f5f      	.insn	6, 0x5f5f5f5f5f5f
    31ce:	5f5f 5f5f 5f5f      	.insn	6, 0x5f5f5f5f5f5f
    31d4:	5f5f 5f5f 5f5f      	.insn	6, 0x5f5f5f5f5f5f
    31da:	5f5f 5f5f 5f5f      	.insn	6, 0x5f5f5f5f5f5f
    31e0:	5f5f 5f5f 5f5f      	.insn	6, 0x5f5f5f5f5f5f
    31e6:	5f5f 5f5f 0a5f      	.insn	6, 0x0a5f5f5f5f5f
    31ec:	0000                	.insn	2, 0x
    31ee:	0000                	.insn	2, 0x
    31f0:	2e31                	.insn	2, 0x2e31
    31f2:	5420                	.insn	2, 0x5420
    31f4:	6c61                	.insn	2, 0x6c61
    31f6:	6f74206b          	.insn	4, 0x6f74206b
    31fa:	7920                	.insn	2, 0x7920
    31fc:	2072756f          	jal	a0,2ac02 <__global_pointer+0x28bf6>
    3200:	6f62                	.insn	2, 0x6f62
    3202:	000a7373          	csrrci	t1,ustatus,20
    3206:	0000                	.insn	2, 0x
    3208:	2e32                	.insn	2, 0x2e32
    320a:	5420                	.insn	2, 0x5420
    320c:	6c61                	.insn	2, 0x6c61
    320e:	6f74206b          	.insn	4, 0x6f74206b
    3212:	7920                	.insn	2, 0x7920
    3214:	2072756f          	jal	a0,2ac1a <__global_pointer+0x28c0e>
    3218:	6562                	.insn	2, 0x6562
    321a:	65697473          	csrrci	s0,hviprio1h,18
    321e:	000a                	.insn	2, 0x000a
    3220:	54202e33          	.insn	4, 0x54202e33
    3224:	6c61                	.insn	2, 0x6c61
    3226:	6f74206b          	.insn	4, 0x6f74206b
    322a:	7920                	.insn	2, 0x7920
    322c:	2072756f          	jal	a0,2ac32 <__global_pointer+0x28c26>
    3230:	656e                	.insn	2, 0x656e
    3232:	6769                	.insn	2, 0x6769
    3234:	6268                	.insn	2, 0x6268
    3236:	0a72756f          	jal	a0,2aadc <__global_pointer+0x28ad0>
    323a:	0000                	.insn	2, 0x
    323c:	654e                	.insn	2, 0x654e
    323e:	6472                	.insn	2, 0x6472
    3240:	7420                	.insn	2, 0x7420
    3242:	6968                	.insn	2, 0x6968
    3244:	676e                	.insn	2, 0x676e
    3246:	00000a73          	.insn	4, 0x0a73
    324a:	0000                	.insn	2, 0x
    324c:	532a                	.insn	2, 0x532a
    324e:	6f74                	.insn	2, 0x6f74
    3250:	616d                	.insn	2, 0x616d
    3252:	67206863          	bltu	zero,s2,38c2 <__global_pointer+0x18b6>
    3256:	6f72                	.insn	2, 0x6f72
    3258:	6e696c77          	.insn	4, 0x6e696c77
    325c:	2e202a67          	.insn	4, 0x2e202a67
    3260:	2e2e                	.insn	2, 0x2e2e
    3262:	4920                	.insn	2, 0x4920
    3264:	6720                	.insn	2, 0x6720
    3266:	6575                	.insn	2, 0x6575
    3268:	49207373          	csrrci	t1,0x492,0
    326c:	6e20                	.insn	2, 0x6e20
    326e:	6565                	.insn	2, 0x6565
    3270:	2064                	.insn	2, 0x2064
    3272:	6f74                	.insn	2, 0x6f74
    3274:	6620                	.insn	2, 0x6620
    3276:	6565                	.insn	2, 0x6565
    3278:	2064                	.insn	2, 0x2064
    327a:	6874                	.insn	2, 0x6874
    327c:	2065                	.insn	2, 0x2065
    327e:	6562                	.insn	2, 0x6562
    3280:	7361                	.insn	2, 0x7361
    3282:	3f74                	.insn	2, 0x3f74
    3284:	000a                	.insn	2, 0x000a
    3286:	0000                	.insn	2, 0x
    3288:	2e31                	.insn	2, 0x2e31
    328a:	5320                	.insn	2, 0x5320
    328c:	6c61                	.insn	2, 0x6c61
    328e:	6461                	.insn	2, 0x6461
    3290:	000a                	.insn	2, 0x000a
    3292:	0000                	.insn	2, 0x
    3294:	2e32                	.insn	2, 0x2e32
    3296:	4220                	.insn	2, 0x4220
    3298:	7275                	.insn	2, 0x7275
    329a:	0a726567          	.insn	4, 0x0a726567
    329e:	0000                	.insn	2, 0x
    32a0:	53202e33          	.insn	4, 0x53202e33
    32a4:	7375                	.insn	2, 0x7375
    32a6:	6968                	.insn	2, 0x6968
    32a8:	000a                	.insn	2, 0x000a
    32aa:	0000                	.insn	2, 0x
    32ac:	6f59                	.insn	2, 0x6f59
    32ae:	2075                	.insn	2, 0x2075
    32b0:	6566                	.insn	2, 0x6566
    32b2:	6c65                	.insn	2, 0x6c65
    32b4:	7420                	.insn	2, 0x7420
    32b6:	6568                	.insn	2, 0x6568
    32b8:	7520                	.insn	2, 0x7520
    32ba:	6772                	.insn	2, 0x6772
    32bc:	2065                	.insn	2, 0x2065
    32be:	6f74                	.insn	2, 0x6f74
    32c0:	6720                	.insn	2, 0x6720
    32c2:	6f74206f          	j	461b8 <__global_pointer+0x441ac>
    32c6:	7420                	.insn	2, 0x7420
    32c8:	6568                	.insn	2, 0x6568
    32ca:	7420                	.insn	2, 0x7420
    32cc:	656c696f          	jal	s2,c9922 <__global_pointer+0xc7916>
    32d0:	2e74                	.insn	2, 0x2e74
    32d2:	000a                	.insn	2, 0x000a
    32d4:	2e31                	.insn	2, 0x2e31
    32d6:	4720                	.insn	2, 0x4720
    32d8:	6f74206f          	j	461ce <__global_pointer+0x441c2>
    32dc:	7420                	.insn	2, 0x7420
    32de:	6568                	.insn	2, 0x6568
    32e0:	7420                	.insn	2, 0x7420
    32e2:	656c696f          	jal	s2,c9938 <__global_pointer+0xc792c>
    32e6:	0a74                	.insn	2, 0x0a74
    32e8:	0000                	.insn	2, 0x
    32ea:	0000                	.insn	2, 0x
    32ec:	2e32                	.insn	2, 0x2e32
    32ee:	4820                	.insn	2, 0x4820
    32f0:	20646c6f          	jal	s8,494f6 <__global_pointer+0x474ea>
    32f4:	7469                	.insn	2, 0x7469
    32f6:	6920                	.insn	2, 0x6920
    32f8:	0a6e                	.insn	2, 0x0a6e
    32fa:	0000                	.insn	2, 0x
    32fc:	5b0a                	.insn	2, 0x5b0a
    32fe:	5845                	.insn	2, 0x5845
    3300:	54504543          	.insn	4, 0x54504543
    3304:	4f49                	.insn	2, 0x4f49
    3306:	5d4e                	.insn	2, 0x5d4e
    3308:	4920                	.insn	2, 0x4920
    330a:	736e                	.insn	2, 0x736e
    330c:	7274                	.insn	2, 0x7274
    330e:	6375                	.insn	2, 0x6375
    3310:	6974                	.insn	2, 0x6974
    3312:	61206e6f          	jal	t3,9924 <__global_pointer+0x7918>
    3316:	6464                	.insn	2, 0x6464
    3318:	6572                	.insn	2, 0x6572
    331a:	6d207373          	csrrci	t1,0x6d2,0
    331e:	7369                	.insn	2, 0x7369
    3320:	6c61                	.insn	2, 0x6c61
    3322:	6769                	.insn	2, 0x6769
    3324:	6d6e                	.insn	2, 0x6d6e
    3326:	6e65                	.insn	2, 0x6e65
    3328:	2e74                	.insn	2, 0x2e74
    332a:	0020                	.insn	2, 0x0020
    332c:	5b0a                	.insn	2, 0x5b0a
    332e:	5845                	.insn	2, 0x5845
    3330:	54504543          	.insn	4, 0x54504543
    3334:	4f49                	.insn	2, 0x4f49
    3336:	5d4e                	.insn	2, 0x5d4e
    3338:	4920                	.insn	2, 0x4920
    333a:	6c6c                	.insn	2, 0x6c6c
    333c:	6765                	.insn	2, 0x6765
    333e:	6c61                	.insn	2, 0x6c61
    3340:	6920                	.insn	2, 0x6920
    3342:	736e                	.insn	2, 0x736e
    3344:	7274                	.insn	2, 0x7274
    3346:	6375                	.insn	2, 0x6375
    3348:	6974                	.insn	2, 0x6974
    334a:	202e6e6f          	jal	t3,e954c <__global_pointer+0xe7540>
    334e:	0000                	.insn	2, 0x
    3350:	5b0a                	.insn	2, 0x5b0a
    3352:	5845                	.insn	2, 0x5845
    3354:	54504543          	.insn	4, 0x54504543
    3358:	4f49                	.insn	2, 0x4f49
    335a:	5d4e                	.insn	2, 0x5d4e
    335c:	5520                	.insn	2, 0x5520
    335e:	6b6e                	.insn	2, 0x6b6e
    3360:	6f6e                	.insn	2, 0x6f6e
    3362:	65206e77          	.insn	4, 0x65206e77
    3366:	7272                	.insn	2, 0x7272
    3368:	202e726f          	jal	tp,ea56a <__global_pointer+0xe855e>
    336c:	0000                	.insn	2, 0x
    336e:	0000                	.insn	2, 0x
    3370:	7845                	.insn	2, 0x7845
    3372:	74706563          	bltu	zero,t2,3abc <__global_pointer+0x1ab0>
    3376:	6f69                	.insn	2, 0x6f69
    3378:	206e                	.insn	2, 0x206e
    337a:	6441                	.insn	2, 0x6441
    337c:	7264                	.insn	2, 0x7264
    337e:	7365                	.insn	2, 0x7365
    3380:	00203a73          	csrrc	s4,frm,zero

Disassembly of section .comment:

00000000 <.comment>:
   0:	3a434347          	.insn	4, 0x3a434347
   4:	2820                	.insn	2, 0x2820
   6:	2029                	.insn	2, 0x2029
   8:	3331                	.insn	2, 0x3331
   a:	322e                	.insn	2, 0x322e
   c:	302e                	.insn	2, 0x302e
	...

Disassembly of section .riscv.attributes:

00000000 <.riscv.attributes>:
   0:	3641                	.insn	2, 0x3641
   2:	0000                	.insn	2, 0x
   4:	7200                	.insn	2, 0x7200
   6:	7369                	.insn	2, 0x7369
   8:	01007663          	bgeu	zero,a6,14 <_isr_routine+0xc>
   c:	002c                	.insn	2, 0x002c
   e:	0000                	.insn	2, 0x
  10:	1004                	.insn	2, 0x1004
  12:	7205                	.insn	2, 0x7205
  14:	3376                	.insn	2, 0x3376
  16:	6932                	.insn	2, 0x6932
  18:	7032                	.insn	2, 0x7032
  1a:	5f31                	.insn	2, 0x5f31
  1c:	326d                	.insn	2, 0x326d
  1e:	3070                	.insn	2, 0x3070
  20:	7a5f 6369 7273      	.insn	6, 0x727363697a5f
  26:	7032                	.insn	2, 0x7032
  28:	5f30                	.insn	2, 0x5f30
  2a:	6d7a                	.insn	2, 0x6d7a
  2c:	756d                	.insn	2, 0x756d
  2e:	316c                	.insn	2, 0x316c
  30:	3070                	.insn	2, 0x3070
  32:	0800                	.insn	2, 0x0800
  34:	0a01                	.insn	2, 0x0a01
  36:	Address 0x36 is out of bounds.

