
main.elf:     file format elf32-littleriscv


Disassembly of section .text:

00000000 <_isr_handler>:
       0:	0080006f          	j	8 <_isr_routine>
       4:	1440006f          	j	148 <_start>

00000008 <_isr_routine>:
       8:	f8010113          	addi	sp,sp,-128
       c:	00112023          	sw	ra,0(sp)
      10:	00312423          	sw	gp,8(sp)
      14:	00412623          	sw	tp,12(sp)
      18:	00512823          	sw	t0,16(sp)
      1c:	00612a23          	sw	t1,20(sp)
      20:	00712c23          	sw	t2,24(sp)
      24:	00812e23          	sw	s0,28(sp)
      28:	02912023          	sw	s1,32(sp)
      2c:	02a12223          	sw	a0,36(sp)
      30:	02b12423          	sw	a1,40(sp)
      34:	02c12623          	sw	a2,44(sp)
      38:	02d12823          	sw	a3,48(sp)
      3c:	02e12a23          	sw	a4,52(sp)
      40:	02f12c23          	sw	a5,56(sp)
      44:	03012e23          	sw	a6,60(sp)
      48:	05112023          	sw	a7,64(sp)
      4c:	05212223          	sw	s2,68(sp)
      50:	05312423          	sw	s3,72(sp)
      54:	05412623          	sw	s4,76(sp)
      58:	05512823          	sw	s5,80(sp)
      5c:	05612a23          	sw	s6,84(sp)
      60:	05712c23          	sw	s7,88(sp)
      64:	05812e23          	sw	s8,92(sp)
      68:	07912023          	sw	s9,96(sp)
      6c:	07a12223          	sw	s10,100(sp)
      70:	07b12423          	sw	s11,104(sp)
      74:	07c12623          	sw	t3,108(sp)
      78:	07d12823          	sw	t4,112(sp)
      7c:	07e12a23          	sw	t5,116(sp)
      80:	07f12c23          	sw	t6,120(sp)
      84:	342022f3          	csrr	t0,mcause
      88:	80000337          	lui	t1,0x80000
      8c:	02536463          	bltu	t1,t0,b4 <external_irq>
      90:	00028833          	add	a6,t0,zero
      94:	00b00313          	li	t1,11
      98:	00628463          	beq	t0,t1,a0 <skip_init_args>
      9c:	34102573          	csrr	a0,mepc

000000a0 <skip_init_args>:
      a0:	314030ef          	jal	33b4 <handle_exception>
      a4:	341022f3          	csrr	t0,mepc
      a8:	00428293          	addi	t0,t0,4
      ac:	34129073          	csrw	mepc,t0
      b0:	0180006f          	j	c8 <restore>

000000b4 <external_irq>:
      b4:	800002b7          	lui	t0,0x80000
      b8:	fff28293          	addi	t0,t0,-1 # 7fffffff <_stack_end+0x7fef67ef>
      bc:	34202373          	csrr	t1,mcause
      c0:	0062f533          	and	a0,t0,t1
      c4:	158000ef          	jal	21c <handle_interrupt>

000000c8 <restore>:
      c8:	00012083          	lw	ra,0(sp)
      cc:	00812183          	lw	gp,8(sp)
      d0:	00c12203          	lw	tp,12(sp)
      d4:	01012283          	lw	t0,16(sp)
      d8:	01412303          	lw	t1,20(sp)
      dc:	01812383          	lw	t2,24(sp)
      e0:	01c12403          	lw	s0,28(sp)
      e4:	02012483          	lw	s1,32(sp)
      e8:	02412503          	lw	a0,36(sp)
      ec:	02812583          	lw	a1,40(sp)
      f0:	02c12603          	lw	a2,44(sp)
      f4:	03012683          	lw	a3,48(sp)
      f8:	03412703          	lw	a4,52(sp)
      fc:	03812783          	lw	a5,56(sp)
     100:	03c12803          	lw	a6,60(sp)
     104:	04012883          	lw	a7,64(sp)
     108:	04412903          	lw	s2,68(sp)
     10c:	04812983          	lw	s3,72(sp)
     110:	04c12a03          	lw	s4,76(sp)
     114:	05012a83          	lw	s5,80(sp)
     118:	05412b03          	lw	s6,84(sp)
     11c:	05812b83          	lw	s7,88(sp)
     120:	05c12c03          	lw	s8,92(sp)
     124:	06012c83          	lw	s9,96(sp)
     128:	06412d03          	lw	s10,100(sp)
     12c:	06812d83          	lw	s11,104(sp)
     130:	06c12e03          	lw	t3,108(sp)
     134:	07012e83          	lw	t4,112(sp)
     138:	07412f03          	lw	t5,116(sp)
     13c:	07812f83          	lw	t6,120(sp)
     140:	08010113          	addi	sp,sp,128
     144:	30200073          	mret

00000148 <_start>:
     148:	30401073          	csrw	mie,zero
     14c:	00109117          	auipc	sp,0x109
     150:	6c410113          	addi	sp,sp,1732 # 109810 <_stack_end>
     154:	00004197          	auipc	gp,0x4
     158:	4b418193          	addi	gp,gp,1204 # 4608 <__global_pointer>
     15c:	00003517          	auipc	a0,0x3
     160:	4e450513          	addi	a0,a0,1252 # 3640 <welcome_msg>
     164:	00400893          	li	a7,4
     168:	00000073          	ecall
     16c:	028030ef          	jal	3194 <main>

00000170 <loop>:
     170:	0000006f          	j	170 <loop>

00000174 <disable_interrupts>:
     174:	30406073          	csrsi	mie,0
     178:	30006073          	csrsi	mstatus,0
     17c:	00008067          	ret

00000180 <enable_interrupts>:
     180:	3048e073          	csrsi	mie,17
     184:	3001e073          	csrsi	mstatus,3
     188:	00008067          	ret

0000018c <create_player>:
     18c:	03200713          	li	a4,50
     190:	00e52023          	sw	a4,0(a0)
     194:	3e800713          	li	a4,1000
     198:	00e52223          	sw	a4,4(a0)
     19c:	00500713          	li	a4,5
     1a0:	00e52423          	sw	a4,8(a0)
     1a4:	00600713          	li	a4,6
     1a8:	00e52623          	sw	a4,12(a0)
     1ac:	00052823          	sw	zero,16(a0)
     1b0:	00052a23          	sw	zero,20(a0)
     1b4:	00052c23          	sw	zero,24(a0)
     1b8:	00052e23          	sw	zero,28(a0)
     1bc:	02052023          	sw	zero,32(a0)
     1c0:	02052223          	sw	zero,36(a0)
     1c4:	02052423          	sw	zero,40(a0)
     1c8:	02052623          	sw	zero,44(a0)
     1cc:	02052823          	sw	zero,48(a0)
     1d0:	02052a23          	sw	zero,52(a0)
     1d4:	02052c23          	sw	zero,56(a0)
     1d8:	02052e23          	sw	zero,60(a0)
     1dc:	00008067          	ret

000001e0 <get_switches>:
     1e0:	00a04863          	bgtz	a0,1f0 <get_switches+0x10>
     1e4:	040007b7          	lui	a5,0x4000
     1e8:	0107a503          	lw	a0,16(a5) # 4000010 <_stack_end+0x3ef6800>
     1ec:	00008067          	ret
     1f0:	04000737          	lui	a4,0x4000
     1f4:	01072683          	lw	a3,16(a4) # 4000010 <_stack_end+0x3ef6800>
     1f8:	00100793          	li	a5,1
     1fc:	00a79533          	sll	a0,a5,a0
     200:	fff50513          	addi	a0,a0,-1
     204:	00d57533          	and	a0,a0,a3
     208:	00008067          	ret

0000020c <get_btn>:
     20c:	040007b7          	lui	a5,0x4000
     210:	0d07c503          	lbu	a0,208(a5) # 40000d0 <_stack_end+0x3ef68c0>
     214:	00157513          	andi	a0,a0,1
     218:	00008067          	ret

0000021c <handle_interrupt>:
     21c:	040007b7          	lui	a5,0x4000
     220:	06400713          	li	a4,100
     224:	0007ae23          	sw	zero,28(a5) # 400001c <_stack_end+0x3ef680c>
     228:	000077b7          	lui	a5,0x7
     22c:	53078793          	addi	a5,a5,1328 # 7530 <__global_pointer+0x2f28>
     230:	00000013          	nop
     234:	fff78793          	addi	a5,a5,-1
     238:	fe079ce3          	bnez	a5,230 <handle_interrupt+0x14>
     23c:	fff70713          	addi	a4,a4,-1
     240:	fe0714e3          	bnez	a4,228 <handle_interrupt+0xc>
     244:	000046b7          	lui	a3,0x4
     248:	e086a783          	lw	a5,-504(a3) # 3e08 <coffee>
     24c:	08078863          	beqz	a5,2dc <handle_interrupt+0xc0>
     250:	fff78793          	addi	a5,a5,-1
     254:	e0f6a423          	sw	a5,-504(a3)
     258:	00a00713          	li	a4,10
     25c:	000047b7          	lui	a5,0x4
     260:	e0e7a623          	sw	a4,-500(a5) # 3e0c <c_energy>
     264:	fff00613          	li	a2,-1
     268:	04000737          	lui	a4,0x4000
     26c:	00c70023          	sb	a2,0(a4) # 4000000 <_stack_end+0x3ef67f0>
     270:	040007b7          	lui	a5,0x4000
     274:	04c78823          	sb	a2,80(a5) # 4000050 <_stack_end+0x3ef6840>
     278:	06c70023          	sb	a2,96(a4)
     27c:	06c70823          	sb	a2,112(a4)
     280:	08c70023          	sb	a2,128(a4)
     284:	08c70823          	sb	a2,144(a4)
     288:	0ac70023          	sb	a2,160(a4)
     28c:	e086a603          	lw	a2,-504(a3)
     290:	05078793          	addi	a5,a5,80
     294:	04060463          	beqz	a2,2dc <handle_interrupt+0xc0>
     298:	00100713          	li	a4,1
     29c:	04e60263          	beq	a2,a4,2e0 <handle_interrupt+0xc4>
     2a0:	ff000713          	li	a4,-16
     2a4:	00e78023          	sb	a4,0(a5)
     2a8:	e086a603          	lw	a2,-504(a3)
     2ac:	00200713          	li	a4,2
     2b0:	02c75263          	bge	a4,a2,2d4 <handle_interrupt+0xb8>
     2b4:	00300713          	li	a4,3
     2b8:	ff600513          	li	a0,-10
     2bc:	00a78823          	sb	a0,16(a5)
     2c0:	e086a583          	lw	a1,-504(a3)
     2c4:	00070613          	mv	a2,a4
     2c8:	01078793          	addi	a5,a5,16
     2cc:	00170713          	addi	a4,a4,1
     2d0:	feb646e3          	blt	a2,a1,2bc <handle_interrupt+0xa0>
     2d4:	fc600713          	li	a4,-58
     2d8:	00e78823          	sb	a4,16(a5)
     2dc:	00008067          	ret
     2e0:	fc000713          	li	a4,-64
     2e4:	00e78023          	sb	a4,0(a5)
     2e8:	00008067          	ret

000002ec <clear_screen>:
     2ec:	00004537          	lui	a0,0x4
     2f0:	e1050513          	addi	a0,a0,-496 # 3e10 <c_energy+0x4>
     2f4:	7790206f          	j	326c <print>

000002f8 <clear_row>:
     2f8:	00004537          	lui	a0,0x4
     2fc:	e1850513          	addi	a0,a0,-488 # 3e18 <c_energy+0xc>
     300:	76d0206f          	j	326c <print>

00000304 <error_message>:
     304:	00004537          	lui	a0,0x4
     308:	ff010113          	addi	sp,sp,-16
     30c:	e2450513          	addi	a0,a0,-476 # 3e24 <c_energy+0x18>
     310:	00112623          	sw	ra,12(sp)
     314:	759020ef          	jal	326c <print>
     318:	06400713          	li	a4,100
     31c:	000077b7          	lui	a5,0x7
     320:	53078793          	addi	a5,a5,1328 # 7530 <__global_pointer+0x2f28>
     324:	00000013          	nop
     328:	fff78793          	addi	a5,a5,-1
     32c:	fe079ce3          	bnez	a5,324 <error_message+0x20>
     330:	fff70713          	addi	a4,a4,-1
     334:	fe0714e3          	bnez	a4,31c <error_message+0x18>
     338:	00c12083          	lw	ra,12(sp)
     33c:	00004537          	lui	a0,0x4
     340:	e1850513          	addi	a0,a0,-488 # 3e18 <c_energy+0xc>
     344:	01010113          	addi	sp,sp,16
     348:	7250206f          	j	326c <print>

0000034c <set_leds>:
     34c:	0ff57513          	zext.b	a0,a0
     350:	040007b7          	lui	a5,0x4000
     354:	00a78023          	sb	a0,0(a5) # 4000000 <_stack_end+0x3ef67f0>
     358:	00008067          	ret

0000035c <pretty_print>:
     35c:	fd010113          	addi	sp,sp,-48
     360:	02112623          	sw	ra,44(sp)
     364:	02812423          	sw	s0,40(sp)
     368:	02912223          	sw	s1,36(sp)
     36c:	00054403          	lbu	s0,0(a0)
     370:	06040c63          	beqz	s0,3e8 <pretty_print+0x8c>
     374:	03212023          	sw	s2,32(sp)
     378:	42003937          	lui	s2,0x42003
     37c:	01312e23          	sw	s3,28(sp)
     380:	00150493          	addi	s1,a0,1
     384:	01e00993          	li	s3,30
     388:	80190913          	addi	s2,s2,-2047 # 42002801 <_stack_end+0x41ef8ff1>
     38c:	00c10513          	addi	a0,sp,12
     390:	00810623          	sb	s0,12(sp)
     394:	000106a3          	sb	zero,13(sp)
     398:	6d5020ef          	jal	326c <print>
     39c:	fdf40793          	addi	a5,s0,-33
     3a0:	0ff7f793          	zext.b	a5,a5
     3a4:	04f9ec63          	bltu	s3,a5,3fc <pretty_print+0xa0>
     3a8:	00f957b3          	srl	a5,s2,a5
     3ac:	0017f793          	andi	a5,a5,1
     3b0:	07800713          	li	a4,120
     3b4:	04078463          	beqz	a5,3fc <pretty_print+0xa0>
     3b8:	000077b7          	lui	a5,0x7
     3bc:	53078793          	addi	a5,a5,1328 # 7530 <__global_pointer+0x2f28>
     3c0:	00000013          	nop
     3c4:	fff78793          	addi	a5,a5,-1
     3c8:	fe079ce3          	bnez	a5,3c0 <pretty_print+0x64>
     3cc:	fff70713          	addi	a4,a4,-1
     3d0:	fe0714e3          	bnez	a4,3b8 <pretty_print+0x5c>
     3d4:	0004c403          	lbu	s0,0(s1)
     3d8:	00148493          	addi	s1,s1,1
     3dc:	fa0418e3          	bnez	s0,38c <pretty_print+0x30>
     3e0:	02012903          	lw	s2,32(sp)
     3e4:	01c12983          	lw	s3,28(sp)
     3e8:	02c12083          	lw	ra,44(sp)
     3ec:	02812403          	lw	s0,40(sp)
     3f0:	02412483          	lw	s1,36(sp)
     3f4:	03010113          	addi	sp,sp,48
     3f8:	00008067          	ret
     3fc:	01400713          	li	a4,20
     400:	000077b7          	lui	a5,0x7
     404:	53078793          	addi	a5,a5,1328 # 7530 <__global_pointer+0x2f28>
     408:	00000013          	nop
     40c:	fff78793          	addi	a5,a5,-1
     410:	fe079ce3          	bnez	a5,408 <pretty_print+0xac>
     414:	fff70713          	addi	a4,a4,-1
     418:	fe0714e3          	bnez	a4,400 <pretty_print+0xa4>
     41c:	0004c403          	lbu	s0,0(s1)
     420:	00148493          	addi	s1,s1,1
     424:	f60414e3          	bnez	s0,38c <pretty_print+0x30>
     428:	fb9ff06f          	j	3e0 <pretty_print+0x84>

0000042c <delay>:
     42c:	00050693          	mv	a3,a0
     430:	02050263          	beqz	a0,454 <delay+0x28>
     434:	00000713          	li	a4,0
     438:	000077b7          	lui	a5,0x7
     43c:	53078793          	addi	a5,a5,1328 # 7530 <__global_pointer+0x2f28>
     440:	00000013          	nop
     444:	fff78793          	addi	a5,a5,-1
     448:	fe079ce3          	bnez	a5,440 <delay+0x14>
     44c:	00170713          	addi	a4,a4,1
     450:	fed714e3          	bne	a4,a3,438 <delay+0xc>
     454:	00008067          	ret

00000458 <print_status>:
     458:	ff010113          	addi	sp,sp,-16
     45c:	00812423          	sw	s0,8(sp)
     460:	00050413          	mv	s0,a0
     464:	00004537          	lui	a0,0x4
     468:	e6050513          	addi	a0,a0,-416 # 3e60 <c_energy+0x54>
     46c:	00112623          	sw	ra,12(sp)
     470:	00912223          	sw	s1,4(sp)
     474:	5f9020ef          	jal	326c <print>
     478:	00042503          	lw	a0,0(s0)
     47c:	000047b7          	lui	a5,0x4
     480:	e7c78793          	addi	a5,a5,-388 # 3e7c <c_energy+0x70>
     484:	00a78533          	add	a0,a5,a0
     488:	000044b7          	lui	s1,0x4
     48c:	5e1020ef          	jal	326c <print>
     490:	e8848513          	addi	a0,s1,-376 # 3e88 <c_energy+0x7c>
     494:	5d9020ef          	jal	326c <print>
     498:	00442503          	lw	a0,4(s0)
     49c:	000047b7          	lui	a5,0x4
     4a0:	e8c78793          	addi	a5,a5,-372 # 3e8c <c_energy+0x80>
     4a4:	00a78533          	add	a0,a5,a0
     4a8:	5c5020ef          	jal	326c <print>
     4ac:	e8848513          	addi	a0,s1,-376
     4b0:	5bd020ef          	jal	326c <print>
     4b4:	00842503          	lw	a0,8(s0)
     4b8:	000047b7          	lui	a5,0x4
     4bc:	e9478793          	addi	a5,a5,-364 # 3e94 <c_energy+0x88>
     4c0:	00a78533          	add	a0,a5,a0
     4c4:	5a9020ef          	jal	326c <print>
     4c8:	e8848513          	addi	a0,s1,-376
     4cc:	5a1020ef          	jal	326c <print>
     4d0:	00c42503          	lw	a0,12(s0)
     4d4:	000047b7          	lui	a5,0x4
     4d8:	ea078793          	addi	a5,a5,-352 # 3ea0 <c_energy+0x94>
     4dc:	00a78533          	add	a0,a5,a0
     4e0:	58d020ef          	jal	326c <print>
     4e4:	e8848513          	addi	a0,s1,-376
     4e8:	585020ef          	jal	326c <print>
     4ec:	00004537          	lui	a0,0x4
     4f0:	ea850513          	addi	a0,a0,-344 # 3ea8 <c_energy+0x9c>
     4f4:	579020ef          	jal	326c <print>
     4f8:	01042783          	lw	a5,16(s0)
     4fc:	08079263          	bnez	a5,580 <print_status+0x128>
     500:	01442783          	lw	a5,20(s0)
     504:	06079663          	bnez	a5,570 <print_status+0x118>
     508:	01c42783          	lw	a5,28(s0)
     50c:	04079a63          	bnez	a5,560 <print_status+0x108>
     510:	02042783          	lw	a5,32(s0)
     514:	02079e63          	bnez	a5,550 <print_status+0xf8>
     518:	01042783          	lw	a5,16(s0)
     51c:	00079e63          	bnez	a5,538 <print_status+0xe0>
     520:	01442783          	lw	a5,20(s0)
     524:	00079a63          	bnez	a5,538 <print_status+0xe0>
     528:	01c42783          	lw	a5,28(s0)
     52c:	00079663          	bnez	a5,538 <print_status+0xe0>
     530:	02042783          	lw	a5,32(s0)
     534:	04078e63          	beqz	a5,590 <print_status+0x138>
     538:	00812403          	lw	s0,8(sp)
     53c:	00c12083          	lw	ra,12(sp)
     540:	e8848513          	addi	a0,s1,-376
     544:	00412483          	lw	s1,4(sp)
     548:	01010113          	addi	sp,sp,16
     54c:	5210206f          	j	326c <print>
     550:	00004537          	lui	a0,0x4
     554:	eec50513          	addi	a0,a0,-276 # 3eec <c_energy+0xe0>
     558:	515020ef          	jal	326c <print>
     55c:	fbdff06f          	j	518 <print_status+0xc0>
     560:	00004537          	lui	a0,0x4
     564:	ed450513          	addi	a0,a0,-300 # 3ed4 <c_energy+0xc8>
     568:	505020ef          	jal	326c <print>
     56c:	fa5ff06f          	j	510 <print_status+0xb8>
     570:	00004537          	lui	a0,0x4
     574:	ec450513          	addi	a0,a0,-316 # 3ec4 <c_energy+0xb8>
     578:	4f5020ef          	jal	326c <print>
     57c:	f8dff06f          	j	508 <print_status+0xb0>
     580:	00004537          	lui	a0,0x4
     584:	eb450513          	addi	a0,a0,-332 # 3eb4 <c_energy+0xa8>
     588:	4e5020ef          	jal	326c <print>
     58c:	f75ff06f          	j	500 <print_status+0xa8>
     590:	00004537          	lui	a0,0x4
     594:	f0050513          	addi	a0,a0,-256 # 3f00 <c_energy+0xf4>
     598:	4d5020ef          	jal	326c <print>
     59c:	f9dff06f          	j	538 <print_status+0xe0>

000005a0 <timer_init>:
     5a0:	ffffc6b7          	lui	a3,0xffffc
     5a4:	040007b7          	lui	a5,0x4000
     5a8:	6bf68693          	addi	a3,a3,1727 # ffffc6bf <_stack_end+0xffef2eaf>
     5ac:	02d79423          	sh	a3,40(a5) # 4000028 <_stack_end+0x3ef6818>
     5b0:	04000737          	lui	a4,0x4000
     5b4:	02d00693          	li	a3,45
     5b8:	02d71623          	sh	a3,44(a4) # 400002c <_stack_end+0x3ef681c>
     5bc:	040007b7          	lui	a5,0x4000
     5c0:	00600713          	li	a4,6
     5c4:	02e79223          	sh	a4,36(a5) # 4000024 <_stack_end+0x3ef6814>
     5c8:	00008067          	ret

000005cc <get_random_bit>:
     5cc:	040007b7          	lui	a5,0x4000
     5d0:	02079823          	sh	zero,48(a5) # 4000030 <_stack_end+0x3ef6820>
     5d4:	0307d503          	lhu	a0,48(a5)
     5d8:	00157513          	andi	a0,a0,1
     5dc:	00008067          	ret

000005e0 <close_display>:
     5e0:	fff00713          	li	a4,-1
     5e4:	040006b7          	lui	a3,0x4000
     5e8:	040007b7          	lui	a5,0x4000
     5ec:	04e68823          	sb	a4,80(a3) # 4000050 <_stack_end+0x3ef6840>
     5f0:	06e78023          	sb	a4,96(a5) # 4000060 <_stack_end+0x3ef6850>
     5f4:	06e78823          	sb	a4,112(a5)
     5f8:	08e78023          	sb	a4,128(a5)
     5fc:	08e78823          	sb	a4,144(a5)
     600:	0ae78023          	sb	a4,160(a5)
     604:	00008067          	ret

00000608 <draw_road>:
     608:	fb010113          	addi	sp,sp,-80
     60c:	03712623          	sw	s7,44(sp)
     610:	03812423          	sw	s8,40(sp)
     614:	00003bb7          	lui	s7,0x3
     618:	00050c13          	mv	s8,a0
     61c:	00004537          	lui	a0,0x4
     620:	04812423          	sw	s0,72(sp)
     624:	6d4b8b93          	addi	s7,s7,1748 # 36d4 <enemy_lanes>
     628:	e1050513          	addi	a0,a0,-496 # 3e10 <c_energy+0x4>
     62c:	013c0413          	addi	s0,s8,19
     630:	04912223          	sw	s1,68(sp)
     634:	05212023          	sw	s2,64(sp)
     638:	03312e23          	sw	s3,60(sp)
     63c:	03412c23          	sw	s4,56(sp)
     640:	03512a23          	sw	s5,52(sp)
     644:	03612823          	sw	s6,48(sp)
     648:	03912223          	sw	s9,36(sp)
     64c:	03a12023          	sw	s10,32(sp)
     650:	01b12e23          	sw	s11,28(sp)
     654:	04112623          	sw	ra,76(sp)
     658:	00058d93          	mv	s11,a1
     65c:	00060d13          	mv	s10,a2
     660:	008b8433          	add	s0,s7,s0
     664:	409020ef          	jal	326c <print>
     668:	018b8b33          	add	s6,s7,s8
     66c:	00011623          	sh	zero,12(sp)
     670:	000049b7          	lui	s3,0x4
     674:	00004937          	lui	s2,0x4
     678:	00004ab7          	lui	s5,0x4
     67c:	00004a37          	lui	s4,0x4
     680:	03000493          	li	s1,48
     684:	02000c93          	li	s9,32
     688:	0280006f          	j	6b0 <draw_road+0xa8>
     68c:	00044783          	lbu	a5,0(s0)
     690:	00f10623          	sb	a5,12(sp)
     694:	3d9020ef          	jal	326c <print>
     698:	f14a8513          	addi	a0,s5,-236 # 3f14 <c_energy+0x108>
     69c:	3d1020ef          	jal	326c <print>
     6a0:	e88a0513          	addi	a0,s4,-376 # 3e88 <c_energy+0x7c>
     6a4:	fff40413          	addi	s0,s0,-1
     6a8:	3c5020ef          	jal	326c <print>
     6ac:	07640463          	beq	s0,s6,714 <draw_road+0x10c>
     6b0:	f0c98513          	addi	a0,s3,-244 # 3f0c <c_energy+0x100>
     6b4:	3b9020ef          	jal	326c <print>
     6b8:	00044783          	lbu	a5,0(s0)
     6bc:	00c10513          	addi	a0,sp,12
     6c0:	00979463          	bne	a5,s1,6c8 <draw_road+0xc0>
     6c4:	02000793          	li	a5,32
     6c8:	00f10623          	sb	a5,12(sp)
     6cc:	3a1020ef          	jal	326c <print>
     6d0:	f1090513          	addi	a0,s2,-240 # 3f10 <c_energy+0x104>
     6d4:	399020ef          	jal	326c <print>
     6d8:	00144703          	lbu	a4,1(s0)
     6dc:	00c10513          	addi	a0,sp,12
     6e0:	02000793          	li	a5,32
     6e4:	00970463          	beq	a4,s1,6ec <draw_road+0xe4>
     6e8:	00044783          	lbu	a5,0(s0)
     6ec:	00f10623          	sb	a5,12(sp)
     6f0:	37d020ef          	jal	326c <print>
     6f4:	f1090513          	addi	a0,s2,-240
     6f8:	375020ef          	jal	326c <print>
     6fc:	00244783          	lbu	a5,2(s0)
     700:	00c10513          	addi	a0,sp,12
     704:	f89794e3          	bne	a5,s1,68c <draw_road+0x84>
     708:	00c10513          	addi	a0,sp,12
     70c:	01910623          	sb	s9,12(sp)
     710:	f85ff06f          	j	694 <draw_road+0x8c>
     714:	001c1413          	slli	s0,s8,0x1
     718:	f0c98513          	addi	a0,s3,-244
     71c:	01840433          	add	s0,s0,s8
     720:	34d020ef          	jal	326c <print>
     724:	008b8bb3          	add	s7,s7,s0
     728:	00340493          	addi	s1,s0,3
     72c:	03000993          	li	s3,48
     730:	038467b3          	rem	a5,s0,s8
     734:	00c10513          	addi	a0,sp,12
     738:	07a78463          	beq	a5,s10,7a0 <draw_road+0x198>
     73c:	000bc783          	lbu	a5,0(s7)
     740:	01379463          	bne	a5,s3,748 <draw_road+0x140>
     744:	02000793          	li	a5,32
     748:	00f10623          	sb	a5,12(sp)
     74c:	321020ef          	jal	326c <print>
     750:	f1090513          	addi	a0,s2,-240
     754:	00140413          	addi	s0,s0,1
     758:	315020ef          	jal	326c <print>
     75c:	001b8b93          	addi	s7,s7,1
     760:	fc9418e3          	bne	s0,s1,730 <draw_road+0x128>
     764:	04c12083          	lw	ra,76(sp)
     768:	04812403          	lw	s0,72(sp)
     76c:	04412483          	lw	s1,68(sp)
     770:	04012903          	lw	s2,64(sp)
     774:	03c12983          	lw	s3,60(sp)
     778:	03812a03          	lw	s4,56(sp)
     77c:	03412a83          	lw	s5,52(sp)
     780:	03012b03          	lw	s6,48(sp)
     784:	02c12b83          	lw	s7,44(sp)
     788:	02812c03          	lw	s8,40(sp)
     78c:	02412c83          	lw	s9,36(sp)
     790:	02012d03          	lw	s10,32(sp)
     794:	01c12d83          	lw	s11,28(sp)
     798:	05010113          	addi	sp,sp,80
     79c:	00008067          	ret
     7a0:	00004537          	lui	a0,0x4
     7a4:	f1850513          	addi	a0,a0,-232 # 3f18 <c_energy+0x10c>
     7a8:	2c5020ef          	jal	326c <print>
     7ac:	000bc703          	lbu	a4,0(s7)
     7b0:	03000793          	li	a5,48
     7b4:	f8f70ee3          	beq	a4,a5,750 <draw_road+0x148>
     7b8:	000da783          	lw	a5,0(s11)
     7bc:	00178793          	addi	a5,a5,1
     7c0:	00fda023          	sw	a5,0(s11)
     7c4:	f8dff06f          	j	750 <draw_road+0x148>

000007c8 <get_switches_event>:
     7c8:	040007b7          	lui	a5,0x4000
     7cc:	01c7a703          	lw	a4,28(a5) # 400001c <_stack_end+0x3ef680c>
     7d0:	0007ae23          	sw	zero,28(a5)
     7d4:	00200513          	li	a0,2
     7d8:	00177793          	andi	a5,a4,1
     7dc:	00079663          	bnez	a5,7e8 <get_switches_event+0x20>
     7e0:	00975713          	srli	a4,a4,0x9
     7e4:	00177513          	andi	a0,a4,1
     7e8:	00008067          	ret

000007ec <display_krockar>:
     7ec:	00900713          	li	a4,9
     7f0:	0ff00793          	li	a5,255
     7f4:	04a74863          	blt	a4,a0,844 <__heap_size+0x44>
     7f8:	04a05c63          	blez	a0,850 <__heap_size+0x50>
     7fc:	00100793          	li	a5,1
     800:	06f50063          	beq	a0,a5,860 <__heap_size+0x60>
     804:	00200793          	li	a5,2
     808:	06f50063          	beq	a0,a5,868 <__heap_size+0x68>
     80c:	00300793          	li	a5,3
     810:	06f50063          	beq	a0,a5,870 <__heap_size+0x70>
     814:	00400793          	li	a5,4
     818:	06f50063          	beq	a0,a5,878 <__heap_size+0x78>
     81c:	00500793          	li	a5,5
     820:	06f50063          	beq	a0,a5,880 <__heap_size+0x80>
     824:	00600793          	li	a5,6
     828:	06f50063          	beq	a0,a5,888 <__heap_size+0x88>
     82c:	00700793          	li	a5,7
     830:	02f50463          	beq	a0,a5,858 <__heap_size+0x58>
     834:	04e51e63          	bne	a0,a4,890 <__heap_size+0x90>
     838:	20000793          	li	a5,512
     83c:	fff78793          	addi	a5,a5,-1
     840:	0ff7f793          	zext.b	a5,a5
     844:	04000737          	lui	a4,0x4000
     848:	00f70023          	sb	a5,0(a4) # 4000000 <_stack_end+0x3ef67f0>
     84c:	00008067          	ret
     850:	00000793          	li	a5,0
     854:	ff1ff06f          	j	844 <__heap_size+0x44>
     858:	08000793          	li	a5,128
     85c:	fe1ff06f          	j	83c <__heap_size+0x3c>
     860:	00200793          	li	a5,2
     864:	fd9ff06f          	j	83c <__heap_size+0x3c>
     868:	00400793          	li	a5,4
     86c:	fd1ff06f          	j	83c <__heap_size+0x3c>
     870:	00800793          	li	a5,8
     874:	fc9ff06f          	j	83c <__heap_size+0x3c>
     878:	01000793          	li	a5,16
     87c:	fc1ff06f          	j	83c <__heap_size+0x3c>
     880:	02000793          	li	a5,32
     884:	fb9ff06f          	j	83c <__heap_size+0x3c>
     888:	04000793          	li	a5,64
     88c:	fb1ff06f          	j	83c <__heap_size+0x3c>
     890:	10000793          	li	a5,256
     894:	fa9ff06f          	j	83c <__heap_size+0x3c>

00000898 <parkinglot>:
     898:	fe010113          	addi	sp,sp,-32
     89c:	01312623          	sw	s3,12(sp)
     8a0:	00050993          	mv	s3,a0
     8a4:	00004537          	lui	a0,0x4
     8a8:	e1050513          	addi	a0,a0,-496 # 3e10 <c_energy+0x4>
     8ac:	00112e23          	sw	ra,28(sp)
     8b0:	00812c23          	sw	s0,24(sp)
     8b4:	00912a23          	sw	s1,20(sp)
     8b8:	01212823          	sw	s2,16(sp)
     8bc:	01412423          	sw	s4,8(sp)
     8c0:	1ad020ef          	jal	326c <print>
     8c4:	00098513          	mv	a0,s3
     8c8:	00005437          	lui	s0,0x5
     8cc:	b8dff0ef          	jal	458 <print_status>
     8d0:	47040513          	addi	a0,s0,1136 # 5470 <__global_pointer+0xe68>
     8d4:	199020ef          	jal	326c <print>
     8d8:	47040513          	addi	a0,s0,1136
     8dc:	191020ef          	jal	326c <print>
     8e0:	00004537          	lui	a0,0x4
     8e4:	f1c50513          	addi	a0,a0,-228 # 3f1c <c_energy+0x110>
     8e8:	a75ff0ef          	jal	35c <pretty_print>
     8ec:	47040513          	addi	a0,s0,1136
     8f0:	17d020ef          	jal	326c <print>
     8f4:	47040513          	addi	a0,s0,1136
     8f8:	175020ef          	jal	326c <print>
     8fc:	00004537          	lui	a0,0x4
     900:	f6450513          	addi	a0,a0,-156 # 3f64 <c_energy+0x158>
     904:	169020ef          	jal	326c <print>
     908:	00004537          	lui	a0,0x4
     90c:	f8450513          	addi	a0,a0,-124 # 3f84 <c_energy+0x178>
     910:	15d020ef          	jal	326c <print>
     914:	00004537          	lui	a0,0x4
     918:	fa050513          	addi	a0,a0,-96 # 3fa0 <c_energy+0x194>
     91c:	000044b7          	lui	s1,0x4
     920:	14d020ef          	jal	326c <print>
     924:	fc448513          	addi	a0,s1,-60 # 3fc4 <c_energy+0x1b8>
     928:	145020ef          	jal	326c <print>
     92c:	00004537          	lui	a0,0x4
     930:	fe850513          	addi	a0,a0,-24 # 3fe8 <c_energy+0x1dc>
     934:	139020ef          	jal	326c <print>
     938:	fc448513          	addi	a0,s1,-60
     93c:	131020ef          	jal	326c <print>
     940:	00004537          	lui	a0,0x4
     944:	00c50513          	addi	a0,a0,12 # 400c <c_energy+0x200>
     948:	125020ef          	jal	326c <print>
     94c:	00004537          	lui	a0,0x4
     950:	03050513          	addi	a0,a0,48 # 4030 <c_energy+0x224>
     954:	119020ef          	jal	326c <print>
     958:	00004537          	lui	a0,0x4
     95c:	05450513          	addi	a0,a0,84 # 4054 <c_energy+0x248>
     960:	10d020ef          	jal	326c <print>
     964:	00004537          	lui	a0,0x4
     968:	07c50513          	addi	a0,a0,124 # 407c <c_energy+0x270>
     96c:	101020ef          	jal	326c <print>
     970:	00004537          	lui	a0,0x4
     974:	0a050513          	addi	a0,a0,160 # 40a0 <c_energy+0x294>
     978:	0f5020ef          	jal	326c <print>
     97c:	00004537          	lui	a0,0x4
     980:	0c450513          	addi	a0,a0,196 # 40c4 <c_energy+0x2b8>
     984:	0e9020ef          	jal	326c <print>
     988:	47040513          	addi	a0,s0,1136
     98c:	0e1020ef          	jal	326c <print>
     990:	00004537          	lui	a0,0x4
     994:	0ec50513          	addi	a0,a0,236 # 40ec <c_energy+0x2e0>
     998:	9c5ff0ef          	jal	35c <pretty_print>
     99c:	00004537          	lui	a0,0x4
     9a0:	12450513          	addi	a0,a0,292 # 4124 <c_energy+0x318>
     9a4:	040004b7          	lui	s1,0x4000
     9a8:	04000437          	lui	s0,0x4000
     9ac:	9b1ff0ef          	jal	35c <pretty_print>
     9b0:	04000937          	lui	s2,0x4000
     9b4:	01048493          	addi	s1,s1,16 # 4000010 <_stack_end+0x3ef6800>
     9b8:	0d040413          	addi	s0,s0,208 # 40000d0 <_stack_end+0x3ef68c0>
     9bc:	00100a13          	li	s4,1
     9c0:	0004a783          	lw	a5,0(s1)
     9c4:	0037f713          	andi	a4,a5,3
     9c8:	00e90023          	sb	a4,0(s2) # 4000000 <_stack_end+0x3ef67f0>
     9cc:	00044703          	lbu	a4,0(s0)
     9d0:	0037f793          	andi	a5,a5,3
     9d4:	00177713          	andi	a4,a4,1
     9d8:	fe0704e3          	beqz	a4,9c0 <parkinglot+0x128>
     9dc:	0b478e63          	beq	a5,s4,a98 <parkinglot+0x200>
     9e0:	00200713          	li	a4,2
     9e4:	06e79c63          	bne	a5,a4,a5c <parkinglot+0x1c4>
     9e8:	040007b7          	lui	a5,0x4000
     9ec:	02079823          	sh	zero,48(a5) # 4000030 <_stack_end+0x3ef6820>
     9f0:	0307d703          	lhu	a4,48(a5)
     9f4:	00177793          	andi	a5,a4,1
     9f8:	0c078663          	beqz	a5,ac4 <parkinglot+0x22c>
     9fc:	00004537          	lui	a0,0x4
     a00:	1c050513          	addi	a0,a0,448 # 41c0 <c_energy+0x3b4>
     a04:	959ff0ef          	jal	35c <pretty_print>
     a08:	0089a783          	lw	a5,8(s3)
     a0c:	00578793          	addi	a5,a5,5
     a10:	00004537          	lui	a0,0x4
     a14:	00f9a423          	sw	a5,8(s3)
     a18:	26c50513          	addi	a0,a0,620 # 426c <c_energy+0x460>
     a1c:	941ff0ef          	jal	35c <pretty_print>
     a20:	00100793          	li	a5,1
     a24:	02f9a223          	sw	a5,36(s3)
     a28:	00c9a783          	lw	a5,12(s3)
     a2c:	01812403          	lw	s0,24(sp)
     a30:	01c12083          	lw	ra,28(sp)
     a34:	00178793          	addi	a5,a5,1
     a38:	01412483          	lw	s1,20(sp)
     a3c:	01012903          	lw	s2,16(sp)
     a40:	00812a03          	lw	s4,8(sp)
     a44:	00f9a623          	sw	a5,12(s3)
     a48:	00c12983          	lw	s3,12(sp)
     a4c:	00004537          	lui	a0,0x4
     a50:	2a450513          	addi	a0,a0,676 # 42a4 <c_energy+0x498>
     a54:	02010113          	addi	sp,sp,32
     a58:	905ff06f          	j	35c <pretty_print>
     a5c:	00004537          	lui	a0,0x4
     a60:	e2450513          	addi	a0,a0,-476 # 3e24 <c_energy+0x18>
     a64:	009020ef          	jal	326c <print>
     a68:	06400713          	li	a4,100
     a6c:	000077b7          	lui	a5,0x7
     a70:	53078793          	addi	a5,a5,1328 # 7530 <__global_pointer+0x2f28>
     a74:	00000013          	nop
     a78:	fff78793          	addi	a5,a5,-1
     a7c:	fe079ce3          	bnez	a5,a74 <parkinglot+0x1dc>
     a80:	fff70713          	addi	a4,a4,-1
     a84:	fe0714e3          	bnez	a4,a6c <parkinglot+0x1d4>
     a88:	00004537          	lui	a0,0x4
     a8c:	e1850513          	addi	a0,a0,-488 # 3e18 <c_energy+0xc>
     a90:	7dc020ef          	jal	326c <print>
     a94:	f2dff06f          	j	9c0 <parkinglot+0x128>
     a98:	00004537          	lui	a0,0x4
     a9c:	15050513          	addi	a0,a0,336 # 4150 <c_energy+0x344>
     aa0:	8bdff0ef          	jal	35c <pretty_print>
     aa4:	00004537          	lui	a0,0x4
     aa8:	19c50513          	addi	a0,a0,412 # 419c <c_energy+0x390>
     aac:	8b1ff0ef          	jal	35c <pretty_print>
     ab0:	0089a783          	lw	a5,8(s3)
     ab4:	0349a423          	sw	s4,40(s3)
     ab8:	00578793          	addi	a5,a5,5
     abc:	00f9a423          	sw	a5,8(s3)
     ac0:	f69ff06f          	j	a28 <parkinglot+0x190>
     ac4:	00004537          	lui	a0,0x4
     ac8:	21050513          	addi	a0,a0,528 # 4210 <c_energy+0x404>
     acc:	891ff0ef          	jal	35c <pretty_print>
     ad0:	0089a783          	lw	a5,8(s3)
     ad4:	ffb78793          	addi	a5,a5,-5
     ad8:	f39ff06f          	j	a10 <parkinglot+0x178>

00000adc <display_energy>:
     adc:	000047b7          	lui	a5,0x4
     ae0:	e0c7a783          	lw	a5,-500(a5) # 3e0c <c_energy>
     ae4:	00a00693          	li	a3,10
     ae8:	0ff00713          	li	a4,255
     aec:	04f6ce63          	blt	a3,a5,b48 <display_energy+0x6c>
     af0:	06f05263          	blez	a5,b54 <display_energy+0x78>
     af4:	00100713          	li	a4,1
     af8:	06e78663          	beq	a5,a4,b64 <display_energy+0x88>
     afc:	00200713          	li	a4,2
     b00:	06e78663          	beq	a5,a4,b6c <display_energy+0x90>
     b04:	00300713          	li	a4,3
     b08:	06e78663          	beq	a5,a4,b74 <display_energy+0x98>
     b0c:	00400713          	li	a4,4
     b10:	06e78663          	beq	a5,a4,b7c <display_energy+0xa0>
     b14:	00500713          	li	a4,5
     b18:	06e78663          	beq	a5,a4,b84 <display_energy+0xa8>
     b1c:	00600713          	li	a4,6
     b20:	06e78663          	beq	a5,a4,b8c <display_energy+0xb0>
     b24:	00700713          	li	a4,7
     b28:	02e78a63          	beq	a5,a4,b5c <display_energy+0x80>
     b2c:	00800713          	li	a4,8
     b30:	06e78263          	beq	a5,a4,b94 <display_energy+0xb8>
     b34:	00a00713          	li	a4,10
     b38:	06e79263          	bne	a5,a4,b9c <display_energy+0xc0>
     b3c:	40000713          	li	a4,1024
     b40:	fff70713          	addi	a4,a4,-1
     b44:	0ff77713          	zext.b	a4,a4
     b48:	040007b7          	lui	a5,0x4000
     b4c:	00e78023          	sb	a4,0(a5) # 4000000 <_stack_end+0x3ef67f0>
     b50:	00008067          	ret
     b54:	00000713          	li	a4,0
     b58:	ff1ff06f          	j	b48 <display_energy+0x6c>
     b5c:	08000713          	li	a4,128
     b60:	fe1ff06f          	j	b40 <display_energy+0x64>
     b64:	00200713          	li	a4,2
     b68:	fd9ff06f          	j	b40 <display_energy+0x64>
     b6c:	00400713          	li	a4,4
     b70:	fd1ff06f          	j	b40 <display_energy+0x64>
     b74:	00800713          	li	a4,8
     b78:	fc9ff06f          	j	b40 <display_energy+0x64>
     b7c:	01000713          	li	a4,16
     b80:	fc1ff06f          	j	b40 <display_energy+0x64>
     b84:	02000713          	li	a4,32
     b88:	fb9ff06f          	j	b40 <display_energy+0x64>
     b8c:	04000713          	li	a4,64
     b90:	fb1ff06f          	j	b40 <display_energy+0x64>
     b94:	10000713          	li	a4,256
     b98:	fa9ff06f          	j	b40 <display_energy+0x64>
     b9c:	20000713          	li	a4,512
     ba0:	fa1ff06f          	j	b40 <display_energy+0x64>

00000ba4 <print_sak>:
     ba4:	ff010113          	addi	sp,sp,-16
     ba8:	00912223          	sw	s1,4(sp)
     bac:	00050493          	mv	s1,a0
     bb0:	00004537          	lui	a0,0x4
     bb4:	00812423          	sw	s0,8(sp)
     bb8:	e1050513          	addi	a0,a0,-496 # 3e10 <c_energy+0x4>
     bbc:	00003437          	lui	s0,0x3
     bc0:	00112623          	sw	ra,12(sp)
     bc4:	6d440413          	addi	s0,s0,1748 # 36d4 <enemy_lanes>
     bc8:	6a4020ef          	jal	326c <print>
     bcc:	16c42783          	lw	a5,364(s0)
     bd0:	02078063          	beqz	a5,bf0 <print_sak+0x4c>
     bd4:	17040413          	addi	s0,s0,368
     bd8:	0004a503          	lw	a0,0(s1)
     bdc:	00440413          	addi	s0,s0,4
     be0:	00448493          	addi	s1,s1,4
     be4:	688020ef          	jal	326c <print>
     be8:	ffc42783          	lw	a5,-4(s0)
     bec:	fe0796e3          	bnez	a5,bd8 <print_sak+0x34>
     bf0:	00c12083          	lw	ra,12(sp)
     bf4:	00812403          	lw	s0,8(sp)
     bf8:	00412483          	lw	s1,4(sp)
     bfc:	01010113          	addi	sp,sp,16
     c00:	00008067          	ret

00000c04 <set_coffee>:
     c04:	fff00693          	li	a3,-1
     c08:	040007b7          	lui	a5,0x4000
     c0c:	04d78823          	sb	a3,80(a5) # 4000050 <_stack_end+0x3ef6840>
     c10:	04000737          	lui	a4,0x4000
     c14:	06d70023          	sb	a3,96(a4) # 4000060 <_stack_end+0x3ef6850>
     c18:	06d70823          	sb	a3,112(a4)
     c1c:	08d70023          	sb	a3,128(a4)
     c20:	08d70823          	sb	a3,144(a4)
     c24:	000045b7          	lui	a1,0x4
     c28:	0ad70023          	sb	a3,160(a4)
     c2c:	e085a683          	lw	a3,-504(a1) # 3e08 <coffee>
     c30:	05078793          	addi	a5,a5,80
     c34:	04068463          	beqz	a3,c7c <set_coffee+0x78>
     c38:	00100713          	li	a4,1
     c3c:	04e68263          	beq	a3,a4,c80 <set_coffee+0x7c>
     c40:	ff000713          	li	a4,-16
     c44:	00e78023          	sb	a4,0(a5)
     c48:	e085a683          	lw	a3,-504(a1)
     c4c:	00200713          	li	a4,2
     c50:	02d75263          	bge	a4,a3,c74 <set_coffee+0x70>
     c54:	00300713          	li	a4,3
     c58:	ff600513          	li	a0,-10
     c5c:	00a78823          	sb	a0,16(a5)
     c60:	e085a603          	lw	a2,-504(a1)
     c64:	00070693          	mv	a3,a4
     c68:	01078793          	addi	a5,a5,16
     c6c:	00170713          	addi	a4,a4,1
     c70:	fec6c6e3          	blt	a3,a2,c5c <set_coffee+0x58>
     c74:	fc600713          	li	a4,-58
     c78:	00e78823          	sb	a4,16(a5)
     c7c:	00008067          	ret
     c80:	fc000713          	li	a4,-64
     c84:	00e78023          	sb	a4,0(a5)
     c88:	00008067          	ret

00000c8c <coffee_game>:
     c8c:	fc010113          	addi	sp,sp,-64
     c90:	03312623          	sw	s3,44(sp)
     c94:	00050993          	mv	s3,a0
     c98:	00004537          	lui	a0,0x4
     c9c:	2e450513          	addi	a0,a0,740 # 42e4 <c_energy+0x4d8>
     ca0:	02112e23          	sw	ra,60(sp)
     ca4:	02812c23          	sw	s0,56(sp)
     ca8:	02912a23          	sw	s1,52(sp)
     cac:	03212823          	sw	s2,48(sp)
     cb0:	03412423          	sw	s4,40(sp)
     cb4:	03512223          	sw	s5,36(sp)
     cb8:	03612023          	sw	s6,32(sp)
     cbc:	01712e23          	sw	s7,28(sp)
     cc0:	01812c23          	sw	s8,24(sp)
     cc4:	01912a23          	sw	s9,20(sp)
     cc8:	01a12823          	sw	s10,16(sp)
     ccc:	01b12623          	sw	s11,12(sp)
     cd0:	e8cff0ef          	jal	35c <pretty_print>
     cd4:	fff00693          	li	a3,-1
     cd8:	040007b7          	lui	a5,0x4000
     cdc:	04d78823          	sb	a3,80(a5) # 4000050 <_stack_end+0x3ef6840>
     ce0:	04000737          	lui	a4,0x4000
     ce4:	06d70023          	sb	a3,96(a4) # 4000060 <_stack_end+0x3ef6850>
     ce8:	06d70823          	sb	a3,112(a4)
     cec:	08d70023          	sb	a3,128(a4)
     cf0:	08d70823          	sb	a3,144(a4)
     cf4:	00004637          	lui	a2,0x4
     cf8:	0ad70023          	sb	a3,160(a4)
     cfc:	e0862683          	lw	a3,-504(a2) # 3e08 <coffee>
     d00:	04068663          	beqz	a3,d4c <coffee_game+0xc0>
     d04:	00100713          	li	a4,1
     d08:	05078793          	addi	a5,a5,80
     d0c:	4ce684e3          	beq	a3,a4,19d4 <coffee_game+0xd48>
     d10:	ff000713          	li	a4,-16
     d14:	00e78023          	sb	a4,0(a5)
     d18:	e0862683          	lw	a3,-504(a2)
     d1c:	00200713          	li	a4,2
     d20:	02d75263          	bge	a4,a3,d44 <coffee_game+0xb8>
     d24:	00300713          	li	a4,3
     d28:	ff600693          	li	a3,-10
     d2c:	00d78823          	sb	a3,16(a5)
     d30:	e0862503          	lw	a0,-504(a2)
     d34:	00070593          	mv	a1,a4
     d38:	01078793          	addi	a5,a5,16
     d3c:	00170713          	addi	a4,a4,1
     d40:	fea5c6e3          	blt	a1,a0,d2c <coffee_game+0xa0>
     d44:	fc600713          	li	a4,-58
     d48:	00e78823          	sb	a4,16(a5)
     d4c:	00004537          	lui	a0,0x4
     d50:	37450513          	addi	a0,a0,884 # 4374 <c_energy+0x568>
     d54:	e08ff0ef          	jal	35c <pretty_print>
     d58:	00004937          	lui	s2,0x4
     d5c:	e0c92703          	lw	a4,-500(s2) # 3e0c <c_energy>
     d60:	00a00693          	li	a3,10
     d64:	0ff00793          	li	a5,255
     d68:	04e6ce63          	blt	a3,a4,dc4 <coffee_game+0x138>
     d6c:	46e05ae3          	blez	a4,19e0 <coffee_game+0xd54>
     d70:	00100793          	li	a5,1
     d74:	50f70ee3          	beq	a4,a5,1a90 <coffee_game+0xe04>
     d78:	00200793          	li	a5,2
     d7c:	50f70ee3          	beq	a4,a5,1a98 <coffee_game+0xe0c>
     d80:	00300793          	li	a5,3
     d84:	50f70ee3          	beq	a4,a5,1aa0 <coffee_game+0xe14>
     d88:	00400793          	li	a5,4
     d8c:	50f70ee3          	beq	a4,a5,1aa8 <coffee_game+0xe1c>
     d90:	00500793          	li	a5,5
     d94:	50f70ee3          	beq	a4,a5,1ab0 <coffee_game+0xe24>
     d98:	00600793          	li	a5,6
     d9c:	50f70ee3          	beq	a4,a5,1ab8 <coffee_game+0xe2c>
     da0:	00700793          	li	a5,7
     da4:	44f70ae3          	beq	a4,a5,19f8 <coffee_game+0xd6c>
     da8:	00800793          	li	a5,8
     dac:	50f70ee3          	beq	a4,a5,1ac8 <coffee_game+0xe3c>
     db0:	00a00793          	li	a5,10
     db4:	50f716e3          	bne	a4,a5,1ac0 <coffee_game+0xe34>
     db8:	40000793          	li	a5,1024
     dbc:	fff78793          	addi	a5,a5,-1
     dc0:	0ff7f793          	zext.b	a5,a5
     dc4:	04000737          	lui	a4,0x4000
     dc8:	00004537          	lui	a0,0x4
     dcc:	00f70023          	sb	a5,0(a4) # 4000000 <_stack_end+0x3ef67f0>
     dd0:	3e850513          	addi	a0,a0,1000 # 43e8 <c_energy+0x5dc>
     dd4:	d88ff0ef          	jal	35c <pretty_print>
     dd8:	12c00713          	li	a4,300
     ddc:	000077b7          	lui	a5,0x7
     de0:	53078793          	addi	a5,a5,1328 # 7530 <__global_pointer+0x2f28>
     de4:	00000013          	nop
     de8:	fff78793          	addi	a5,a5,-1
     dec:	fe079ce3          	bnez	a5,de4 <coffee_game+0x158>
     df0:	fff70713          	addi	a4,a4,-1
     df4:	fe0714e3          	bnez	a4,ddc <coffee_game+0x150>
     df8:	000044b7          	lui	s1,0x4
     dfc:	e1048513          	addi	a0,s1,-496 # 3e10 <c_energy+0x4>
     e00:	00003437          	lui	s0,0x3
     e04:	468020ef          	jal	326c <print>
     e08:	6d440413          	addi	s0,s0,1748 # 36d4 <enemy_lanes>
     e0c:	16c42783          	lw	a5,364(s0)
     e10:	00078e63          	beqz	a5,e2c <coffee_game+0x1a0>
     e14:	16c40a13          	addi	s4,s0,364
     e18:	000a2503          	lw	a0,0(s4)
     e1c:	004a0a13          	addi	s4,s4,4
     e20:	44c020ef          	jal	326c <print>
     e24:	000a2783          	lw	a5,0(s4)
     e28:	fe0798e3          	bnez	a5,e18 <coffee_game+0x18c>
     e2c:	3e800713          	li	a4,1000
     e30:	000077b7          	lui	a5,0x7
     e34:	53078793          	addi	a5,a5,1328 # 7530 <__global_pointer+0x2f28>
     e38:	00000013          	nop
     e3c:	fff78793          	addi	a5,a5,-1
     e40:	fe079ce3          	bnez	a5,e38 <coffee_game+0x1ac>
     e44:	fff70713          	addi	a4,a4,-1
     e48:	fe0714e3          	bnez	a4,e30 <coffee_game+0x1a4>
     e4c:	040007b7          	lui	a5,0x4000
     e50:	04000737          	lui	a4,0x4000
     e54:	0007ae23          	sw	zero,28(a5) # 400001c <_stack_end+0x3ef680c>
     e58:	00100693          	li	a3,1
     e5c:	00d72c23          	sw	a3,24(a4) # 4000018 <_stack_end+0x3ef6808>
     e60:	b20ff0ef          	jal	180 <enable_interrupts>
     e64:	00f00a13          	li	s4,15
     e68:	00a00a93          	li	s5,10
     e6c:	00100d93          	li	s11,1
     e70:	00200d13          	li	s10,2
     e74:	00300c93          	li	s9,3
     e78:	00400c13          	li	s8,4
     e7c:	e1048513          	addi	a0,s1,-496
     e80:	3ec020ef          	jal	326c <print>
     e84:	16c42683          	lw	a3,364(s0)
     e88:	20040b93          	addi	s7,s0,512
     e8c:	17040b13          	addi	s6,s0,368
     e90:	00068e63          	beqz	a3,eac <coffee_game+0x220>
     e94:	000ba503          	lw	a0,0(s7)
     e98:	004b0b13          	addi	s6,s6,4
     e9c:	004b8b93          	addi	s7,s7,4
     ea0:	3cc020ef          	jal	326c <print>
     ea4:	ffcb2683          	lw	a3,-4(s6)
     ea8:	fe0696e3          	bnez	a3,e94 <coffee_game+0x208>
     eac:	06400713          	li	a4,100
     eb0:	000077b7          	lui	a5,0x7
     eb4:	53078793          	addi	a5,a5,1328 # 7530 <__global_pointer+0x2f28>
     eb8:	00000013          	nop
     ebc:	fff78793          	addi	a5,a5,-1
     ec0:	fe079ce3          	bnez	a5,eb8 <coffee_game+0x22c>
     ec4:	fff70713          	addi	a4,a4,-1
     ec8:	fe0714e3          	bnez	a4,eb0 <coffee_game+0x224>
     ecc:	e1048513          	addi	a0,s1,-496
     ed0:	39c020ef          	jal	326c <print>
     ed4:	16c42683          	lw	a3,364(s0)
     ed8:	29440b93          	addi	s7,s0,660
     edc:	17040b13          	addi	s6,s0,368
     ee0:	00068e63          	beqz	a3,efc <coffee_game+0x270>
     ee4:	000ba503          	lw	a0,0(s7)
     ee8:	004b0b13          	addi	s6,s6,4
     eec:	004b8b93          	addi	s7,s7,4
     ef0:	37c020ef          	jal	326c <print>
     ef4:	ffcb2683          	lw	a3,-4(s6)
     ef8:	fe0696e3          	bnez	a3,ee4 <coffee_game+0x258>
     efc:	06400713          	li	a4,100
     f00:	000077b7          	lui	a5,0x7
     f04:	53078793          	addi	a5,a5,1328 # 7530 <__global_pointer+0x2f28>
     f08:	00000013          	nop
     f0c:	fff78793          	addi	a5,a5,-1
     f10:	fe079ce3          	bnez	a5,f08 <coffee_game+0x27c>
     f14:	fff70713          	addi	a4,a4,-1
     f18:	fe0714e3          	bnez	a4,f00 <coffee_game+0x274>
     f1c:	e1048513          	addi	a0,s1,-496
     f20:	34c020ef          	jal	326c <print>
     f24:	16c42683          	lw	a3,364(s0)
     f28:	32840b93          	addi	s7,s0,808
     f2c:	17040b13          	addi	s6,s0,368
     f30:	00068e63          	beqz	a3,f4c <coffee_game+0x2c0>
     f34:	000ba503          	lw	a0,0(s7)
     f38:	004b0b13          	addi	s6,s6,4
     f3c:	004b8b93          	addi	s7,s7,4
     f40:	32c020ef          	jal	326c <print>
     f44:	ffcb2683          	lw	a3,-4(s6)
     f48:	fe0696e3          	bnez	a3,f34 <coffee_game+0x2a8>
     f4c:	06400713          	li	a4,100
     f50:	000077b7          	lui	a5,0x7
     f54:	53078793          	addi	a5,a5,1328 # 7530 <__global_pointer+0x2f28>
     f58:	00000013          	nop
     f5c:	fff78793          	addi	a5,a5,-1
     f60:	fe079ce3          	bnez	a5,f58 <coffee_game+0x2cc>
     f64:	fff70713          	addi	a4,a4,-1
     f68:	fe0714e3          	bnez	a4,f50 <coffee_game+0x2c4>
     f6c:	e1048513          	addi	a0,s1,-496
     f70:	2fc020ef          	jal	326c <print>
     f74:	16c42683          	lw	a3,364(s0)
     f78:	3bc40b93          	addi	s7,s0,956
     f7c:	17040b13          	addi	s6,s0,368
     f80:	00068e63          	beqz	a3,f9c <coffee_game+0x310>
     f84:	000ba503          	lw	a0,0(s7)
     f88:	004b0b13          	addi	s6,s6,4
     f8c:	004b8b93          	addi	s7,s7,4
     f90:	2dc020ef          	jal	326c <print>
     f94:	ffcb2683          	lw	a3,-4(s6)
     f98:	fe0696e3          	bnez	a3,f84 <coffee_game+0x2f8>
     f9c:	e0c92703          	lw	a4,-500(s2)
     fa0:	0ff00793          	li	a5,255
     fa4:	fff70713          	addi	a4,a4,-1
     fa8:	e0e92623          	sw	a4,-500(s2)
     fac:	04eac463          	blt	s5,a4,ff4 <coffee_game+0x368>
     fb0:	08e052e3          	blez	a4,1834 <coffee_game+0xba8>
     fb4:	07b70ce3          	beq	a4,s11,182c <coffee_game+0xba0>
     fb8:	07a706e3          	beq	a4,s10,1824 <coffee_game+0xb98>
     fbc:	13970ce3          	beq	a4,s9,18f4 <coffee_game+0xc68>
     fc0:	138706e3          	beq	a4,s8,18ec <coffee_game+0xc60>
     fc4:	00500793          	li	a5,5
     fc8:	20f702e3          	beq	a4,a5,19cc <coffee_game+0xd40>
     fcc:	00600793          	li	a5,6
     fd0:	1ef70ae3          	beq	a4,a5,19c4 <coffee_game+0xd38>
     fd4:	00700793          	li	a5,7
     fd8:	1ef702e3          	beq	a4,a5,19bc <coffee_game+0xd30>
     fdc:	00800793          	li	a5,8
     fe0:	1cf70ae3          	beq	a4,a5,19b4 <coffee_game+0xd28>
     fe4:	1d5714e3          	bne	a4,s5,19ac <coffee_game+0xd20>
     fe8:	40000793          	li	a5,1024
     fec:	fff78793          	addi	a5,a5,-1
     ff0:	0ff7f793          	zext.b	a5,a5
     ff4:	04000737          	lui	a4,0x4000
     ff8:	00f70023          	sb	a5,0(a4) # 4000000 <_stack_end+0x3ef67f0>
     ffc:	09600713          	li	a4,150
    1000:	000077b7          	lui	a5,0x7
    1004:	53078793          	addi	a5,a5,1328 # 7530 <__global_pointer+0x2f28>
    1008:	00000013          	nop
    100c:	fff78793          	addi	a5,a5,-1
    1010:	fe079ce3          	bnez	a5,1008 <coffee_game+0x37c>
    1014:	fff70713          	addi	a4,a4,-1
    1018:	fe0714e3          	bnez	a4,1000 <coffee_game+0x374>
    101c:	fffa0a13          	addi	s4,s4,-1
    1020:	e40a1ee3          	bnez	s4,e7c <coffee_game+0x1f0>
    1024:	e1048513          	addi	a0,s1,-496
    1028:	244020ef          	jal	326c <print>
    102c:	16c42783          	lw	a5,364(s0)
    1030:	45040a93          	addi	s5,s0,1104
    1034:	17040a13          	addi	s4,s0,368
    1038:	00078e63          	beqz	a5,1054 <coffee_game+0x3c8>
    103c:	000aa503          	lw	a0,0(s5)
    1040:	004a0a13          	addi	s4,s4,4
    1044:	004a8a93          	addi	s5,s5,4
    1048:	224020ef          	jal	326c <print>
    104c:	ffca2783          	lw	a5,-4(s4)
    1050:	fe0796e3          	bnez	a5,103c <coffee_game+0x3b0>
    1054:	00004537          	lui	a0,0x4
    1058:	41c50513          	addi	a0,a0,1052 # 441c <c_energy+0x610>
    105c:	b00ff0ef          	jal	35c <pretty_print>
    1060:	e0c92703          	lw	a4,-500(s2)
    1064:	00900693          	li	a3,9
    1068:	00370793          	addi	a5,a4,3
    106c:	00e6d463          	bge	a3,a4,1074 <coffee_game+0x3e8>
    1070:	00a00793          	li	a5,10
    1074:	00004537          	lui	a0,0x4
    1078:	45c50513          	addi	a0,a0,1116 # 445c <c_energy+0x650>
    107c:	e0f92623          	sw	a5,-500(s2)
    1080:	adcff0ef          	jal	35c <pretty_print>
    1084:	e0c92703          	lw	a4,-500(s2)
    1088:	00a00693          	li	a3,10
    108c:	0ff00793          	li	a5,255
    1090:	04e6ce63          	blt	a3,a4,10ec <coffee_game+0x460>
    1094:	14e05ae3          	blez	a4,19e8 <coffee_game+0xd5c>
    1098:	00100793          	li	a5,1
    109c:	1af706e3          	beq	a4,a5,1a48 <coffee_game+0xdbc>
    10a0:	00200793          	li	a5,2
    10a4:	1af706e3          	beq	a4,a5,1a50 <coffee_game+0xdc4>
    10a8:	00300793          	li	a5,3
    10ac:	1af706e3          	beq	a4,a5,1a58 <coffee_game+0xdcc>
    10b0:	00400793          	li	a5,4
    10b4:	1af706e3          	beq	a4,a5,1a60 <coffee_game+0xdd4>
    10b8:	00500793          	li	a5,5
    10bc:	1af706e3          	beq	a4,a5,1a68 <coffee_game+0xddc>
    10c0:	00600793          	li	a5,6
    10c4:	1af706e3          	beq	a4,a5,1a70 <coffee_game+0xde4>
    10c8:	00700793          	li	a5,7
    10cc:	1af70ee3          	beq	a4,a5,1a88 <coffee_game+0xdfc>
    10d0:	00800793          	li	a5,8
    10d4:	1af706e3          	beq	a4,a5,1a80 <coffee_game+0xdf4>
    10d8:	00a00793          	li	a5,10
    10dc:	18f71ee3          	bne	a4,a5,1a78 <coffee_game+0xdec>
    10e0:	40000793          	li	a5,1024
    10e4:	fff78793          	addi	a5,a5,-1
    10e8:	0ff7f793          	zext.b	a5,a5
    10ec:	04000737          	lui	a4,0x4000
    10f0:	00f70023          	sb	a5,0(a4) # 4000000 <_stack_end+0x3ef67f0>
    10f4:	00c00a93          	li	s5,12
    10f8:	00004a37          	lui	s4,0x4
    10fc:	00a00b13          	li	s6,10
    1100:	00100d93          	li	s11,1
    1104:	00200d13          	li	s10,2
    1108:	00300c93          	li	s9,3
    110c:	e1048513          	addi	a0,s1,-496
    1110:	15c020ef          	jal	326c <print>
    1114:	16c42683          	lw	a3,364(s0)
    1118:	20040c13          	addi	s8,s0,512
    111c:	17040b93          	addi	s7,s0,368
    1120:	00068e63          	beqz	a3,113c <coffee_game+0x4b0>
    1124:	000c2503          	lw	a0,0(s8)
    1128:	004b8b93          	addi	s7,s7,4
    112c:	004c0c13          	addi	s8,s8,4
    1130:	13c020ef          	jal	326c <print>
    1134:	ffcba683          	lw	a3,-4(s7)
    1138:	fe0696e3          	bnez	a3,1124 <coffee_game+0x498>
    113c:	488a0513          	addi	a0,s4,1160 # 4488 <c_energy+0x67c>
    1140:	12c020ef          	jal	326c <print>
    1144:	06400713          	li	a4,100
    1148:	000077b7          	lui	a5,0x7
    114c:	53078793          	addi	a5,a5,1328 # 7530 <__global_pointer+0x2f28>
    1150:	00000013          	nop
    1154:	fff78793          	addi	a5,a5,-1
    1158:	fe079ce3          	bnez	a5,1150 <coffee_game+0x4c4>
    115c:	fff70713          	addi	a4,a4,-1
    1160:	fe0714e3          	bnez	a4,1148 <coffee_game+0x4bc>
    1164:	e1048513          	addi	a0,s1,-496
    1168:	104020ef          	jal	326c <print>
    116c:	16c42683          	lw	a3,364(s0)
    1170:	29440c13          	addi	s8,s0,660
    1174:	17040b93          	addi	s7,s0,368
    1178:	00068e63          	beqz	a3,1194 <coffee_game+0x508>
    117c:	000c2503          	lw	a0,0(s8)
    1180:	004b8b93          	addi	s7,s7,4
    1184:	004c0c13          	addi	s8,s8,4
    1188:	0e4020ef          	jal	326c <print>
    118c:	ffcba683          	lw	a3,-4(s7)
    1190:	fe0696e3          	bnez	a3,117c <coffee_game+0x4f0>
    1194:	488a0513          	addi	a0,s4,1160
    1198:	0d4020ef          	jal	326c <print>
    119c:	06400713          	li	a4,100
    11a0:	000077b7          	lui	a5,0x7
    11a4:	53078793          	addi	a5,a5,1328 # 7530 <__global_pointer+0x2f28>
    11a8:	00000013          	nop
    11ac:	fff78793          	addi	a5,a5,-1
    11b0:	fe079ce3          	bnez	a5,11a8 <coffee_game+0x51c>
    11b4:	fff70713          	addi	a4,a4,-1
    11b8:	fe0714e3          	bnez	a4,11a0 <coffee_game+0x514>
    11bc:	e1048513          	addi	a0,s1,-496
    11c0:	0ac020ef          	jal	326c <print>
    11c4:	16c42683          	lw	a3,364(s0)
    11c8:	32840c13          	addi	s8,s0,808
    11cc:	17040b93          	addi	s7,s0,368
    11d0:	00068e63          	beqz	a3,11ec <coffee_game+0x560>
    11d4:	000c2503          	lw	a0,0(s8)
    11d8:	004b8b93          	addi	s7,s7,4
    11dc:	004c0c13          	addi	s8,s8,4
    11e0:	08c020ef          	jal	326c <print>
    11e4:	ffcba683          	lw	a3,-4(s7)
    11e8:	fe0696e3          	bnez	a3,11d4 <coffee_game+0x548>
    11ec:	488a0513          	addi	a0,s4,1160
    11f0:	07c020ef          	jal	326c <print>
    11f4:	06400713          	li	a4,100
    11f8:	000077b7          	lui	a5,0x7
    11fc:	53078793          	addi	a5,a5,1328 # 7530 <__global_pointer+0x2f28>
    1200:	00000013          	nop
    1204:	fff78793          	addi	a5,a5,-1
    1208:	fe079ce3          	bnez	a5,1200 <coffee_game+0x574>
    120c:	fff70713          	addi	a4,a4,-1
    1210:	fe0714e3          	bnez	a4,11f8 <coffee_game+0x56c>
    1214:	e1048513          	addi	a0,s1,-496
    1218:	054020ef          	jal	326c <print>
    121c:	16c42683          	lw	a3,364(s0)
    1220:	3bc40c13          	addi	s8,s0,956
    1224:	17040b93          	addi	s7,s0,368
    1228:	00068e63          	beqz	a3,1244 <coffee_game+0x5b8>
    122c:	000c2503          	lw	a0,0(s8)
    1230:	004b8b93          	addi	s7,s7,4
    1234:	004c0c13          	addi	s8,s8,4
    1238:	034020ef          	jal	326c <print>
    123c:	ffcba683          	lw	a3,-4(s7)
    1240:	fe0696e3          	bnez	a3,122c <coffee_game+0x5a0>
    1244:	488a0513          	addi	a0,s4,1160
    1248:	024020ef          	jal	326c <print>
    124c:	e0c92703          	lw	a4,-500(s2)
    1250:	0ff00793          	li	a5,255
    1254:	fff70713          	addi	a4,a4,-1
    1258:	e0e92623          	sw	a4,-500(s2)
    125c:	04eb4663          	blt	s6,a4,12a8 <coffee_game+0x61c>
    1260:	5ce05e63          	blez	a4,183c <coffee_game+0xbb0>
    1264:	69b70063          	beq	a4,s11,18e4 <coffee_game+0xc58>
    1268:	69a70a63          	beq	a4,s10,18fc <coffee_game+0xc70>
    126c:	73970c63          	beq	a4,s9,19a4 <coffee_game+0xd18>
    1270:	00400793          	li	a5,4
    1274:	72f70463          	beq	a4,a5,199c <coffee_game+0xd10>
    1278:	00500793          	li	a5,5
    127c:	70f70c63          	beq	a4,a5,1994 <coffee_game+0xd08>
    1280:	00600793          	li	a5,6
    1284:	70f70463          	beq	a4,a5,198c <coffee_game+0xd00>
    1288:	00700793          	li	a5,7
    128c:	6ef70c63          	beq	a4,a5,1984 <coffee_game+0xcf8>
    1290:	00800793          	li	a5,8
    1294:	6ef70463          	beq	a4,a5,197c <coffee_game+0xcf0>
    1298:	6d671e63          	bne	a4,s6,1974 <coffee_game+0xce8>
    129c:	40000793          	li	a5,1024
    12a0:	fff78793          	addi	a5,a5,-1
    12a4:	0ff7f793          	zext.b	a5,a5
    12a8:	04000737          	lui	a4,0x4000
    12ac:	00f70023          	sb	a5,0(a4) # 4000000 <_stack_end+0x3ef67f0>
    12b0:	09600713          	li	a4,150
    12b4:	000077b7          	lui	a5,0x7
    12b8:	53078793          	addi	a5,a5,1328 # 7530 <__global_pointer+0x2f28>
    12bc:	00000013          	nop
    12c0:	fff78793          	addi	a5,a5,-1
    12c4:	fe079ce3          	bnez	a5,12bc <coffee_game+0x630>
    12c8:	fff70713          	addi	a4,a4,-1
    12cc:	fe0714e3          	bnez	a4,12b4 <coffee_game+0x628>
    12d0:	fffa8a93          	addi	s5,s5,-1
    12d4:	e20a9ce3          	bnez	s5,110c <coffee_game+0x480>
    12d8:	e1048513          	addi	a0,s1,-496
    12dc:	791010ef          	jal	326c <print>
    12e0:	16c42783          	lw	a5,364(s0)
    12e4:	4e440b13          	addi	s6,s0,1252
    12e8:	17040a93          	addi	s5,s0,368
    12ec:	00078e63          	beqz	a5,1308 <coffee_game+0x67c>
    12f0:	000b2503          	lw	a0,0(s6)
    12f4:	004a8a93          	addi	s5,s5,4
    12f8:	004b0b13          	addi	s6,s6,4
    12fc:	771010ef          	jal	326c <print>
    1300:	ffcaa783          	lw	a5,-4(s5)
    1304:	fe0796e3          	bnez	a5,12f0 <coffee_game+0x664>
    1308:	00004537          	lui	a0,0x4
    130c:	49c50513          	addi	a0,a0,1180 # 449c <c_energy+0x690>
    1310:	84cff0ef          	jal	35c <pretty_print>
    1314:	e0c92703          	lw	a4,-500(s2)
    1318:	01500613          	li	a2,21
    131c:	0ff00793          	li	a5,255
    1320:	01f75693          	srli	a3,a4,0x1f
    1324:	00e686b3          	add	a3,a3,a4
    1328:	4016d693          	srai	a3,a3,0x1
    132c:	e0d92623          	sw	a3,-500(s2)
    1330:	06e64063          	blt	a2,a4,1390 <coffee_game+0x704>
    1334:	00100793          	li	a5,1
    1338:	6ae7dc63          	bge	a5,a4,19f0 <coffee_game+0xd64>
    133c:	00300793          	li	a5,3
    1340:	6ce7d063          	bge	a5,a4,1a00 <coffee_game+0xd74>
    1344:	00500793          	li	a5,5
    1348:	6ce7d063          	bge	a5,a4,1a08 <coffee_game+0xd7c>
    134c:	00700793          	li	a5,7
    1350:	6ce7d063          	bge	a5,a4,1a10 <coffee_game+0xd84>
    1354:	00900793          	li	a5,9
    1358:	6ce7d063          	bge	a5,a4,1a18 <coffee_game+0xd8c>
    135c:	00b00793          	li	a5,11
    1360:	6ce7d063          	bge	a5,a4,1a20 <coffee_game+0xd94>
    1364:	00d00793          	li	a5,13
    1368:	6ce7d063          	bge	a5,a4,1a28 <coffee_game+0xd9c>
    136c:	00f00793          	li	a5,15
    1370:	6ce7d863          	bge	a5,a4,1a40 <coffee_game+0xdb4>
    1374:	01100793          	li	a5,17
    1378:	6ce7d063          	bge	a5,a4,1a38 <coffee_game+0xdac>
    137c:	01300793          	li	a5,19
    1380:	6ae7d863          	bge	a5,a4,1a30 <coffee_game+0xda4>
    1384:	40000793          	li	a5,1024
    1388:	fff78793          	addi	a5,a5,-1
    138c:	0ff7f793          	zext.b	a5,a5
    1390:	04000737          	lui	a4,0x4000
    1394:	00f70023          	sb	a5,0(a4) # 4000000 <_stack_end+0x3ef67f0>
    1398:	e1048513          	addi	a0,s1,-496
    139c:	6d1010ef          	jal	326c <print>
    13a0:	16c42783          	lw	a5,364(s0)
    13a4:	00078e63          	beqz	a5,13c0 <coffee_game+0x734>
    13a8:	16c40a93          	addi	s5,s0,364
    13ac:	000aa503          	lw	a0,0(s5)
    13b0:	004a8a93          	addi	s5,s5,4
    13b4:	6b9010ef          	jal	326c <print>
    13b8:	000aa783          	lw	a5,0(s5)
    13bc:	fe0798e3          	bnez	a5,13ac <coffee_game+0x720>
    13c0:	00004537          	lui	a0,0x4
    13c4:	51c50513          	addi	a0,a0,1308 # 451c <c_energy+0x710>
    13c8:	f95fe0ef          	jal	35c <pretty_print>
    13cc:	01c9a783          	lw	a5,28(s3)
    13d0:	50078063          	beqz	a5,18d0 <coffee_game+0xc44>
    13d4:	00004537          	lui	a0,0x4
    13d8:	54450513          	addi	a0,a0,1348 # 4544 <c_energy+0x738>
    13dc:	f81fe0ef          	jal	35c <pretty_print>
    13e0:	00004537          	lui	a0,0x4
    13e4:	58450513          	addi	a0,a0,1412 # 4584 <c_energy+0x778>
    13e8:	f75fe0ef          	jal	35c <pretty_print>
    13ec:	00000d93          	li	s11,0
    13f0:	09600713          	li	a4,150
    13f4:	000077b7          	lui	a5,0x7
    13f8:	53078793          	addi	a5,a5,1328 # 7530 <__global_pointer+0x2f28>
    13fc:	00000013          	nop
    1400:	fff78793          	addi	a5,a5,-1
    1404:	fe079ce3          	bnez	a5,13fc <coffee_game+0x770>
    1408:	fff70713          	addi	a4,a4,-1
    140c:	fe0714e3          	bnez	a4,13f4 <coffee_game+0x768>
    1410:	00c00b13          	li	s6,12
    1414:	00a00a93          	li	s5,10
    1418:	00100d13          	li	s10,1
    141c:	00200c93          	li	s9,2
    1420:	e1048513          	addi	a0,s1,-496
    1424:	649010ef          	jal	326c <print>
    1428:	16c42683          	lw	a3,364(s0)
    142c:	20040c13          	addi	s8,s0,512
    1430:	17040b93          	addi	s7,s0,368
    1434:	00068e63          	beqz	a3,1450 <coffee_game+0x7c4>
    1438:	000c2503          	lw	a0,0(s8)
    143c:	004b8b93          	addi	s7,s7,4
    1440:	004c0c13          	addi	s8,s8,4
    1444:	629010ef          	jal	326c <print>
    1448:	ffcba683          	lw	a3,-4(s7)
    144c:	fe0696e3          	bnez	a3,1438 <coffee_game+0x7ac>
    1450:	488a0513          	addi	a0,s4,1160
    1454:	619010ef          	jal	326c <print>
    1458:	06400713          	li	a4,100
    145c:	000077b7          	lui	a5,0x7
    1460:	53078793          	addi	a5,a5,1328 # 7530 <__global_pointer+0x2f28>
    1464:	00000013          	nop
    1468:	fff78793          	addi	a5,a5,-1
    146c:	fe079ce3          	bnez	a5,1464 <coffee_game+0x7d8>
    1470:	fff70713          	addi	a4,a4,-1
    1474:	fe0714e3          	bnez	a4,145c <coffee_game+0x7d0>
    1478:	e1048513          	addi	a0,s1,-496
    147c:	5f1010ef          	jal	326c <print>
    1480:	16c42683          	lw	a3,364(s0)
    1484:	29440c13          	addi	s8,s0,660
    1488:	17040b93          	addi	s7,s0,368
    148c:	00068e63          	beqz	a3,14a8 <coffee_game+0x81c>
    1490:	000c2503          	lw	a0,0(s8)
    1494:	004b8b93          	addi	s7,s7,4
    1498:	004c0c13          	addi	s8,s8,4
    149c:	5d1010ef          	jal	326c <print>
    14a0:	ffcba683          	lw	a3,-4(s7)
    14a4:	fe0696e3          	bnez	a3,1490 <coffee_game+0x804>
    14a8:	488a0513          	addi	a0,s4,1160
    14ac:	5c1010ef          	jal	326c <print>
    14b0:	06400713          	li	a4,100
    14b4:	000077b7          	lui	a5,0x7
    14b8:	53078793          	addi	a5,a5,1328 # 7530 <__global_pointer+0x2f28>
    14bc:	00000013          	nop
    14c0:	fff78793          	addi	a5,a5,-1
    14c4:	fe079ce3          	bnez	a5,14bc <coffee_game+0x830>
    14c8:	fff70713          	addi	a4,a4,-1
    14cc:	fe0714e3          	bnez	a4,14b4 <coffee_game+0x828>
    14d0:	e0c92703          	lw	a4,-500(s2)
    14d4:	000d8663          	beqz	s11,14e0 <coffee_game+0x854>
    14d8:	fff70713          	addi	a4,a4,-1
    14dc:	e0e92623          	sw	a4,-500(s2)
    14e0:	0ff00793          	li	a5,255
    14e4:	04eac863          	blt	s5,a4,1534 <coffee_game+0x8a8>
    14e8:	36e05263          	blez	a4,184c <coffee_game+0xbc0>
    14ec:	3da70e63          	beq	a4,s10,18c8 <coffee_game+0xc3c>
    14f0:	3d970063          	beq	a4,s9,18b0 <coffee_game+0xc24>
    14f4:	00300793          	li	a5,3
    14f8:	46f70a63          	beq	a4,a5,196c <coffee_game+0xce0>
    14fc:	00400793          	li	a5,4
    1500:	46f70263          	beq	a4,a5,1964 <coffee_game+0xcd8>
    1504:	00500793          	li	a5,5
    1508:	44f70a63          	beq	a4,a5,195c <coffee_game+0xcd0>
    150c:	00600793          	li	a5,6
    1510:	44f70263          	beq	a4,a5,1954 <coffee_game+0xcc8>
    1514:	00700793          	li	a5,7
    1518:	42f70a63          	beq	a4,a5,194c <coffee_game+0xcc0>
    151c:	00800793          	li	a5,8
    1520:	42f70263          	beq	a4,a5,1944 <coffee_game+0xcb8>
    1524:	41571c63          	bne	a4,s5,193c <coffee_game+0xcb0>
    1528:	40000793          	li	a5,1024
    152c:	fff78793          	addi	a5,a5,-1
    1530:	0ff7f793          	zext.b	a5,a5
    1534:	04000737          	lui	a4,0x4000
    1538:	00f70023          	sb	a5,0(a4) # 4000000 <_stack_end+0x3ef67f0>
    153c:	e1048513          	addi	a0,s1,-496
    1540:	52d010ef          	jal	326c <print>
    1544:	16c42683          	lw	a3,364(s0)
    1548:	32840c13          	addi	s8,s0,808
    154c:	17040b93          	addi	s7,s0,368
    1550:	00068e63          	beqz	a3,156c <coffee_game+0x8e0>
    1554:	000c2503          	lw	a0,0(s8)
    1558:	004b8b93          	addi	s7,s7,4
    155c:	004c0c13          	addi	s8,s8,4
    1560:	50d010ef          	jal	326c <print>
    1564:	ffcba683          	lw	a3,-4(s7)
    1568:	fe0696e3          	bnez	a3,1554 <coffee_game+0x8c8>
    156c:	488a0513          	addi	a0,s4,1160
    1570:	4fd010ef          	jal	326c <print>
    1574:	06400713          	li	a4,100
    1578:	000077b7          	lui	a5,0x7
    157c:	53078793          	addi	a5,a5,1328 # 7530 <__global_pointer+0x2f28>
    1580:	00000013          	nop
    1584:	fff78793          	addi	a5,a5,-1
    1588:	fe079ce3          	bnez	a5,1580 <coffee_game+0x8f4>
    158c:	fff70713          	addi	a4,a4,-1
    1590:	fe0714e3          	bnez	a4,1578 <coffee_game+0x8ec>
    1594:	e1048513          	addi	a0,s1,-496
    1598:	4d5010ef          	jal	326c <print>
    159c:	16c42683          	lw	a3,364(s0)
    15a0:	3bc40c13          	addi	s8,s0,956
    15a4:	17040b93          	addi	s7,s0,368
    15a8:	00068e63          	beqz	a3,15c4 <coffee_game+0x938>
    15ac:	000c2503          	lw	a0,0(s8)
    15b0:	004b8b93          	addi	s7,s7,4
    15b4:	004c0c13          	addi	s8,s8,4
    15b8:	4b5010ef          	jal	326c <print>
    15bc:	ffcba683          	lw	a3,-4(s7)
    15c0:	fe0696e3          	bnez	a3,15ac <coffee_game+0x920>
    15c4:	488a0513          	addi	a0,s4,1160
    15c8:	4a5010ef          	jal	326c <print>
    15cc:	e0c92703          	lw	a4,-500(s2)
    15d0:	0ff00793          	li	a5,255
    15d4:	fff70713          	addi	a4,a4,-1
    15d8:	e0e92623          	sw	a4,-500(s2)
    15dc:	04eac863          	blt	s5,a4,162c <coffee_game+0x9a0>
    15e0:	26e05263          	blez	a4,1844 <coffee_game+0xbb8>
    15e4:	2da70e63          	beq	a4,s10,18c0 <coffee_game+0xc34>
    15e8:	2d970863          	beq	a4,s9,18b8 <coffee_game+0xc2c>
    15ec:	00300793          	li	a5,3
    15f0:	34f70263          	beq	a4,a5,1934 <coffee_game+0xca8>
    15f4:	00400793          	li	a5,4
    15f8:	32f70a63          	beq	a4,a5,192c <coffee_game+0xca0>
    15fc:	00500793          	li	a5,5
    1600:	32f70263          	beq	a4,a5,1924 <coffee_game+0xc98>
    1604:	00600793          	li	a5,6
    1608:	30f70a63          	beq	a4,a5,191c <coffee_game+0xc90>
    160c:	00700793          	li	a5,7
    1610:	30f70263          	beq	a4,a5,1914 <coffee_game+0xc88>
    1614:	00800793          	li	a5,8
    1618:	2ef70a63          	beq	a4,a5,190c <coffee_game+0xc80>
    161c:	2f571463          	bne	a4,s5,1904 <coffee_game+0xc78>
    1620:	40000793          	li	a5,1024
    1624:	fff78793          	addi	a5,a5,-1
    1628:	0ff7f793          	zext.b	a5,a5
    162c:	04000737          	lui	a4,0x4000
    1630:	00f70023          	sb	a5,0(a4) # 4000000 <_stack_end+0x3ef67f0>
    1634:	09600713          	li	a4,150
    1638:	000077b7          	lui	a5,0x7
    163c:	53078793          	addi	a5,a5,1328 # 7530 <__global_pointer+0x2f28>
    1640:	00000013          	nop
    1644:	fff78793          	addi	a5,a5,-1
    1648:	fe079ce3          	bnez	a5,1640 <coffee_game+0x9b4>
    164c:	fff70713          	addi	a4,a4,-1
    1650:	fe0714e3          	bnez	a4,1638 <coffee_game+0x9ac>
    1654:	fffb0b13          	addi	s6,s6,-1
    1658:	dc0b14e3          	bnez	s6,1420 <coffee_game+0x794>
    165c:	040007b7          	lui	a5,0x4000
    1660:	0007ac23          	sw	zero,24(a5) # 4000018 <_stack_end+0x3ef6808>
    1664:	b11fe0ef          	jal	174 <disable_interrupts>
    1668:	e1048513          	addi	a0,s1,-496
    166c:	401010ef          	jal	326c <print>
    1670:	16c42783          	lw	a5,364(s0)
    1674:	57840a93          	addi	s5,s0,1400
    1678:	17040a13          	addi	s4,s0,368
    167c:	00078e63          	beqz	a5,1698 <coffee_game+0xa0c>
    1680:	000aa503          	lw	a0,0(s5)
    1684:	004a0a13          	addi	s4,s4,4
    1688:	004a8a93          	addi	s5,s5,4
    168c:	3e1010ef          	jal	326c <print>
    1690:	ffca2783          	lw	a5,-4(s4)
    1694:	fe0796e3          	bnez	a5,1680 <coffee_game+0x9f4>
    1698:	03200713          	li	a4,50
    169c:	000077b7          	lui	a5,0x7
    16a0:	53078793          	addi	a5,a5,1328 # 7530 <__global_pointer+0x2f28>
    16a4:	00000013          	nop
    16a8:	fff78793          	addi	a5,a5,-1
    16ac:	fe079ce3          	bnez	a5,16a4 <coffee_game+0xa18>
    16b0:	fff70713          	addi	a4,a4,-1
    16b4:	fe0714e3          	bnez	a4,169c <coffee_game+0xa10>
    16b8:	00004537          	lui	a0,0x4
    16bc:	5c050513          	addi	a0,a0,1472 # 45c0 <c_energy+0x7b4>
    16c0:	c9dfe0ef          	jal	35c <pretty_print>
    16c4:	00004537          	lui	a0,0x4
    16c8:	62850513          	addi	a0,a0,1576 # 4628 <__global_pointer+0x20>
    16cc:	c91fe0ef          	jal	35c <pretty_print>
    16d0:	25800713          	li	a4,600
    16d4:	000077b7          	lui	a5,0x7
    16d8:	53078793          	addi	a5,a5,1328 # 7530 <__global_pointer+0x2f28>
    16dc:	00000013          	nop
    16e0:	fff78793          	addi	a5,a5,-1
    16e4:	fe079ce3          	bnez	a5,16dc <coffee_game+0xa50>
    16e8:	fff70713          	addi	a4,a4,-1
    16ec:	fe0714e3          	bnez	a4,16d4 <coffee_game+0xa48>
    16f0:	00004537          	lui	a0,0x4
    16f4:	63050513          	addi	a0,a0,1584 # 4630 <__global_pointer+0x28>
    16f8:	c65fe0ef          	jal	35c <pretty_print>
    16fc:	25800713          	li	a4,600
    1700:	000077b7          	lui	a5,0x7
    1704:	53078793          	addi	a5,a5,1328 # 7530 <__global_pointer+0x2f28>
    1708:	00000013          	nop
    170c:	fff78793          	addi	a5,a5,-1
    1710:	fe079ce3          	bnez	a5,1708 <coffee_game+0xa7c>
    1714:	fff70713          	addi	a4,a4,-1
    1718:	fe0714e3          	bnez	a4,1700 <coffee_game+0xa74>
    171c:	00004537          	lui	a0,0x4
    1720:	63850513          	addi	a0,a0,1592 # 4638 <__global_pointer+0x30>
    1724:	c39fe0ef          	jal	35c <pretty_print>
    1728:	25800713          	li	a4,600
    172c:	000077b7          	lui	a5,0x7
    1730:	53078793          	addi	a5,a5,1328 # 7530 <__global_pointer+0x2f28>
    1734:	00000013          	nop
    1738:	fff78793          	addi	a5,a5,-1
    173c:	fe079ce3          	bnez	a5,1734 <coffee_game+0xaa8>
    1740:	fff70713          	addi	a4,a4,-1
    1744:	fe0714e3          	bnez	a4,172c <coffee_game+0xaa0>
    1748:	04000737          	lui	a4,0x4000
    174c:	01072783          	lw	a5,16(a4) # 4000010 <_stack_end+0x3ef6800>
    1750:	e1048513          	addi	a0,s1,-496
    1754:	0107f793          	andi	a5,a5,16
    1758:	0e078e63          	beqz	a5,1854 <coffee_game+0xbc8>
    175c:	311010ef          	jal	326c <print>
    1760:	16c42783          	lw	a5,364(s0)
    1764:	60c40a13          	addi	s4,s0,1548
    1768:	17040413          	addi	s0,s0,368
    176c:	00078e63          	beqz	a5,1788 <coffee_game+0xafc>
    1770:	000a2503          	lw	a0,0(s4)
    1774:	00440413          	addi	s0,s0,4
    1778:	004a0a13          	addi	s4,s4,4
    177c:	2f1010ef          	jal	326c <print>
    1780:	ffc42783          	lw	a5,-4(s0)
    1784:	fe0796e3          	bnez	a5,1770 <coffee_game+0xae4>
    1788:	00004537          	lui	a0,0x4
    178c:	64050513          	addi	a0,a0,1600 # 4640 <__global_pointer+0x38>
    1790:	bcdfe0ef          	jal	35c <pretty_print>
    1794:	0089a783          	lw	a5,8(s3)
    1798:	00278793          	addi	a5,a5,2
    179c:	00f9a423          	sw	a5,8(s3)
    17a0:	06400713          	li	a4,100
    17a4:	000077b7          	lui	a5,0x7
    17a8:	53078793          	addi	a5,a5,1328 # 7530 <__global_pointer+0x2f28>
    17ac:	00000013          	nop
    17b0:	fff78793          	addi	a5,a5,-1
    17b4:	fe079ce3          	bnez	a5,17ac <coffee_game+0xb20>
    17b8:	fff70713          	addi	a4,a4,-1
    17bc:	fe0714e3          	bnez	a4,17a4 <coffee_game+0xb18>
    17c0:	e1048513          	addi	a0,s1,-496
    17c4:	2a9010ef          	jal	326c <print>
    17c8:	00004537          	lui	a0,0x4
    17cc:	6b850513          	addi	a0,a0,1720 # 46b8 <__global_pointer+0xb0>
    17d0:	b8dfe0ef          	jal	35c <pretty_print>
    17d4:	e0c92703          	lw	a4,-500(s2)
    17d8:	0009a783          	lw	a5,0(s3)
    17dc:	03c12083          	lw	ra,60(sp)
    17e0:	03812403          	lw	s0,56(sp)
    17e4:	ff670713          	addi	a4,a4,-10
    17e8:	00e787b3          	add	a5,a5,a4
    17ec:	00f9a023          	sw	a5,0(s3)
    17f0:	03412483          	lw	s1,52(sp)
    17f4:	03012903          	lw	s2,48(sp)
    17f8:	02c12983          	lw	s3,44(sp)
    17fc:	02812a03          	lw	s4,40(sp)
    1800:	02412a83          	lw	s5,36(sp)
    1804:	02012b03          	lw	s6,32(sp)
    1808:	01c12b83          	lw	s7,28(sp)
    180c:	01812c03          	lw	s8,24(sp)
    1810:	01412c83          	lw	s9,20(sp)
    1814:	01012d03          	lw	s10,16(sp)
    1818:	00c12d83          	lw	s11,12(sp)
    181c:	04010113          	addi	sp,sp,64
    1820:	00008067          	ret
    1824:	00400793          	li	a5,4
    1828:	fc4ff06f          	j	fec <coffee_game+0x360>
    182c:	00200793          	li	a5,2
    1830:	fbcff06f          	j	fec <coffee_game+0x360>
    1834:	00000793          	li	a5,0
    1838:	fbcff06f          	j	ff4 <coffee_game+0x368>
    183c:	00000793          	li	a5,0
    1840:	a69ff06f          	j	12a8 <coffee_game+0x61c>
    1844:	00000793          	li	a5,0
    1848:	de5ff06f          	j	162c <coffee_game+0x9a0>
    184c:	00000793          	li	a5,0
    1850:	ce5ff06f          	j	1534 <coffee_game+0x8a8>
    1854:	219010ef          	jal	326c <print>
    1858:	16c42783          	lw	a5,364(s0)
    185c:	6a040a13          	addi	s4,s0,1696
    1860:	17040413          	addi	s0,s0,368
    1864:	00078e63          	beqz	a5,1880 <coffee_game+0xbf4>
    1868:	000a2503          	lw	a0,0(s4)
    186c:	00440413          	addi	s0,s0,4
    1870:	004a0a13          	addi	s4,s4,4
    1874:	1f9010ef          	jal	326c <print>
    1878:	ffc42783          	lw	a5,-4(s0)
    187c:	fe0796e3          	bnez	a5,1868 <coffee_game+0xbdc>
    1880:	00004537          	lui	a0,0x4
    1884:	66450513          	addi	a0,a0,1636 # 4664 <__global_pointer+0x5c>
    1888:	ad5fe0ef          	jal	35c <pretty_print>
    188c:	00004537          	lui	a0,0x4
    1890:	67450513          	addi	a0,a0,1652 # 4674 <__global_pointer+0x6c>
    1894:	1d9010ef          	jal	326c <print>
    1898:	00004537          	lui	a0,0x4
    189c:	68450513          	addi	a0,a0,1668 # 4684 <__global_pointer+0x7c>
    18a0:	abdfe0ef          	jal	35c <pretty_print>
    18a4:	0089a783          	lw	a5,8(s3)
    18a8:	ff678793          	addi	a5,a5,-10
    18ac:	ef1ff06f          	j	179c <coffee_game+0xb10>
    18b0:	00400793          	li	a5,4
    18b4:	c79ff06f          	j	152c <coffee_game+0x8a0>
    18b8:	00400793          	li	a5,4
    18bc:	d69ff06f          	j	1624 <coffee_game+0x998>
    18c0:	00200793          	li	a5,2
    18c4:	d61ff06f          	j	1624 <coffee_game+0x998>
    18c8:	00200793          	li	a5,2
    18cc:	c61ff06f          	j	152c <coffee_game+0x8a0>
    18d0:	00004537          	lui	a0,0x4
    18d4:	5a050513          	addi	a0,a0,1440 # 45a0 <c_energy+0x794>
    18d8:	a85fe0ef          	jal	35c <pretty_print>
    18dc:	00100d93          	li	s11,1
    18e0:	b11ff06f          	j	13f0 <coffee_game+0x764>
    18e4:	00200793          	li	a5,2
    18e8:	9b9ff06f          	j	12a0 <coffee_game+0x614>
    18ec:	01000793          	li	a5,16
    18f0:	efcff06f          	j	fec <coffee_game+0x360>
    18f4:	00800793          	li	a5,8
    18f8:	ef4ff06f          	j	fec <coffee_game+0x360>
    18fc:	00400793          	li	a5,4
    1900:	9a1ff06f          	j	12a0 <coffee_game+0x614>
    1904:	20000793          	li	a5,512
    1908:	d1dff06f          	j	1624 <coffee_game+0x998>
    190c:	10000793          	li	a5,256
    1910:	d15ff06f          	j	1624 <coffee_game+0x998>
    1914:	08000793          	li	a5,128
    1918:	d0dff06f          	j	1624 <coffee_game+0x998>
    191c:	04000793          	li	a5,64
    1920:	d05ff06f          	j	1624 <coffee_game+0x998>
    1924:	02000793          	li	a5,32
    1928:	cfdff06f          	j	1624 <coffee_game+0x998>
    192c:	01000793          	li	a5,16
    1930:	cf5ff06f          	j	1624 <coffee_game+0x998>
    1934:	00800793          	li	a5,8
    1938:	cedff06f          	j	1624 <coffee_game+0x998>
    193c:	20000793          	li	a5,512
    1940:	bedff06f          	j	152c <coffee_game+0x8a0>
    1944:	10000793          	li	a5,256
    1948:	be5ff06f          	j	152c <coffee_game+0x8a0>
    194c:	08000793          	li	a5,128
    1950:	bddff06f          	j	152c <coffee_game+0x8a0>
    1954:	04000793          	li	a5,64
    1958:	bd5ff06f          	j	152c <coffee_game+0x8a0>
    195c:	02000793          	li	a5,32
    1960:	bcdff06f          	j	152c <coffee_game+0x8a0>
    1964:	01000793          	li	a5,16
    1968:	bc5ff06f          	j	152c <coffee_game+0x8a0>
    196c:	00800793          	li	a5,8
    1970:	bbdff06f          	j	152c <coffee_game+0x8a0>
    1974:	20000793          	li	a5,512
    1978:	929ff06f          	j	12a0 <coffee_game+0x614>
    197c:	10000793          	li	a5,256
    1980:	921ff06f          	j	12a0 <coffee_game+0x614>
    1984:	08000793          	li	a5,128
    1988:	919ff06f          	j	12a0 <coffee_game+0x614>
    198c:	04000793          	li	a5,64
    1990:	911ff06f          	j	12a0 <coffee_game+0x614>
    1994:	02000793          	li	a5,32
    1998:	909ff06f          	j	12a0 <coffee_game+0x614>
    199c:	01000793          	li	a5,16
    19a0:	901ff06f          	j	12a0 <coffee_game+0x614>
    19a4:	00800793          	li	a5,8
    19a8:	8f9ff06f          	j	12a0 <coffee_game+0x614>
    19ac:	20000793          	li	a5,512
    19b0:	e3cff06f          	j	fec <coffee_game+0x360>
    19b4:	10000793          	li	a5,256
    19b8:	e34ff06f          	j	fec <coffee_game+0x360>
    19bc:	08000793          	li	a5,128
    19c0:	e2cff06f          	j	fec <coffee_game+0x360>
    19c4:	04000793          	li	a5,64
    19c8:	e24ff06f          	j	fec <coffee_game+0x360>
    19cc:	02000793          	li	a5,32
    19d0:	e1cff06f          	j	fec <coffee_game+0x360>
    19d4:	fc000713          	li	a4,-64
    19d8:	00e78023          	sb	a4,0(a5)
    19dc:	b70ff06f          	j	d4c <coffee_game+0xc0>
    19e0:	00000793          	li	a5,0
    19e4:	be0ff06f          	j	dc4 <coffee_game+0x138>
    19e8:	00000793          	li	a5,0
    19ec:	f00ff06f          	j	10ec <coffee_game+0x460>
    19f0:	00000793          	li	a5,0
    19f4:	99dff06f          	j	1390 <coffee_game+0x704>
    19f8:	08000793          	li	a5,128
    19fc:	bc0ff06f          	j	dbc <coffee_game+0x130>
    1a00:	00200793          	li	a5,2
    1a04:	985ff06f          	j	1388 <coffee_game+0x6fc>
    1a08:	00400793          	li	a5,4
    1a0c:	97dff06f          	j	1388 <coffee_game+0x6fc>
    1a10:	00800793          	li	a5,8
    1a14:	975ff06f          	j	1388 <coffee_game+0x6fc>
    1a18:	01000793          	li	a5,16
    1a1c:	96dff06f          	j	1388 <coffee_game+0x6fc>
    1a20:	02000793          	li	a5,32
    1a24:	965ff06f          	j	1388 <coffee_game+0x6fc>
    1a28:	04000793          	li	a5,64
    1a2c:	95dff06f          	j	1388 <coffee_game+0x6fc>
    1a30:	20000793          	li	a5,512
    1a34:	955ff06f          	j	1388 <coffee_game+0x6fc>
    1a38:	10000793          	li	a5,256
    1a3c:	94dff06f          	j	1388 <coffee_game+0x6fc>
    1a40:	08000793          	li	a5,128
    1a44:	945ff06f          	j	1388 <coffee_game+0x6fc>
    1a48:	00200793          	li	a5,2
    1a4c:	e98ff06f          	j	10e4 <coffee_game+0x458>
    1a50:	00400793          	li	a5,4
    1a54:	e90ff06f          	j	10e4 <coffee_game+0x458>
    1a58:	00800793          	li	a5,8
    1a5c:	e88ff06f          	j	10e4 <coffee_game+0x458>
    1a60:	01000793          	li	a5,16
    1a64:	e80ff06f          	j	10e4 <coffee_game+0x458>
    1a68:	02000793          	li	a5,32
    1a6c:	e78ff06f          	j	10e4 <coffee_game+0x458>
    1a70:	04000793          	li	a5,64
    1a74:	e70ff06f          	j	10e4 <coffee_game+0x458>
    1a78:	20000793          	li	a5,512
    1a7c:	e68ff06f          	j	10e4 <coffee_game+0x458>
    1a80:	10000793          	li	a5,256
    1a84:	e60ff06f          	j	10e4 <coffee_game+0x458>
    1a88:	08000793          	li	a5,128
    1a8c:	e58ff06f          	j	10e4 <coffee_game+0x458>
    1a90:	00200793          	li	a5,2
    1a94:	b28ff06f          	j	dbc <coffee_game+0x130>
    1a98:	00400793          	li	a5,4
    1a9c:	b20ff06f          	j	dbc <coffee_game+0x130>
    1aa0:	00800793          	li	a5,8
    1aa4:	b18ff06f          	j	dbc <coffee_game+0x130>
    1aa8:	01000793          	li	a5,16
    1aac:	b10ff06f          	j	dbc <coffee_game+0x130>
    1ab0:	02000793          	li	a5,32
    1ab4:	b08ff06f          	j	dbc <coffee_game+0x130>
    1ab8:	04000793          	li	a5,64
    1abc:	b00ff06f          	j	dbc <coffee_game+0x130>
    1ac0:	20000793          	li	a5,512
    1ac4:	af8ff06f          	j	dbc <coffee_game+0x130>
    1ac8:	10000793          	li	a5,256
    1acc:	af0ff06f          	j	dbc <coffee_game+0x130>

00001ad0 <clocking_out>:
    1ad0:	00004537          	lui	a0,0x4
    1ad4:	ff010113          	addi	sp,sp,-16
    1ad8:	e1050513          	addi	a0,a0,-496 # 3e10 <c_energy+0x4>
    1adc:	00112623          	sw	ra,12(sp)
    1ae0:	00812423          	sw	s0,8(sp)
    1ae4:	788010ef          	jal	326c <print>
    1ae8:	00004537          	lui	a0,0x4
    1aec:	6f450513          	addi	a0,a0,1780 # 46f4 <__global_pointer+0xec>
    1af0:	86dfe0ef          	jal	35c <pretty_print>
    1af4:	00004537          	lui	a0,0x4
    1af8:	73850513          	addi	a0,a0,1848 # 4738 <__global_pointer+0x130>
    1afc:	861fe0ef          	jal	35c <pretty_print>
    1b00:	00004537          	lui	a0,0x4
    1b04:	76450513          	addi	a0,a0,1892 # 4764 <__global_pointer+0x15c>
    1b08:	855fe0ef          	jal	35c <pretty_print>
    1b0c:	00005437          	lui	s0,0x5
    1b10:	47040513          	addi	a0,s0,1136 # 5470 <__global_pointer+0xe68>
    1b14:	758010ef          	jal	326c <print>
    1b18:	47040513          	addi	a0,s0,1136
    1b1c:	750010ef          	jal	326c <print>
    1b20:	00004537          	lui	a0,0x4
    1b24:	79450513          	addi	a0,a0,1940 # 4794 <__global_pointer+0x18c>
    1b28:	744010ef          	jal	326c <print>
    1b2c:	00005537          	lui	a0,0x5
    1b30:	82c50513          	addi	a0,a0,-2004 # 482c <__global_pointer+0x224>
    1b34:	738010ef          	jal	326c <print>
    1b38:	00005537          	lui	a0,0x5
    1b3c:	8c450513          	addi	a0,a0,-1852 # 48c4 <__global_pointer+0x2bc>
    1b40:	72c010ef          	jal	326c <print>
    1b44:	00005537          	lui	a0,0x5
    1b48:	95c50513          	addi	a0,a0,-1700 # 495c <__global_pointer+0x354>
    1b4c:	720010ef          	jal	326c <print>
    1b50:	00005537          	lui	a0,0x5
    1b54:	9f450513          	addi	a0,a0,-1548 # 49f4 <__global_pointer+0x3ec>
    1b58:	714010ef          	jal	326c <print>
    1b5c:	00005537          	lui	a0,0x5
    1b60:	a8c50513          	addi	a0,a0,-1396 # 4a8c <__global_pointer+0x484>
    1b64:	708010ef          	jal	326c <print>
    1b68:	00005537          	lui	a0,0x5
    1b6c:	b2450513          	addi	a0,a0,-1244 # 4b24 <__global_pointer+0x51c>
    1b70:	6fc010ef          	jal	326c <print>
    1b74:	00005537          	lui	a0,0x5
    1b78:	bbc50513          	addi	a0,a0,-1092 # 4bbc <__global_pointer+0x5b4>
    1b7c:	6f0010ef          	jal	326c <print>
    1b80:	00005537          	lui	a0,0x5
    1b84:	c5450513          	addi	a0,a0,-940 # 4c54 <__global_pointer+0x64c>
    1b88:	6e4010ef          	jal	326c <print>
    1b8c:	00005537          	lui	a0,0x5
    1b90:	cec50513          	addi	a0,a0,-788 # 4cec <__global_pointer+0x6e4>
    1b94:	6d8010ef          	jal	326c <print>
    1b98:	00005537          	lui	a0,0x5
    1b9c:	d8450513          	addi	a0,a0,-636 # 4d84 <__global_pointer+0x77c>
    1ba0:	6cc010ef          	jal	326c <print>
    1ba4:	00005537          	lui	a0,0x5
    1ba8:	e1c50513          	addi	a0,a0,-484 # 4e1c <__global_pointer+0x814>
    1bac:	6c0010ef          	jal	326c <print>
    1bb0:	00005537          	lui	a0,0x5
    1bb4:	eb450513          	addi	a0,a0,-332 # 4eb4 <__global_pointer+0x8ac>
    1bb8:	6b4010ef          	jal	326c <print>
    1bbc:	00005537          	lui	a0,0x5
    1bc0:	f4c50513          	addi	a0,a0,-180 # 4f4c <__global_pointer+0x944>
    1bc4:	6a8010ef          	jal	326c <print>
    1bc8:	00005537          	lui	a0,0x5
    1bcc:	fe450513          	addi	a0,a0,-28 # 4fe4 <__global_pointer+0x9dc>
    1bd0:	69c010ef          	jal	326c <print>
    1bd4:	00005537          	lui	a0,0x5
    1bd8:	07c50513          	addi	a0,a0,124 # 507c <__global_pointer+0xa74>
    1bdc:	690010ef          	jal	326c <print>
    1be0:	00005537          	lui	a0,0x5
    1be4:	11450513          	addi	a0,a0,276 # 5114 <__global_pointer+0xb0c>
    1be8:	684010ef          	jal	326c <print>
    1bec:	00005537          	lui	a0,0x5
    1bf0:	1ac50513          	addi	a0,a0,428 # 51ac <__global_pointer+0xba4>
    1bf4:	678010ef          	jal	326c <print>
    1bf8:	00005537          	lui	a0,0x5
    1bfc:	24450513          	addi	a0,a0,580 # 5244 <__global_pointer+0xc3c>
    1c00:	66c010ef          	jal	326c <print>
    1c04:	00005537          	lui	a0,0x5
    1c08:	2dc50513          	addi	a0,a0,732 # 52dc <__global_pointer+0xcd4>
    1c0c:	660010ef          	jal	326c <print>
    1c10:	00005537          	lui	a0,0x5
    1c14:	37450513          	addi	a0,a0,884 # 5374 <__global_pointer+0xd6c>
    1c18:	654010ef          	jal	326c <print>
    1c1c:	00005537          	lui	a0,0x5
    1c20:	40c50513          	addi	a0,a0,1036 # 540c <__global_pointer+0xe04>
    1c24:	648010ef          	jal	326c <print>
    1c28:	00005537          	lui	a0,0x5
    1c2c:	47450513          	addi	a0,a0,1140 # 5474 <__global_pointer+0xe6c>
    1c30:	63c010ef          	jal	326c <print>
    1c34:	47040513          	addi	a0,s0,1136
    1c38:	00812403          	lw	s0,8(sp)
    1c3c:	00c12083          	lw	ra,12(sp)
    1c40:	01010113          	addi	sp,sp,16
    1c44:	6280106f          	j	326c <print>

00001c48 <game_over>:
    1c48:	ff010113          	addi	sp,sp,-16
    1c4c:	00812423          	sw	s0,8(sp)
    1c50:	00050413          	mv	s0,a0
    1c54:	00004537          	lui	a0,0x4
    1c58:	e1050513          	addi	a0,a0,-496 # 3e10 <c_energy+0x4>
    1c5c:	00112623          	sw	ra,12(sp)
    1c60:	60c010ef          	jal	326c <print>
    1c64:	00042783          	lw	a5,0(s0)
    1c68:	10f05063          	blez	a5,1d68 <game_over+0x120>
    1c6c:	00842783          	lw	a5,8(s0)
    1c70:	10f05c63          	blez	a5,1d88 <game_over+0x140>
    1c74:	00442783          	lw	a5,4(s0)
    1c78:	10f05063          	blez	a5,1d78 <game_over+0x130>
    1c7c:	00005537          	lui	a0,0x5
    1c80:	56c50513          	addi	a0,a0,1388 # 556c <__global_pointer+0xf64>
    1c84:	00004437          	lui	s0,0x4
    1c88:	ed4fe0ef          	jal	35c <pretty_print>
    1c8c:	e8840513          	addi	a0,s0,-376 # 3e88 <c_energy+0x7c>
    1c90:	5dc010ef          	jal	326c <print>
    1c94:	e8840513          	addi	a0,s0,-376
    1c98:	5d4010ef          	jal	326c <print>
    1c9c:	e8840513          	addi	a0,s0,-376
    1ca0:	5cc010ef          	jal	326c <print>
    1ca4:	00005537          	lui	a0,0x5
    1ca8:	58850513          	addi	a0,a0,1416 # 5588 <__global_pointer+0xf80>
    1cac:	5c0010ef          	jal	326c <print>
    1cb0:	00005537          	lui	a0,0x5
    1cb4:	60050513          	addi	a0,a0,1536 # 5600 <__global_pointer+0xff8>
    1cb8:	5b4010ef          	jal	326c <print>
    1cbc:	00005537          	lui	a0,0x5
    1cc0:	67850513          	addi	a0,a0,1656 # 5678 <__global_pointer+0x1070>
    1cc4:	5a8010ef          	jal	326c <print>
    1cc8:	00005537          	lui	a0,0x5
    1ccc:	6f050513          	addi	a0,a0,1776 # 56f0 <__global_pointer+0x10e8>
    1cd0:	59c010ef          	jal	326c <print>
    1cd4:	00005537          	lui	a0,0x5
    1cd8:	76850513          	addi	a0,a0,1896 # 5768 <__global_pointer+0x1160>
    1cdc:	590010ef          	jal	326c <print>
    1ce0:	00005537          	lui	a0,0x5
    1ce4:	7e050513          	addi	a0,a0,2016 # 57e0 <__global_pointer+0x11d8>
    1ce8:	584010ef          	jal	326c <print>
    1cec:	00006537          	lui	a0,0x6
    1cf0:	85850513          	addi	a0,a0,-1960 # 5858 <__global_pointer+0x1250>
    1cf4:	578010ef          	jal	326c <print>
    1cf8:	00006537          	lui	a0,0x6
    1cfc:	8d050513          	addi	a0,a0,-1840 # 58d0 <__global_pointer+0x12c8>
    1d00:	56c010ef          	jal	326c <print>
    1d04:	00006537          	lui	a0,0x6
    1d08:	94850513          	addi	a0,a0,-1720 # 5948 <__global_pointer+0x1340>
    1d0c:	560010ef          	jal	326c <print>
    1d10:	00006537          	lui	a0,0x6
    1d14:	9c050513          	addi	a0,a0,-1600 # 59c0 <__global_pointer+0x13b8>
    1d18:	554010ef          	jal	326c <print>
    1d1c:	00006537          	lui	a0,0x6
    1d20:	a3850513          	addi	a0,a0,-1480 # 5a38 <__global_pointer+0x1430>
    1d24:	548010ef          	jal	326c <print>
    1d28:	00006537          	lui	a0,0x6
    1d2c:	ab050513          	addi	a0,a0,-1360 # 5ab0 <__global_pointer+0x14a8>
    1d30:	53c010ef          	jal	326c <print>
    1d34:	00006537          	lui	a0,0x6
    1d38:	b2850513          	addi	a0,a0,-1240 # 5b28 <__global_pointer+0x1520>
    1d3c:	530010ef          	jal	326c <print>
    1d40:	00006537          	lui	a0,0x6
    1d44:	ba050513          	addi	a0,a0,-1120 # 5ba0 <__global_pointer+0x1598>
    1d48:	524010ef          	jal	326c <print>
    1d4c:	00006537          	lui	a0,0x6
    1d50:	c1850513          	addi	a0,a0,-1000 # 5c18 <__global_pointer+0x1610>
    1d54:	518010ef          	jal	326c <print>
    1d58:	00006537          	lui	a0,0x6
    1d5c:	c9050513          	addi	a0,a0,-880 # 5c90 <__global_pointer+0x1688>
    1d60:	50c010ef          	jal	326c <print>
    1d64:	0000006f          	j	1d64 <game_over+0x11c>
    1d68:	00005537          	lui	a0,0x5
    1d6c:	4dc50513          	addi	a0,a0,1244 # 54dc <__global_pointer+0xed4>
    1d70:	decfe0ef          	jal	35c <pretty_print>
    1d74:	ef9ff06f          	j	1c6c <game_over+0x24>
    1d78:	00005537          	lui	a0,0x5
    1d7c:	55850513          	addi	a0,a0,1368 # 5558 <__global_pointer+0xf50>
    1d80:	ddcfe0ef          	jal	35c <pretty_print>
    1d84:	ef9ff06f          	j	1c7c <game_over+0x34>
    1d88:	00005537          	lui	a0,0x5
    1d8c:	51c50513          	addi	a0,a0,1308 # 551c <__global_pointer+0xf14>
    1d90:	dccfe0ef          	jal	35c <pretty_print>
    1d94:	ee1ff06f          	j	1c74 <game_over+0x2c>

00001d98 <scene_init>:
    1d98:	00052783          	lw	a5,0(a0)
    1d9c:	ff010113          	addi	sp,sp,-16
    1da0:	00812423          	sw	s0,8(sp)
    1da4:	00112623          	sw	ra,12(sp)
    1da8:	00050413          	mv	s0,a0
    1dac:	04f05063          	blez	a5,1dec <scene_init+0x54>
    1db0:	00452783          	lw	a5,4(a0)
    1db4:	02f05c63          	blez	a5,1dec <scene_init+0x54>
    1db8:	00004537          	lui	a0,0x4
    1dbc:	e1050513          	addi	a0,a0,-496 # 3e10 <c_energy+0x4>
    1dc0:	4ac010ef          	jal	326c <print>
    1dc4:	00040513          	mv	a0,s0
    1dc8:	e90fe0ef          	jal	458 <print_status>
    1dcc:	00005437          	lui	s0,0x5
    1dd0:	47040513          	addi	a0,s0,1136 # 5470 <__global_pointer+0xe68>
    1dd4:	498010ef          	jal	326c <print>
    1dd8:	47040513          	addi	a0,s0,1136
    1ddc:	00812403          	lw	s0,8(sp)
    1de0:	00c12083          	lw	ra,12(sp)
    1de4:	01010113          	addi	sp,sp,16
    1de8:	4840106f          	j	326c <print>
    1dec:	00040513          	mv	a0,s0
    1df0:	e59ff0ef          	jal	1c48 <game_over>

00001df4 <car_game>:
    1df4:	fc010113          	addi	sp,sp,-64
    1df8:	02912a23          	sw	s1,52(sp)
    1dfc:	00050493          	mv	s1,a0
    1e00:	00006537          	lui	a0,0x6
    1e04:	d0850513          	addi	a0,a0,-760 # 5d08 <__global_pointer+0x1700>
    1e08:	02812c23          	sw	s0,56(sp)
    1e0c:	02112e23          	sw	ra,60(sp)
    1e10:	03212823          	sw	s2,48(sp)
    1e14:	03312623          	sw	s3,44(sp)
    1e18:	03412423          	sw	s4,40(sp)
    1e1c:	03512223          	sw	s5,36(sp)
    1e20:	03612023          	sw	s6,32(sp)
    1e24:	01712e23          	sw	s7,28(sp)
    1e28:	01812c23          	sw	s8,24(sp)
    1e2c:	01912a23          	sw	s9,20(sp)
    1e30:	d2cfe0ef          	jal	35c <pretty_print>
    1e34:	0104a783          	lw	a5,16(s1)
    1e38:	0c800413          	li	s0,200
    1e3c:	18079c63          	bnez	a5,1fd4 <car_game+0x1e0>
    1e40:	12c00713          	li	a4,300
    1e44:	000077b7          	lui	a5,0x7
    1e48:	53078793          	addi	a5,a5,1328 # 7530 <__global_pointer+0x2f28>
    1e4c:	00000013          	nop
    1e50:	fff78793          	addi	a5,a5,-1
    1e54:	fe079ce3          	bnez	a5,1e4c <car_game+0x58>
    1e58:	fff70713          	addi	a4,a4,-1
    1e5c:	fe0714e3          	bnez	a4,1e44 <car_game+0x50>
    1e60:	00004537          	lui	a0,0x4
    1e64:	e1050513          	addi	a0,a0,-496 # 3e10 <c_energy+0x4>
    1e68:	04000937          	lui	s2,0x4000
    1e6c:	400010ef          	jal	326c <print>
    1e70:	00000c93          	li	s9,0
    1e74:	00012623          	sw	zero,12(sp)
    1e78:	00100c13          	li	s8,1
    1e7c:	01c90913          	addi	s2,s2,28 # 400001c <_stack_end+0x3ef680c>
    1e80:	00100a13          	li	s4,1
    1e84:	00900993          	li	s3,9
    1e88:	00200b93          	li	s7,2
    1e8c:	00400b13          	li	s6,4
    1e90:	00300a93          	li	s5,3
    1e94:	00000713          	li	a4,0
    1e98:	000077b7          	lui	a5,0x7
    1e9c:	53078793          	addi	a5,a5,1328 # 7530 <__global_pointer+0x2f28>
    1ea0:	00000013          	nop
    1ea4:	fff78793          	addi	a5,a5,-1
    1ea8:	fe079ce3          	bnez	a5,1ea0 <car_game+0xac>
    1eac:	00170713          	addi	a4,a4,1
    1eb0:	fe8764e3          	bltu	a4,s0,1e98 <car_game+0xa4>
    1eb4:	00092783          	lw	a5,0(s2)
    1eb8:	00092023          	sw	zero,0(s2)
    1ebc:	0017f713          	andi	a4,a5,1
    1ec0:	0a071a63          	bnez	a4,1f74 <car_game+0x180>
    1ec4:	2007f793          	andi	a5,a5,512
    1ec8:	0a079c63          	bnez	a5,1f80 <car_game+0x18c>
    1ecc:	000c8513          	mv	a0,s9
    1ed0:	000c0613          	mv	a2,s8
    1ed4:	00c10593          	addi	a1,sp,12
    1ed8:	f30fe0ef          	jal	608 <draw_road>
    1edc:	00c12703          	lw	a4,12(sp)
    1ee0:	001c8c93          	addi	s9,s9,1
    1ee4:	0ff00793          	li	a5,255
    1ee8:	04e9c063          	blt	s3,a4,1f28 <car_game+0x134>
    1eec:	0ae05863          	blez	a4,1f9c <car_game+0x1a8>
    1ef0:	0b470263          	beq	a4,s4,1f94 <car_game+0x1a0>
    1ef4:	09770c63          	beq	a4,s7,1f8c <car_game+0x198>
    1ef8:	0b570663          	beq	a4,s5,1fa4 <car_game+0x1b0>
    1efc:	0d670863          	beq	a4,s6,1fcc <car_game+0x1d8>
    1f00:	00500793          	li	a5,5
    1f04:	0cf70063          	beq	a4,a5,1fc4 <car_game+0x1d0>
    1f08:	00600793          	li	a5,6
    1f0c:	0af70863          	beq	a4,a5,1fbc <car_game+0x1c8>
    1f10:	00700793          	li	a5,7
    1f14:	0af70063          	beq	a4,a5,1fb4 <car_game+0x1c0>
    1f18:	09371a63          	bne	a4,s3,1fac <car_game+0x1b8>
    1f1c:	20000793          	li	a5,512
    1f20:	fff78793          	addi	a5,a5,-1
    1f24:	0ff7f793          	zext.b	a5,a5
    1f28:	04000737          	lui	a4,0x4000
    1f2c:	00f70023          	sb	a5,0(a4) # 4000000 <_stack_end+0x3ef67f0>
    1f30:	06400793          	li	a5,100
    1f34:	f6fc90e3          	bne	s9,a5,1e94 <car_game+0xa0>
    1f38:	00c12403          	lw	s0,12(sp)
    1f3c:	0a041663          	bnez	s0,1fe8 <car_game+0x1f4>
    1f40:	03c12083          	lw	ra,60(sp)
    1f44:	03812403          	lw	s0,56(sp)
    1f48:	03412483          	lw	s1,52(sp)
    1f4c:	03012903          	lw	s2,48(sp)
    1f50:	02c12983          	lw	s3,44(sp)
    1f54:	02812a03          	lw	s4,40(sp)
    1f58:	02412a83          	lw	s5,36(sp)
    1f5c:	02012b03          	lw	s6,32(sp)
    1f60:	01c12b83          	lw	s7,28(sp)
    1f64:	01812c03          	lw	s8,24(sp)
    1f68:	01412c83          	lw	s9,20(sp)
    1f6c:	04010113          	addi	sp,sp,64
    1f70:	00008067          	ret
    1f74:	f58a4ce3          	blt	s4,s8,1ecc <car_game+0xd8>
    1f78:	001c0c13          	addi	s8,s8,1
    1f7c:	f51ff06f          	j	1ecc <car_game+0xd8>
    1f80:	ff805ce3          	blez	s8,1f78 <car_game+0x184>
    1f84:	fffc0c13          	addi	s8,s8,-1
    1f88:	f45ff06f          	j	1ecc <car_game+0xd8>
    1f8c:	00400793          	li	a5,4
    1f90:	f91ff06f          	j	1f20 <car_game+0x12c>
    1f94:	00200793          	li	a5,2
    1f98:	f89ff06f          	j	1f20 <car_game+0x12c>
    1f9c:	00000793          	li	a5,0
    1fa0:	f89ff06f          	j	1f28 <car_game+0x134>
    1fa4:	00800793          	li	a5,8
    1fa8:	f79ff06f          	j	1f20 <car_game+0x12c>
    1fac:	10000793          	li	a5,256
    1fb0:	f71ff06f          	j	1f20 <car_game+0x12c>
    1fb4:	08000793          	li	a5,128
    1fb8:	f69ff06f          	j	1f20 <car_game+0x12c>
    1fbc:	04000793          	li	a5,64
    1fc0:	f61ff06f          	j	1f20 <car_game+0x12c>
    1fc4:	02000793          	li	a5,32
    1fc8:	f59ff06f          	j	1f20 <car_game+0x12c>
    1fcc:	01000793          	li	a5,16
    1fd0:	f51ff06f          	j	1f20 <car_game+0x12c>
    1fd4:	00006537          	lui	a0,0x6
    1fd8:	d6050513          	addi	a0,a0,-672 # 5d60 <__global_pointer+0x1758>
    1fdc:	b80fe0ef          	jal	35c <pretty_print>
    1fe0:	09600413          	li	s0,150
    1fe4:	e5dff06f          	j	1e40 <car_game+0x4c>
    1fe8:	00006537          	lui	a0,0x6
    1fec:	d9c50513          	addi	a0,a0,-612 # 5d9c <__global_pointer+0x1794>
    1ff0:	b6cfe0ef          	jal	35c <pretty_print>
    1ff4:	00040513          	mv	a0,s0
    1ff8:	2ac010ef          	jal	32a4 <print_dec>
    1ffc:	00006537          	lui	a0,0x6
    2000:	dac50513          	addi	a0,a0,-596 # 5dac <__global_pointer+0x17a4>
    2004:	b58fe0ef          	jal	35c <pretty_print>
    2008:	f9c00793          	li	a5,-100
    200c:	02f407b3          	mul	a5,s0,a5
    2010:	0044a703          	lw	a4,4(s1)
    2014:	00e787b3          	add	a5,a5,a4
    2018:	00f4a223          	sw	a5,4(s1)
    201c:	f207d2e3          	bgez	a5,1f40 <car_game+0x14c>
    2020:	00048513          	mv	a0,s1
    2024:	c25ff0ef          	jal	1c48 <game_over>

00002028 <lunch>:
    2028:	fe010113          	addi	sp,sp,-32
    202c:	00812c23          	sw	s0,24(sp)
    2030:	00050413          	mv	s0,a0
    2034:	00006537          	lui	a0,0x6
    2038:	df050513          	addi	a0,a0,-528 # 5df0 <__global_pointer+0x17e8>
    203c:	00112e23          	sw	ra,28(sp)
    2040:	00912a23          	sw	s1,20(sp)
    2044:	01212823          	sw	s2,16(sp)
    2048:	01312623          	sw	s3,12(sp)
    204c:	01412423          	sw	s4,8(sp)
    2050:	01512223          	sw	s5,4(sp)
    2054:	b08fe0ef          	jal	35c <pretty_print>
    2058:	00006537          	lui	a0,0x6
    205c:	e2850513          	addi	a0,a0,-472 # 5e28 <__global_pointer+0x1820>
    2060:	afcfe0ef          	jal	35c <pretty_print>
    2064:	00042783          	lw	a5,0(s0)
    2068:	12f05863          	blez	a5,2198 <lunch+0x170>
    206c:	00442783          	lw	a5,4(s0)
    2070:	12f05463          	blez	a5,2198 <lunch+0x170>
    2074:	00004537          	lui	a0,0x4
    2078:	e1050513          	addi	a0,a0,-496 # 3e10 <c_energy+0x4>
    207c:	1f0010ef          	jal	326c <print>
    2080:	00040513          	mv	a0,s0
    2084:	000054b7          	lui	s1,0x5
    2088:	bd0fe0ef          	jal	458 <print_status>
    208c:	47048513          	addi	a0,s1,1136 # 5470 <__global_pointer+0xe68>
    2090:	1dc010ef          	jal	326c <print>
    2094:	47048513          	addi	a0,s1,1136
    2098:	1d4010ef          	jal	326c <print>
    209c:	000049b7          	lui	s3,0x4
    20a0:	e1898513          	addi	a0,s3,-488 # 3e18 <c_energy+0xc>
    20a4:	1c8010ef          	jal	326c <print>
    20a8:	00006537          	lui	a0,0x6
    20ac:	e6050513          	addi	a0,a0,-416 # 5e60 <__global_pointer+0x1858>
    20b0:	aacfe0ef          	jal	35c <pretty_print>
    20b4:	47048513          	addi	a0,s1,1136
    20b8:	1b4010ef          	jal	326c <print>
    20bc:	47048513          	addi	a0,s1,1136
    20c0:	1ac010ef          	jal	326c <print>
    20c4:	00006537          	lui	a0,0x6
    20c8:	e7c50513          	addi	a0,a0,-388 # 5e7c <__global_pointer+0x1874>
    20cc:	a90fe0ef          	jal	35c <pretty_print>
    20d0:	00006537          	lui	a0,0x6
    20d4:	e8850513          	addi	a0,a0,-376 # 5e88 <__global_pointer+0x1880>
    20d8:	a84fe0ef          	jal	35c <pretty_print>
    20dc:	00006537          	lui	a0,0x6
    20e0:	e9450513          	addi	a0,a0,-364 # 5e94 <__global_pointer+0x188c>
    20e4:	04000937          	lui	s2,0x4000
    20e8:	040004b7          	lui	s1,0x4000
    20ec:	a70fe0ef          	jal	35c <pretty_print>
    20f0:	04000a37          	lui	s4,0x4000
    20f4:	01090913          	addi	s2,s2,16 # 4000010 <_stack_end+0x3ef6800>
    20f8:	0d048493          	addi	s1,s1,208 # 40000d0 <_stack_end+0x3ef68c0>
    20fc:	00200a93          	li	s5,2
    2100:	00092783          	lw	a5,0(s2)
    2104:	0077f713          	andi	a4,a5,7
    2108:	00ea0023          	sb	a4,0(s4) # 4000000 <_stack_end+0x3ef67f0>
    210c:	0004c703          	lbu	a4,0(s1)
    2110:	0077f793          	andi	a5,a5,7
    2114:	00177713          	andi	a4,a4,1
    2118:	02070863          	beqz	a4,2148 <lunch+0x120>
    211c:	02face63          	blt	s5,a5,2158 <lunch+0x130>
    2120:	04078063          	beqz	a5,2160 <lunch+0x138>
    2124:	01c12083          	lw	ra,28(sp)
    2128:	01812403          	lw	s0,24(sp)
    212c:	01412483          	lw	s1,20(sp)
    2130:	01012903          	lw	s2,16(sp)
    2134:	00c12983          	lw	s3,12(sp)
    2138:	00812a03          	lw	s4,8(sp)
    213c:	00412a83          	lw	s5,4(sp)
    2140:	02010113          	addi	sp,sp,32
    2144:	00008067          	ret
    2148:	00c42783          	lw	a5,12(s0)
    214c:	00178793          	addi	a5,a5,1
    2150:	00f42623          	sw	a5,12(s0)
    2154:	fadff06f          	j	2100 <lunch+0xd8>
    2158:	00400713          	li	a4,4
    215c:	fce784e3          	beq	a5,a4,2124 <lunch+0xfc>
    2160:	00004537          	lui	a0,0x4
    2164:	e2450513          	addi	a0,a0,-476 # 3e24 <c_energy+0x18>
    2168:	104010ef          	jal	326c <print>
    216c:	06400713          	li	a4,100
    2170:	000077b7          	lui	a5,0x7
    2174:	53078793          	addi	a5,a5,1328 # 7530 <__global_pointer+0x2f28>
    2178:	00000013          	nop
    217c:	fff78793          	addi	a5,a5,-1
    2180:	fe079ce3          	bnez	a5,2178 <lunch+0x150>
    2184:	fff70713          	addi	a4,a4,-1
    2188:	fe0714e3          	bnez	a4,2170 <lunch+0x148>
    218c:	e1898513          	addi	a0,s3,-488
    2190:	0dc010ef          	jal	326c <print>
    2194:	f6dff06f          	j	2100 <lunch+0xd8>
    2198:	00040513          	mv	a0,s0
    219c:	aadff0ef          	jal	1c48 <game_over>

000021a0 <morning_routine>:
    21a0:	00052783          	lw	a5,0(a0)
    21a4:	fe010113          	addi	sp,sp,-32
    21a8:	01312623          	sw	s3,12(sp)
    21ac:	00112e23          	sw	ra,28(sp)
    21b0:	00812c23          	sw	s0,24(sp)
    21b4:	00912a23          	sw	s1,20(sp)
    21b8:	01212823          	sw	s2,16(sp)
    21bc:	01412423          	sw	s4,8(sp)
    21c0:	00050993          	mv	s3,a0
    21c4:	1ef05e63          	blez	a5,23c0 <morning_routine+0x220>
    21c8:	00452783          	lw	a5,4(a0)
    21cc:	1ef05a63          	blez	a5,23c0 <morning_routine+0x220>
    21d0:	00004537          	lui	a0,0x4
    21d4:	e1050513          	addi	a0,a0,-496 # 3e10 <c_energy+0x4>
    21d8:	094010ef          	jal	326c <print>
    21dc:	00098513          	mv	a0,s3
    21e0:	00005437          	lui	s0,0x5
    21e4:	a74fe0ef          	jal	458 <print_status>
    21e8:	47040513          	addi	a0,s0,1136 # 5470 <__global_pointer+0xe68>
    21ec:	080010ef          	jal	326c <print>
    21f0:	47040513          	addi	a0,s0,1136
    21f4:	078010ef          	jal	326c <print>
    21f8:	00006537          	lui	a0,0x6
    21fc:	ea050513          	addi	a0,a0,-352 # 5ea0 <__global_pointer+0x1898>
    2200:	95cfe0ef          	jal	35c <pretty_print>
    2204:	00006537          	lui	a0,0x6
    2208:	ee050513          	addi	a0,a0,-288 # 5ee0 <__global_pointer+0x18d8>
    220c:	950fe0ef          	jal	35c <pretty_print>
    2210:	00006537          	lui	a0,0x6
    2214:	f0050513          	addi	a0,a0,-256 # 5f00 <__global_pointer+0x18f8>
    2218:	944fe0ef          	jal	35c <pretty_print>
    221c:	00006537          	lui	a0,0x6
    2220:	f5050513          	addi	a0,a0,-176 # 5f50 <__global_pointer+0x1948>
    2224:	938fe0ef          	jal	35c <pretty_print>
    2228:	00006537          	lui	a0,0x6
    222c:	f8450513          	addi	a0,a0,-124 # 5f84 <__global_pointer+0x197c>
    2230:	92cfe0ef          	jal	35c <pretty_print>
    2234:	47040513          	addi	a0,s0,1136
    2238:	034010ef          	jal	326c <print>
    223c:	47040513          	addi	a0,s0,1136
    2240:	02c010ef          	jal	326c <print>
    2244:	00006537          	lui	a0,0x6
    2248:	fb050513          	addi	a0,a0,-80 # 5fb0 <__global_pointer+0x19a8>
    224c:	020010ef          	jal	326c <print>
    2250:	00006537          	lui	a0,0x6
    2254:	fc450513          	addi	a0,a0,-60 # 5fc4 <__global_pointer+0x19bc>
    2258:	014010ef          	jal	326c <print>
    225c:	00006537          	lui	a0,0x6
    2260:	fd850513          	addi	a0,a0,-40 # 5fd8 <__global_pointer+0x19d0>
    2264:	008010ef          	jal	326c <print>
    2268:	00006537          	lui	a0,0x6
    226c:	fec50513          	addi	a0,a0,-20 # 5fec <__global_pointer+0x19e4>
    2270:	7fd000ef          	jal	326c <print>
    2274:	00006537          	lui	a0,0x6
    2278:	00050513          	mv	a0,a0
    227c:	7f1000ef          	jal	326c <print>
    2280:	00006537          	lui	a0,0x6
    2284:	01450513          	addi	a0,a0,20 # 6014 <__global_pointer+0x1a0c>
    2288:	7e5000ef          	jal	326c <print>
    228c:	00006537          	lui	a0,0x6
    2290:	02850513          	addi	a0,a0,40 # 6028 <__global_pointer+0x1a20>
    2294:	7d9000ef          	jal	326c <print>
    2298:	00006537          	lui	a0,0x6
    229c:	03c50513          	addi	a0,a0,60 # 603c <__global_pointer+0x1a34>
    22a0:	7cd000ef          	jal	326c <print>
    22a4:	00006537          	lui	a0,0x6
    22a8:	04c50513          	addi	a0,a0,76 # 604c <__global_pointer+0x1a44>
    22ac:	040004b7          	lui	s1,0x4000
    22b0:	04000437          	lui	s0,0x4000
    22b4:	7b9000ef          	jal	326c <print>
    22b8:	04000937          	lui	s2,0x4000
    22bc:	01048493          	addi	s1,s1,16 # 4000010 <_stack_end+0x3ef6800>
    22c0:	0d040413          	addi	s0,s0,208 # 40000d0 <_stack_end+0x3ef68c0>
    22c4:	00100a13          	li	s4,1
    22c8:	0004a783          	lw	a5,0(s1)
    22cc:	0037f713          	andi	a4,a5,3
    22d0:	00e90023          	sb	a4,0(s2) # 4000000 <_stack_end+0x3ef67f0>
    22d4:	00044703          	lbu	a4,0(s0)
    22d8:	0037f793          	andi	a5,a5,3
    22dc:	00177713          	andi	a4,a4,1
    22e0:	fe0704e3          	beqz	a4,22c8 <morning_routine+0x128>
    22e4:	09478c63          	beq	a5,s4,237c <morning_routine+0x1dc>
    22e8:	00200713          	li	a4,2
    22ec:	04e78063          	beq	a5,a4,232c <morning_routine+0x18c>
    22f0:	00004537          	lui	a0,0x4
    22f4:	e2450513          	addi	a0,a0,-476 # 3e24 <c_energy+0x18>
    22f8:	775000ef          	jal	326c <print>
    22fc:	06400713          	li	a4,100
    2300:	000077b7          	lui	a5,0x7
    2304:	53078793          	addi	a5,a5,1328 # 7530 <__global_pointer+0x2f28>
    2308:	00000013          	nop
    230c:	fff78793          	addi	a5,a5,-1
    2310:	fe079ce3          	bnez	a5,2308 <morning_routine+0x168>
    2314:	fff70713          	addi	a4,a4,-1
    2318:	fe0714e3          	bnez	a4,2300 <morning_routine+0x160>
    231c:	00004537          	lui	a0,0x4
    2320:	e1850513          	addi	a0,a0,-488 # 3e18 <c_energy+0xc>
    2324:	749000ef          	jal	326c <print>
    2328:	fa1ff06f          	j	22c8 <morning_routine+0x128>
    232c:	00006537          	lui	a0,0x6
    2330:	0f450513          	addi	a0,a0,244 # 60f4 <__global_pointer+0x1aec>
    2334:	828fe0ef          	jal	35c <pretty_print>
    2338:	0009a783          	lw	a5,0(s3)
    233c:	ffb78793          	addi	a5,a5,-5
    2340:	00f9a023          	sw	a5,0(s3)
    2344:	00006537          	lui	a0,0x6
    2348:	11450513          	addi	a0,a0,276 # 6114 <__global_pointer+0x1b0c>
    234c:	810fe0ef          	jal	35c <pretty_print>
    2350:	00c9a783          	lw	a5,12(s3)
    2354:	01c12083          	lw	ra,28(sp)
    2358:	01812403          	lw	s0,24(sp)
    235c:	00178793          	addi	a5,a5,1
    2360:	00f9a623          	sw	a5,12(s3)
    2364:	01412483          	lw	s1,20(sp)
    2368:	01012903          	lw	s2,16(sp)
    236c:	00c12983          	lw	s3,12(sp)
    2370:	00812a03          	lw	s4,8(sp)
    2374:	02010113          	addi	sp,sp,32
    2378:	00008067          	ret
    237c:	040007b7          	lui	a5,0x4000
    2380:	02079823          	sh	zero,48(a5) # 4000030 <_stack_end+0x3ef6820>
    2384:	0307d703          	lhu	a4,48(a5)
    2388:	00177793          	andi	a5,a4,1
    238c:	00078c63          	beqz	a5,23a4 <morning_routine+0x204>
    2390:	00006537          	lui	a0,0x6
    2394:	06050513          	addi	a0,a0,96 # 6060 <__global_pointer+0x1a58>
    2398:	fc5fd0ef          	jal	35c <pretty_print>
    239c:	0149a823          	sw	s4,16(s3)
    23a0:	fa5ff06f          	j	2344 <morning_routine+0x1a4>
    23a4:	00006537          	lui	a0,0x6
    23a8:	0a450513          	addi	a0,a0,164 # 60a4 <__global_pointer+0x1a9c>
    23ac:	fb1fd0ef          	jal	35c <pretty_print>
    23b0:	0009a783          	lw	a5,0(s3)
    23b4:	00a78793          	addi	a5,a5,10
    23b8:	00f9a023          	sw	a5,0(s3)
    23bc:	f89ff06f          	j	2344 <morning_routine+0x1a4>
    23c0:	00098513          	mv	a0,s3
    23c4:	885ff0ef          	jal	1c48 <game_over>

000023c8 <choose_outfit>:
    23c8:	00052783          	lw	a5,0(a0)
    23cc:	fd010113          	addi	sp,sp,-48
    23d0:	01312e23          	sw	s3,28(sp)
    23d4:	02112623          	sw	ra,44(sp)
    23d8:	02812423          	sw	s0,40(sp)
    23dc:	02912223          	sw	s1,36(sp)
    23e0:	03212023          	sw	s2,32(sp)
    23e4:	01412c23          	sw	s4,24(sp)
    23e8:	00050993          	mv	s3,a0
    23ec:	24f05063          	blez	a5,262c <choose_outfit+0x264>
    23f0:	00452783          	lw	a5,4(a0)
    23f4:	22f05c63          	blez	a5,262c <choose_outfit+0x264>
    23f8:	00004537          	lui	a0,0x4
    23fc:	e1050513          	addi	a0,a0,-496 # 3e10 <c_energy+0x4>
    2400:	66d000ef          	jal	326c <print>
    2404:	00098513          	mv	a0,s3
    2408:	00005437          	lui	s0,0x5
    240c:	84cfe0ef          	jal	458 <print_status>
    2410:	47040513          	addi	a0,s0,1136 # 5470 <__global_pointer+0xe68>
    2414:	659000ef          	jal	326c <print>
    2418:	47040513          	addi	a0,s0,1136
    241c:	651000ef          	jal	326c <print>
    2420:	00006537          	lui	a0,0x6
    2424:	14c50513          	addi	a0,a0,332 # 614c <__global_pointer+0x1b44>
    2428:	f35fd0ef          	jal	35c <pretty_print>
    242c:	00006537          	lui	a0,0x6
    2430:	17c50513          	addi	a0,a0,380 # 617c <__global_pointer+0x1b74>
    2434:	f29fd0ef          	jal	35c <pretty_print>
    2438:	00006537          	lui	a0,0x6
    243c:	1cc50513          	addi	a0,a0,460 # 61cc <__global_pointer+0x1bc4>
    2440:	f1dfd0ef          	jal	35c <pretty_print>
    2444:	00006537          	lui	a0,0x6
    2448:	21450513          	addi	a0,a0,532 # 6214 <__global_pointer+0x1c0c>
    244c:	f11fd0ef          	jal	35c <pretty_print>
    2450:	47040513          	addi	a0,s0,1136
    2454:	619000ef          	jal	326c <print>
    2458:	47040513          	addi	a0,s0,1136
    245c:	611000ef          	jal	326c <print>
    2460:	00006537          	lui	a0,0x6
    2464:	24450513          	addi	a0,a0,580 # 6244 <__global_pointer+0x1c3c>
    2468:	605000ef          	jal	326c <print>
    246c:	00006537          	lui	a0,0x6
    2470:	26850513          	addi	a0,a0,616 # 6268 <__global_pointer+0x1c60>
    2474:	5f9000ef          	jal	326c <print>
    2478:	00006537          	lui	a0,0x6
    247c:	28c50513          	addi	a0,a0,652 # 628c <__global_pointer+0x1c84>
    2480:	5ed000ef          	jal	326c <print>
    2484:	00006537          	lui	a0,0x6
    2488:	2b050513          	addi	a0,a0,688 # 62b0 <__global_pointer+0x1ca8>
    248c:	5e1000ef          	jal	326c <print>
    2490:	00006537          	lui	a0,0x6
    2494:	2e450513          	addi	a0,a0,740 # 62e4 <__global_pointer+0x1cdc>
    2498:	5d5000ef          	jal	326c <print>
    249c:	00006537          	lui	a0,0x6
    24a0:	31c50513          	addi	a0,a0,796 # 631c <__global_pointer+0x1d14>
    24a4:	5c9000ef          	jal	326c <print>
    24a8:	00006537          	lui	a0,0x6
    24ac:	35050513          	addi	a0,a0,848 # 6350 <__global_pointer+0x1d48>
    24b0:	5bd000ef          	jal	326c <print>
    24b4:	00006537          	lui	a0,0x6
    24b8:	38450513          	addi	a0,a0,900 # 6384 <__global_pointer+0x1d7c>
    24bc:	5b1000ef          	jal	326c <print>
    24c0:	00006537          	lui	a0,0x6
    24c4:	3b850513          	addi	a0,a0,952 # 63b8 <__global_pointer+0x1db0>
    24c8:	5a5000ef          	jal	326c <print>
    24cc:	00006537          	lui	a0,0x6
    24d0:	3ec50513          	addi	a0,a0,1004 # 63ec <__global_pointer+0x1de4>
    24d4:	599000ef          	jal	326c <print>
    24d8:	00006537          	lui	a0,0x6
    24dc:	42050513          	addi	a0,a0,1056 # 6420 <__global_pointer+0x1e18>
    24e0:	58d000ef          	jal	326c <print>
    24e4:	47040513          	addi	a0,s0,1136
    24e8:	585000ef          	jal	326c <print>
    24ec:	47040513          	addi	a0,s0,1136
    24f0:	040004b7          	lui	s1,0x4000
    24f4:	04000437          	lui	s0,0x4000
    24f8:	575000ef          	jal	326c <print>
    24fc:	04000937          	lui	s2,0x4000
    2500:	01048493          	addi	s1,s1,16 # 4000010 <_stack_end+0x3ef6800>
    2504:	0d040413          	addi	s0,s0,208 # 40000d0 <_stack_end+0x3ef68c0>
    2508:	00200a13          	li	s4,2
    250c:	0004a783          	lw	a5,0(s1)
    2510:	0077f713          	andi	a4,a5,7
    2514:	00e90023          	sb	a4,0(s2) # 4000000 <_stack_end+0x3ef67f0>
    2518:	00044703          	lbu	a4,0(s0)
    251c:	0077f793          	andi	a5,a5,7
    2520:	00177713          	andi	a4,a4,1
    2524:	fe0704e3          	beqz	a4,250c <choose_outfit+0x144>
    2528:	0d478863          	beq	a5,s4,25f8 <choose_outfit+0x230>
    252c:	00400713          	li	a4,4
    2530:	0ae78c63          	beq	a5,a4,25e8 <choose_outfit+0x220>
    2534:	00100713          	li	a4,1
    2538:	00f12623          	sw	a5,12(sp)
    253c:	04e78063          	beq	a5,a4,257c <choose_outfit+0x1b4>
    2540:	00004537          	lui	a0,0x4
    2544:	e2450513          	addi	a0,a0,-476 # 3e24 <c_energy+0x18>
    2548:	525000ef          	jal	326c <print>
    254c:	06400713          	li	a4,100
    2550:	000077b7          	lui	a5,0x7
    2554:	53078793          	addi	a5,a5,1328 # 7530 <__global_pointer+0x2f28>
    2558:	00000013          	nop
    255c:	fff78793          	addi	a5,a5,-1
    2560:	fe079ce3          	bnez	a5,2558 <choose_outfit+0x190>
    2564:	fff70713          	addi	a4,a4,-1
    2568:	fe0714e3          	bnez	a4,2550 <choose_outfit+0x188>
    256c:	00004537          	lui	a0,0x4
    2570:	e1850513          	addi	a0,a0,-488 # 3e18 <c_energy+0xc>
    2574:	4f9000ef          	jal	326c <print>
    2578:	f95ff06f          	j	250c <choose_outfit+0x144>
    257c:	00006537          	lui	a0,0x6
    2580:	45450513          	addi	a0,a0,1108 # 6454 <__global_pointer+0x1e4c>
    2584:	dd9fd0ef          	jal	35c <pretty_print>
    2588:	0089a703          	lw	a4,8(s3)
    258c:	00c12783          	lw	a5,12(sp)
    2590:	02f9ae23          	sw	a5,60(s3)
    2594:	00570793          	addi	a5,a4,5
    2598:	00f9a423          	sw	a5,8(s3)
    259c:	00c9a783          	lw	a5,12(s3)
    25a0:	00006537          	lui	a0,0x6
    25a4:	51850513          	addi	a0,a0,1304 # 6518 <__global_pointer+0x1f10>
    25a8:	00178793          	addi	a5,a5,1
    25ac:	00f9a623          	sw	a5,12(s3)
    25b0:	dadfd0ef          	jal	35c <pretty_print>
    25b4:	00006537          	lui	a0,0x6
    25b8:	56450513          	addi	a0,a0,1380 # 6564 <__global_pointer+0x1f5c>
    25bc:	da1fd0ef          	jal	35c <pretty_print>
    25c0:	02812403          	lw	s0,40(sp)
    25c4:	02c12083          	lw	ra,44(sp)
    25c8:	02412483          	lw	s1,36(sp)
    25cc:	02012903          	lw	s2,32(sp)
    25d0:	01c12983          	lw	s3,28(sp)
    25d4:	01812a03          	lw	s4,24(sp)
    25d8:	00006537          	lui	a0,0x6
    25dc:	5d450513          	addi	a0,a0,1492 # 65d4 <__global_pointer+0x1fcc>
    25e0:	03010113          	addi	sp,sp,48
    25e4:	d79fd06f          	j	35c <pretty_print>
    25e8:	00006537          	lui	a0,0x6
    25ec:	4dc50513          	addi	a0,a0,1244 # 64dc <__global_pointer+0x1ed4>
    25f0:	d6dfd0ef          	jal	35c <pretty_print>
    25f4:	fa9ff06f          	j	259c <choose_outfit+0x1d4>
    25f8:	00006537          	lui	a0,0x6
    25fc:	48050513          	addi	a0,a0,1152 # 6480 <__global_pointer+0x1e78>
    2600:	d5dfd0ef          	jal	35c <pretty_print>
    2604:	00006537          	lui	a0,0x6
    2608:	4b450513          	addi	a0,a0,1204 # 64b4 <__global_pointer+0x1eac>
    260c:	d51fd0ef          	jal	35c <pretty_print>
    2610:	0009a703          	lw	a4,0(s3)
    2614:	0089a783          	lw	a5,8(s3)
    2618:	00570713          	addi	a4,a4,5
    261c:	ffe78793          	addi	a5,a5,-2
    2620:	00e9a023          	sw	a4,0(s3)
    2624:	00f9a423          	sw	a5,8(s3)
    2628:	f75ff06f          	j	259c <choose_outfit+0x1d4>
    262c:	00098513          	mv	a0,s3
    2630:	e18ff0ef          	jal	1c48 <game_over>

00002634 <breakfast>:
    2634:	00052783          	lw	a5,0(a0)
    2638:	fd010113          	addi	sp,sp,-48
    263c:	01312e23          	sw	s3,28(sp)
    2640:	02112623          	sw	ra,44(sp)
    2644:	02812423          	sw	s0,40(sp)
    2648:	02912223          	sw	s1,36(sp)
    264c:	03212023          	sw	s2,32(sp)
    2650:	01412c23          	sw	s4,24(sp)
    2654:	00050993          	mv	s3,a0
    2658:	26f05063          	blez	a5,28b8 <breakfast+0x284>
    265c:	00452783          	lw	a5,4(a0)
    2660:	24f05c63          	blez	a5,28b8 <breakfast+0x284>
    2664:	00004537          	lui	a0,0x4
    2668:	e1050513          	addi	a0,a0,-496 # 3e10 <c_energy+0x4>
    266c:	401000ef          	jal	326c <print>
    2670:	00098513          	mv	a0,s3
    2674:	00005437          	lui	s0,0x5
    2678:	de1fd0ef          	jal	458 <print_status>
    267c:	47040513          	addi	a0,s0,1136 # 5470 <__global_pointer+0xe68>
    2680:	3ed000ef          	jal	326c <print>
    2684:	47040513          	addi	a0,s0,1136
    2688:	3e5000ef          	jal	326c <print>
    268c:	47040513          	addi	a0,s0,1136
    2690:	3dd000ef          	jal	326c <print>
    2694:	47040513          	addi	a0,s0,1136
    2698:	3d5000ef          	jal	326c <print>
    269c:	00006537          	lui	a0,0x6
    26a0:	62c50513          	addi	a0,a0,1580 # 662c <__global_pointer+0x2024>
    26a4:	cb9fd0ef          	jal	35c <pretty_print>
    26a8:	00006537          	lui	a0,0x6
    26ac:	65450513          	addi	a0,a0,1620 # 6654 <__global_pointer+0x204c>
    26b0:	cadfd0ef          	jal	35c <pretty_print>
    26b4:	00006537          	lui	a0,0x6
    26b8:	69450513          	addi	a0,a0,1684 # 6694 <__global_pointer+0x208c>
    26bc:	ca1fd0ef          	jal	35c <pretty_print>
    26c0:	00006537          	lui	a0,0x6
    26c4:	6e850513          	addi	a0,a0,1768 # 66e8 <__global_pointer+0x20e0>
    26c8:	00004437          	lui	s0,0x4
    26cc:	c91fd0ef          	jal	35c <pretty_print>
    26d0:	e8840513          	addi	a0,s0,-376 # 3e88 <c_energy+0x7c>
    26d4:	399000ef          	jal	326c <print>
    26d8:	e8840513          	addi	a0,s0,-376
    26dc:	391000ef          	jal	326c <print>
    26e0:	00006537          	lui	a0,0x6
    26e4:	73450513          	addi	a0,a0,1844 # 6734 <__global_pointer+0x212c>
    26e8:	385000ef          	jal	326c <print>
    26ec:	00006537          	lui	a0,0x6
    26f0:	79050513          	addi	a0,a0,1936 # 6790 <__global_pointer+0x2188>
    26f4:	000064b7          	lui	s1,0x6
    26f8:	375000ef          	jal	326c <print>
    26fc:	7ec48513          	addi	a0,s1,2028 # 67ec <__global_pointer+0x21e4>
    2700:	36d000ef          	jal	326c <print>
    2704:	00007537          	lui	a0,0x7
    2708:	84850513          	addi	a0,a0,-1976 # 6848 <__global_pointer+0x2240>
    270c:	361000ef          	jal	326c <print>
    2710:	00007537          	lui	a0,0x7
    2714:	8a450513          	addi	a0,a0,-1884 # 68a4 <__global_pointer+0x229c>
    2718:	355000ef          	jal	326c <print>
    271c:	00007537          	lui	a0,0x7
    2720:	90050513          	addi	a0,a0,-1792 # 6900 <__global_pointer+0x22f8>
    2724:	349000ef          	jal	326c <print>
    2728:	00007537          	lui	a0,0x7
    272c:	95c50513          	addi	a0,a0,-1700 # 695c <__global_pointer+0x2354>
    2730:	33d000ef          	jal	326c <print>
    2734:	7ec48513          	addi	a0,s1,2028
    2738:	335000ef          	jal	326c <print>
    273c:	7ec48513          	addi	a0,s1,2028
    2740:	32d000ef          	jal	326c <print>
    2744:	00007537          	lui	a0,0x7
    2748:	9b850513          	addi	a0,a0,-1608 # 69b8 <__global_pointer+0x23b0>
    274c:	321000ef          	jal	326c <print>
    2750:	e8840513          	addi	a0,s0,-376
    2754:	319000ef          	jal	326c <print>
    2758:	e8840513          	addi	a0,s0,-376
    275c:	040004b7          	lui	s1,0x4000
    2760:	04000437          	lui	s0,0x4000
    2764:	309000ef          	jal	326c <print>
    2768:	04000937          	lui	s2,0x4000
    276c:	01048493          	addi	s1,s1,16 # 4000010 <_stack_end+0x3ef6800>
    2770:	0d040413          	addi	s0,s0,208 # 40000d0 <_stack_end+0x3ef68c0>
    2774:	00200a13          	li	s4,2
    2778:	0004a783          	lw	a5,0(s1)
    277c:	0077f713          	andi	a4,a5,7
    2780:	00e90023          	sb	a4,0(s2) # 4000000 <_stack_end+0x3ef67f0>
    2784:	00044703          	lbu	a4,0(s0)
    2788:	0077f793          	andi	a5,a5,7
    278c:	00177713          	andi	a4,a4,1
    2790:	fe0704e3          	beqz	a4,2778 <breakfast+0x144>
    2794:	0f478863          	beq	a5,s4,2884 <breakfast+0x250>
    2798:	00400713          	li	a4,4
    279c:	0ae78c63          	beq	a5,a4,2854 <breakfast+0x220>
    27a0:	00100713          	li	a4,1
    27a4:	00f12623          	sw	a5,12(sp)
    27a8:	04e78063          	beq	a5,a4,27e8 <breakfast+0x1b4>
    27ac:	00004537          	lui	a0,0x4
    27b0:	e2450513          	addi	a0,a0,-476 # 3e24 <c_energy+0x18>
    27b4:	2b9000ef          	jal	326c <print>
    27b8:	06400713          	li	a4,100
    27bc:	000077b7          	lui	a5,0x7
    27c0:	53078793          	addi	a5,a5,1328 # 7530 <__global_pointer+0x2f28>
    27c4:	00000013          	nop
    27c8:	fff78793          	addi	a5,a5,-1
    27cc:	fe079ce3          	bnez	a5,27c4 <breakfast+0x190>
    27d0:	fff70713          	addi	a4,a4,-1
    27d4:	fe0714e3          	bnez	a4,27bc <breakfast+0x188>
    27d8:	00004537          	lui	a0,0x4
    27dc:	e1850513          	addi	a0,a0,-488 # 3e18 <c_energy+0xc>
    27e0:	28d000ef          	jal	326c <print>
    27e4:	f95ff06f          	j	2778 <breakfast+0x144>
    27e8:	00007537          	lui	a0,0x7
    27ec:	a1450513          	addi	a0,a0,-1516 # 6a14 <__global_pointer+0x240c>
    27f0:	b6dfd0ef          	jal	35c <pretty_print>
    27f4:	0009a683          	lw	a3,0(s3)
    27f8:	0049a703          	lw	a4,4(s3)
    27fc:	00c12783          	lw	a5,12(sp)
    2800:	00a68693          	addi	a3,a3,10
    2804:	00d9a023          	sw	a3,0(s3)
    2808:	00f9ae23          	sw	a5,28(s3)
    280c:	ffb70793          	addi	a5,a4,-5
    2810:	00f9a223          	sw	a5,4(s3)
    2814:	00c9a783          	lw	a5,12(s3)
    2818:	00007537          	lui	a0,0x7
    281c:	adc50513          	addi	a0,a0,-1316 # 6adc <__global_pointer+0x24d4>
    2820:	00178793          	addi	a5,a5,1
    2824:	00f9a623          	sw	a5,12(s3)
    2828:	b35fd0ef          	jal	35c <pretty_print>
    282c:	02812403          	lw	s0,40(sp)
    2830:	02c12083          	lw	ra,44(sp)
    2834:	02412483          	lw	s1,36(sp)
    2838:	02012903          	lw	s2,32(sp)
    283c:	01c12983          	lw	s3,28(sp)
    2840:	01812a03          	lw	s4,24(sp)
    2844:	00007537          	lui	a0,0x7
    2848:	b2c50513          	addi	a0,a0,-1236 # 6b2c <__global_pointer+0x2524>
    284c:	03010113          	addi	sp,sp,48
    2850:	b0dfd06f          	j	35c <pretty_print>
    2854:	00007537          	lui	a0,0x7
    2858:	a7c50513          	addi	a0,a0,-1412 # 6a7c <__global_pointer+0x2474>
    285c:	b01fd0ef          	jal	35c <pretty_print>
    2860:	00007537          	lui	a0,0x7
    2864:	aa850513          	addi	a0,a0,-1368 # 6aa8 <__global_pointer+0x24a0>
    2868:	af5fd0ef          	jal	35c <pretty_print>
    286c:	0009a783          	lw	a5,0(s3)
    2870:	00100713          	li	a4,1
    2874:	00e9ac23          	sw	a4,24(s3)
    2878:	00378793          	addi	a5,a5,3
    287c:	00f9a023          	sw	a5,0(s3)
    2880:	f95ff06f          	j	2814 <breakfast+0x1e0>
    2884:	00007537          	lui	a0,0x7
    2888:	a4850513          	addi	a0,a0,-1464 # 6a48 <__global_pointer+0x2440>
    288c:	ad1fd0ef          	jal	35c <pretty_print>
    2890:	0009a683          	lw	a3,0(s3)
    2894:	0049a703          	lw	a4,4(s3)
    2898:	0089a783          	lw	a5,8(s3)
    289c:	00568693          	addi	a3,a3,5
    28a0:	ff670713          	addi	a4,a4,-10
    28a4:	00278793          	addi	a5,a5,2
    28a8:	00d9a023          	sw	a3,0(s3)
    28ac:	00e9a223          	sw	a4,4(s3)
    28b0:	00f9a423          	sw	a5,8(s3)
    28b4:	f61ff06f          	j	2814 <breakfast+0x1e0>
    28b8:	00098513          	mv	a0,s3
    28bc:	b8cff0ef          	jal	1c48 <game_over>

000028c0 <toilet>:
    28c0:	00052783          	lw	a5,0(a0)
    28c4:	fe010113          	addi	sp,sp,-32
    28c8:	00812c23          	sw	s0,24(sp)
    28cc:	00112e23          	sw	ra,28(sp)
    28d0:	00912a23          	sw	s1,20(sp)
    28d4:	01212823          	sw	s2,16(sp)
    28d8:	01312623          	sw	s3,12(sp)
    28dc:	01412423          	sw	s4,8(sp)
    28e0:	00050413          	mv	s0,a0
    28e4:	34f05263          	blez	a5,2c28 <toilet+0x368>
    28e8:	00452783          	lw	a5,4(a0)
    28ec:	32f05e63          	blez	a5,2c28 <toilet+0x368>
    28f0:	00004537          	lui	a0,0x4
    28f4:	e1050513          	addi	a0,a0,-496 # 3e10 <c_energy+0x4>
    28f8:	175000ef          	jal	326c <print>
    28fc:	00040513          	mv	a0,s0
    2900:	b59fd0ef          	jal	458 <print_status>
    2904:	000054b7          	lui	s1,0x5
    2908:	47048513          	addi	a0,s1,1136 # 5470 <__global_pointer+0xe68>
    290c:	161000ef          	jal	326c <print>
    2910:	47048513          	addi	a0,s1,1136
    2914:	159000ef          	jal	326c <print>
    2918:	00007537          	lui	a0,0x7
    291c:	b6c50513          	addi	a0,a0,-1172 # 6b6c <__global_pointer+0x2564>
    2920:	14d000ef          	jal	326c <print>
    2924:	00007537          	lui	a0,0x7
    2928:	b7c50513          	addi	a0,a0,-1156 # 6b7c <__global_pointer+0x2574>
    292c:	141000ef          	jal	326c <print>
    2930:	00007537          	lui	a0,0x7
    2934:	b8c50513          	addi	a0,a0,-1140 # 6b8c <__global_pointer+0x2584>
    2938:	135000ef          	jal	326c <print>
    293c:	00007537          	lui	a0,0x7
    2940:	ba050513          	addi	a0,a0,-1120 # 6ba0 <__global_pointer+0x2598>
    2944:	129000ef          	jal	326c <print>
    2948:	00007537          	lui	a0,0x7
    294c:	bc050513          	addi	a0,a0,-1088 # 6bc0 <__global_pointer+0x25b8>
    2950:	11d000ef          	jal	326c <print>
    2954:	00007537          	lui	a0,0x7
    2958:	be050513          	addi	a0,a0,-1056 # 6be0 <__global_pointer+0x25d8>
    295c:	111000ef          	jal	326c <print>
    2960:	00007537          	lui	a0,0x7
    2964:	c0050513          	addi	a0,a0,-1024 # 6c00 <__global_pointer+0x25f8>
    2968:	105000ef          	jal	326c <print>
    296c:	00007537          	lui	a0,0x7
    2970:	c2450513          	addi	a0,a0,-988 # 6c24 <__global_pointer+0x261c>
    2974:	0f9000ef          	jal	326c <print>
    2978:	00007537          	lui	a0,0x7
    297c:	c4450513          	addi	a0,a0,-956 # 6c44 <__global_pointer+0x263c>
    2980:	0ed000ef          	jal	326c <print>
    2984:	00007537          	lui	a0,0x7
    2988:	c6450513          	addi	a0,a0,-924 # 6c64 <__global_pointer+0x265c>
    298c:	0e1000ef          	jal	326c <print>
    2990:	00007537          	lui	a0,0x7
    2994:	c8450513          	addi	a0,a0,-892 # 6c84 <__global_pointer+0x267c>
    2998:	0d5000ef          	jal	326c <print>
    299c:	00007537          	lui	a0,0x7
    29a0:	ca450513          	addi	a0,a0,-860 # 6ca4 <__global_pointer+0x269c>
    29a4:	0c9000ef          	jal	326c <print>
    29a8:	00007537          	lui	a0,0x7
    29ac:	cc450513          	addi	a0,a0,-828 # 6cc4 <__global_pointer+0x26bc>
    29b0:	0bd000ef          	jal	326c <print>
    29b4:	00007537          	lui	a0,0x7
    29b8:	ce450513          	addi	a0,a0,-796 # 6ce4 <__global_pointer+0x26dc>
    29bc:	0b1000ef          	jal	326c <print>
    29c0:	00007537          	lui	a0,0x7
    29c4:	d0050513          	addi	a0,a0,-768 # 6d00 <__global_pointer+0x26f8>
    29c8:	0a5000ef          	jal	326c <print>
    29cc:	00007537          	lui	a0,0x7
    29d0:	d1850513          	addi	a0,a0,-744 # 6d18 <__global_pointer+0x2710>
    29d4:	099000ef          	jal	326c <print>
    29d8:	00007537          	lui	a0,0x7
    29dc:	d3050513          	addi	a0,a0,-720 # 6d30 <__global_pointer+0x2728>
    29e0:	08d000ef          	jal	326c <print>
    29e4:	00007537          	lui	a0,0x7
    29e8:	d4450513          	addi	a0,a0,-700 # 6d44 <__global_pointer+0x273c>
    29ec:	081000ef          	jal	326c <print>
    29f0:	00007537          	lui	a0,0x7
    29f4:	d6450513          	addi	a0,a0,-668 # 6d64 <__global_pointer+0x275c>
    29f8:	075000ef          	jal	326c <print>
    29fc:	00007537          	lui	a0,0x7
    2a00:	d7c50513          	addi	a0,a0,-644 # 6d7c <__global_pointer+0x2774>
    2a04:	069000ef          	jal	326c <print>
    2a08:	00007537          	lui	a0,0x7
    2a0c:	d9450513          	addi	a0,a0,-620 # 6d94 <__global_pointer+0x278c>
    2a10:	94dfd0ef          	jal	35c <pretty_print>
    2a14:	00007537          	lui	a0,0x7
    2a18:	dbc50513          	addi	a0,a0,-580 # 6dbc <__global_pointer+0x27b4>
    2a1c:	941fd0ef          	jal	35c <pretty_print>
    2a20:	00007537          	lui	a0,0x7
    2a24:	dd050513          	addi	a0,a0,-560 # 6dd0 <__global_pointer+0x27c8>
    2a28:	935fd0ef          	jal	35c <pretty_print>
    2a2c:	00007537          	lui	a0,0x7
    2a30:	e0c50513          	addi	a0,a0,-500 # 6e0c <__global_pointer+0x2804>
    2a34:	929fd0ef          	jal	35c <pretty_print>
    2a38:	02442703          	lw	a4,36(s0)
    2a3c:	00100793          	li	a5,1
    2a40:	1cf70063          	beq	a4,a5,2c00 <toilet+0x340>
    2a44:	04000937          	lui	s2,0x4000
    2a48:	040004b7          	lui	s1,0x4000
    2a4c:	040009b7          	lui	s3,0x4000
    2a50:	01090913          	addi	s2,s2,16 # 4000010 <_stack_end+0x3ef6800>
    2a54:	0d048493          	addi	s1,s1,208 # 40000d0 <_stack_end+0x3ef68c0>
    2a58:	00200a13          	li	s4,2
    2a5c:	00092783          	lw	a5,0(s2)
    2a60:	0077f713          	andi	a4,a5,7
    2a64:	00e98023          	sb	a4,0(s3) # 4000000 <_stack_end+0x3ef67f0>
    2a68:	0004c703          	lbu	a4,0(s1)
    2a6c:	0077f793          	andi	a5,a5,7
    2a70:	00177713          	andi	a4,a4,1
    2a74:	06070863          	beqz	a4,2ae4 <toilet+0x224>
    2a78:	13478063          	beq	a5,s4,2b98 <toilet+0x2d8>
    2a7c:	00400713          	li	a4,4
    2a80:	0ae78863          	beq	a5,a4,2b30 <toilet+0x270>
    2a84:	00100713          	li	a4,1
    2a88:	06e79663          	bne	a5,a4,2af4 <toilet+0x234>
    2a8c:	00007537          	lui	a0,0x7
    2a90:	e9c50513          	addi	a0,a0,-356 # 6e9c <__global_pointer+0x2894>
    2a94:	8c9fd0ef          	jal	35c <pretty_print>
    2a98:	00007537          	lui	a0,0x7
    2a9c:	ed050513          	addi	a0,a0,-304 # 6ed0 <__global_pointer+0x28c8>
    2aa0:	8bdfd0ef          	jal	35c <pretty_print>
    2aa4:	040007b7          	lui	a5,0x4000
    2aa8:	02079823          	sh	zero,48(a5) # 4000030 <_stack_end+0x3ef6820>
    2aac:	0307d703          	lhu	a4,48(a5)
    2ab0:	00177793          	andi	a5,a4,1
    2ab4:	14079e63          	bnez	a5,2c10 <toilet+0x350>
    2ab8:	00842783          	lw	a5,8(s0)
    2abc:	ffe78793          	addi	a5,a5,-2
    2ac0:	01c12083          	lw	ra,28(sp)
    2ac4:	00f42423          	sw	a5,8(s0)
    2ac8:	01812403          	lw	s0,24(sp)
    2acc:	01412483          	lw	s1,20(sp)
    2ad0:	01012903          	lw	s2,16(sp)
    2ad4:	00c12983          	lw	s3,12(sp)
    2ad8:	00812a03          	lw	s4,8(sp)
    2adc:	02010113          	addi	sp,sp,32
    2ae0:	00008067          	ret
    2ae4:	00c42783          	lw	a5,12(s0)
    2ae8:	00178793          	addi	a5,a5,1
    2aec:	00f42623          	sw	a5,12(s0)
    2af0:	f6dff06f          	j	2a5c <toilet+0x19c>
    2af4:	00004537          	lui	a0,0x4
    2af8:	e2450513          	addi	a0,a0,-476 # 3e24 <c_energy+0x18>
    2afc:	770000ef          	jal	326c <print>
    2b00:	06400713          	li	a4,100
    2b04:	000077b7          	lui	a5,0x7
    2b08:	53078793          	addi	a5,a5,1328 # 7530 <__global_pointer+0x2f28>
    2b0c:	00000013          	nop
    2b10:	fff78793          	addi	a5,a5,-1
    2b14:	fe079ce3          	bnez	a5,2b0c <toilet+0x24c>
    2b18:	fff70713          	addi	a4,a4,-1
    2b1c:	fe0714e3          	bnez	a4,2b04 <toilet+0x244>
    2b20:	00004537          	lui	a0,0x4
    2b24:	e1850513          	addi	a0,a0,-488 # 3e18 <c_energy+0xc>
    2b28:	744000ef          	jal	326c <print>
    2b2c:	f31ff06f          	j	2a5c <toilet+0x19c>
    2b30:	00007537          	lui	a0,0x7
    2b34:	ff450513          	addi	a0,a0,-12 # 6ff4 <__global_pointer+0x29ec>
    2b38:	825fd0ef          	jal	35c <pretty_print>
    2b3c:	00007537          	lui	a0,0x7
    2b40:	01850513          	addi	a0,a0,24 # 7018 <__global_pointer+0x2a10>
    2b44:	819fd0ef          	jal	35c <pretty_print>
    2b48:	00007537          	lui	a0,0x7
    2b4c:	03c50513          	addi	a0,a0,60 # 703c <__global_pointer+0x2a34>
    2b50:	80dfd0ef          	jal	35c <pretty_print>
    2b54:	00007537          	lui	a0,0x7
    2b58:	05450513          	addi	a0,a0,84 # 7054 <__global_pointer+0x2a4c>
    2b5c:	801fd0ef          	jal	35c <pretty_print>
    2b60:	00007537          	lui	a0,0x7
    2b64:	09050513          	addi	a0,a0,144 # 7090 <__global_pointer+0x2a88>
    2b68:	ff4fd0ef          	jal	35c <pretty_print>
    2b6c:	00042783          	lw	a5,0(s0)
    2b70:	01c12083          	lw	ra,28(sp)
    2b74:	01412483          	lw	s1,20(sp)
    2b78:	00a78793          	addi	a5,a5,10
    2b7c:	00f42023          	sw	a5,0(s0)
    2b80:	01812403          	lw	s0,24(sp)
    2b84:	01012903          	lw	s2,16(sp)
    2b88:	00c12983          	lw	s3,12(sp)
    2b8c:	00812a03          	lw	s4,8(sp)
    2b90:	02010113          	addi	sp,sp,32
    2b94:	00008067          	ret
    2b98:	00007537          	lui	a0,0x7
    2b9c:	f5850513          	addi	a0,a0,-168 # 6f58 <__global_pointer+0x2950>
    2ba0:	fbcfd0ef          	jal	35c <pretty_print>
    2ba4:	00007537          	lui	a0,0x7
    2ba8:	f7c50513          	addi	a0,a0,-132 # 6f7c <__global_pointer+0x2974>
    2bac:	fb0fd0ef          	jal	35c <pretty_print>
    2bb0:	00007537          	lui	a0,0x7
    2bb4:	fa850513          	addi	a0,a0,-88 # 6fa8 <__global_pointer+0x29a0>
    2bb8:	fa4fd0ef          	jal	35c <pretty_print>
    2bbc:	00007537          	lui	a0,0x7
    2bc0:	fd450513          	addi	a0,a0,-44 # 6fd4 <__global_pointer+0x29cc>
    2bc4:	f98fd0ef          	jal	35c <pretty_print>
    2bc8:	00842703          	lw	a4,8(s0)
    2bcc:	00042783          	lw	a5,0(s0)
    2bd0:	01c12083          	lw	ra,28(sp)
    2bd4:	00570713          	addi	a4,a4,5
    2bd8:	ffc78793          	addi	a5,a5,-4
    2bdc:	00e42423          	sw	a4,8(s0)
    2be0:	00f42023          	sw	a5,0(s0)
    2be4:	01812403          	lw	s0,24(sp)
    2be8:	01412483          	lw	s1,20(sp)
    2bec:	01012903          	lw	s2,16(sp)
    2bf0:	00c12983          	lw	s3,12(sp)
    2bf4:	00812a03          	lw	s4,8(sp)
    2bf8:	02010113          	addi	sp,sp,32
    2bfc:	00008067          	ret
    2c00:	00007537          	lui	a0,0x7
    2c04:	e5850513          	addi	a0,a0,-424 # 6e58 <__global_pointer+0x2850>
    2c08:	f54fd0ef          	jal	35c <pretty_print>
    2c0c:	e39ff06f          	j	2a44 <toilet+0x184>
    2c10:	00007537          	lui	a0,0x7
    2c14:	f1050513          	addi	a0,a0,-240 # 6f10 <__global_pointer+0x2908>
    2c18:	f44fd0ef          	jal	35c <pretty_print>
    2c1c:	00842783          	lw	a5,8(s0)
    2c20:	ffb78793          	addi	a5,a5,-5
    2c24:	e99ff06f          	j	2abc <toilet+0x1fc>
    2c28:	00040513          	mv	a0,s0
    2c2c:	81cff0ef          	jal	1c48 <game_over>

00002c30 <desk>:
    2c30:	01852783          	lw	a5,24(a0)
    2c34:	fe010113          	addi	sp,sp,-32
    2c38:	01312623          	sw	s3,12(sp)
    2c3c:	00112e23          	sw	ra,28(sp)
    2c40:	00812c23          	sw	s0,24(sp)
    2c44:	00912a23          	sw	s1,20(sp)
    2c48:	01212823          	sw	s2,16(sp)
    2c4c:	01412423          	sw	s4,8(sp)
    2c50:	00050993          	mv	s3,a0
    2c54:	30079063          	bnez	a5,2f54 <desk+0x324>
    2c58:	0009a783          	lw	a5,0(s3)
    2c5c:	50f05463          	blez	a5,3164 <desk+0x534>
    2c60:	0049a783          	lw	a5,4(s3)
    2c64:	50f05063          	blez	a5,3164 <desk+0x534>
    2c68:	00004537          	lui	a0,0x4
    2c6c:	e1050513          	addi	a0,a0,-496 # 3e10 <c_energy+0x4>
    2c70:	5fc000ef          	jal	326c <print>
    2c74:	00098513          	mv	a0,s3
    2c78:	00005437          	lui	s0,0x5
    2c7c:	fdcfd0ef          	jal	458 <print_status>
    2c80:	47040513          	addi	a0,s0,1136 # 5470 <__global_pointer+0xe68>
    2c84:	5e8000ef          	jal	326c <print>
    2c88:	47040513          	addi	a0,s0,1136
    2c8c:	5e0000ef          	jal	326c <print>
    2c90:	47040513          	addi	a0,s0,1136
    2c94:	5d8000ef          	jal	326c <print>
    2c98:	47040513          	addi	a0,s0,1136
    2c9c:	5d0000ef          	jal	326c <print>
    2ca0:	00007537          	lui	a0,0x7
    2ca4:	24050513          	addi	a0,a0,576 # 7240 <__global_pointer+0x2c38>
    2ca8:	eb4fd0ef          	jal	35c <pretty_print>
    2cac:	00007537          	lui	a0,0x7
    2cb0:	28450513          	addi	a0,a0,644 # 7284 <__global_pointer+0x2c7c>
    2cb4:	5b8000ef          	jal	326c <print>
    2cb8:	00007537          	lui	a0,0x7
    2cbc:	2cc50513          	addi	a0,a0,716 # 72cc <__global_pointer+0x2cc4>
    2cc0:	5ac000ef          	jal	326c <print>
    2cc4:	00007537          	lui	a0,0x7
    2cc8:	31450513          	addi	a0,a0,788 # 7314 <__global_pointer+0x2d0c>
    2ccc:	5a0000ef          	jal	326c <print>
    2cd0:	00007537          	lui	a0,0x7
    2cd4:	35c50513          	addi	a0,a0,860 # 735c <__global_pointer+0x2d54>
    2cd8:	594000ef          	jal	326c <print>
    2cdc:	00007537          	lui	a0,0x7
    2ce0:	3a850513          	addi	a0,a0,936 # 73a8 <__global_pointer+0x2da0>
    2ce4:	588000ef          	jal	326c <print>
    2ce8:	00007537          	lui	a0,0x7
    2cec:	3f050513          	addi	a0,a0,1008 # 73f0 <__global_pointer+0x2de8>
    2cf0:	57c000ef          	jal	326c <print>
    2cf4:	00007537          	lui	a0,0x7
    2cf8:	43850513          	addi	a0,a0,1080 # 7438 <__global_pointer+0x2e30>
    2cfc:	570000ef          	jal	326c <print>
    2d00:	00007537          	lui	a0,0x7
    2d04:	48050513          	addi	a0,a0,1152 # 7480 <__global_pointer+0x2e78>
    2d08:	564000ef          	jal	326c <print>
    2d0c:	00007537          	lui	a0,0x7
    2d10:	4c850513          	addi	a0,a0,1224 # 74c8 <__global_pointer+0x2ec0>
    2d14:	558000ef          	jal	326c <print>
    2d18:	00007537          	lui	a0,0x7
    2d1c:	4fc50513          	addi	a0,a0,1276 # 74fc <__global_pointer+0x2ef4>
    2d20:	54c000ef          	jal	326c <print>
    2d24:	00007537          	lui	a0,0x7
    2d28:	54050513          	addi	a0,a0,1344 # 7540 <__global_pointer+0x2f38>
    2d2c:	540000ef          	jal	326c <print>
    2d30:	00007537          	lui	a0,0x7
    2d34:	58850513          	addi	a0,a0,1416 # 7588 <__global_pointer+0x2f80>
    2d38:	534000ef          	jal	326c <print>
    2d3c:	47040513          	addi	a0,s0,1136
    2d40:	52c000ef          	jal	326c <print>
    2d44:	47040513          	addi	a0,s0,1136
    2d48:	524000ef          	jal	326c <print>
    2d4c:	00007537          	lui	a0,0x7
    2d50:	5d450513          	addi	a0,a0,1492 # 75d4 <__global_pointer+0x2fcc>
    2d54:	e08fd0ef          	jal	35c <pretty_print>
    2d58:	00007537          	lui	a0,0x7
    2d5c:	5fc50513          	addi	a0,a0,1532 # 75fc <__global_pointer+0x2ff4>
    2d60:	dfcfd0ef          	jal	35c <pretty_print>
    2d64:	00007537          	lui	a0,0x7
    2d68:	62c50513          	addi	a0,a0,1580 # 762c <__global_pointer+0x3024>
    2d6c:	040004b7          	lui	s1,0x4000
    2d70:	04000437          	lui	s0,0x4000
    2d74:	de8fd0ef          	jal	35c <pretty_print>
    2d78:	04000937          	lui	s2,0x4000
    2d7c:	01048493          	addi	s1,s1,16 # 4000010 <_stack_end+0x3ef6800>
    2d80:	0d040413          	addi	s0,s0,208 # 40000d0 <_stack_end+0x3ef68c0>
    2d84:	00200a13          	li	s4,2
    2d88:	0004a783          	lw	a5,0(s1)
    2d8c:	0077f713          	andi	a4,a5,7
    2d90:	00e90023          	sb	a4,0(s2) # 4000000 <_stack_end+0x3ef67f0>
    2d94:	00044703          	lbu	a4,0(s0)
    2d98:	0077f793          	andi	a5,a5,7
    2d9c:	00177713          	andi	a4,a4,1
    2da0:	fe0704e3          	beqz	a4,2d88 <desk+0x158>
    2da4:	11478463          	beq	a5,s4,2eac <desk+0x27c>
    2da8:	00400713          	li	a4,4
    2dac:	0ae78663          	beq	a5,a4,2e58 <desk+0x228>
    2db0:	00100713          	li	a4,1
    2db4:	04e78063          	beq	a5,a4,2df4 <desk+0x1c4>
    2db8:	00004537          	lui	a0,0x4
    2dbc:	e2450513          	addi	a0,a0,-476 # 3e24 <c_energy+0x18>
    2dc0:	4ac000ef          	jal	326c <print>
    2dc4:	06400713          	li	a4,100
    2dc8:	000077b7          	lui	a5,0x7
    2dcc:	53078793          	addi	a5,a5,1328 # 7530 <__global_pointer+0x2f28>
    2dd0:	00000013          	nop
    2dd4:	fff78793          	addi	a5,a5,-1
    2dd8:	fe079ce3          	bnez	a5,2dd0 <desk+0x1a0>
    2ddc:	fff70713          	addi	a4,a4,-1
    2de0:	fe0714e3          	bnez	a4,2dc8 <desk+0x198>
    2de4:	00004537          	lui	a0,0x4
    2de8:	e1850513          	addi	a0,a0,-488 # 3e18 <c_energy+0xc>
    2dec:	480000ef          	jal	326c <print>
    2df0:	f99ff06f          	j	2d88 <desk+0x158>
    2df4:	0289a783          	lw	a5,40(s3)
    2df8:	30079c63          	bnez	a5,3110 <desk+0x4e0>
    2dfc:	03c9a783          	lw	a5,60(s3)
    2e00:	20078263          	beqz	a5,3004 <desk+0x3d4>
    2e04:	00007537          	lui	a0,0x7
    2e08:	70450513          	addi	a0,a0,1796 # 7704 <__global_pointer+0x30fc>
    2e0c:	d50fd0ef          	jal	35c <pretty_print>
    2e10:	01400713          	li	a4,20
    2e14:	000077b7          	lui	a5,0x7
    2e18:	53078793          	addi	a5,a5,1328 # 7530 <__global_pointer+0x2f28>
    2e1c:	00000013          	nop
    2e20:	fff78793          	addi	a5,a5,-1
    2e24:	fe079ce3          	bnez	a5,2e1c <desk+0x1ec>
    2e28:	fff70713          	addi	a4,a4,-1
    2e2c:	fe0714e3          	bnez	a4,2e14 <desk+0x1e4>
    2e30:	00007537          	lui	a0,0x7
    2e34:	72c50513          	addi	a0,a0,1836 # 772c <__global_pointer+0x3124>
    2e38:	d24fd0ef          	jal	35c <pretty_print>
    2e3c:	00007537          	lui	a0,0x7
    2e40:	74c50513          	addi	a0,a0,1868 # 774c <__global_pointer+0x3144>
    2e44:	d18fd0ef          	jal	35c <pretty_print>
    2e48:	0049a783          	lw	a5,4(s3)
    2e4c:	06478793          	addi	a5,a5,100
    2e50:	00f9a223          	sw	a5,4(s3)
    2e54:	0240006f          	j	2e78 <desk+0x248>
    2e58:	00008537          	lui	a0,0x8
    2e5c:	9e450513          	addi	a0,a0,-1564 # 79e4 <__global_pointer+0x33dc>
    2e60:	cfcfd0ef          	jal	35c <pretty_print>
    2e64:	00008537          	lui	a0,0x8
    2e68:	a1450513          	addi	a0,a0,-1516 # 7a14 <__global_pointer+0x340c>
    2e6c:	cf0fd0ef          	jal	35c <pretty_print>
    2e70:	00100793          	li	a5,1
    2e74:	00f9aa23          	sw	a5,20(s3)
    2e78:	00c9a783          	lw	a5,12(s3)
    2e7c:	01812403          	lw	s0,24(sp)
    2e80:	01c12083          	lw	ra,28(sp)
    2e84:	00178793          	addi	a5,a5,1
    2e88:	01412483          	lw	s1,20(sp)
    2e8c:	01012903          	lw	s2,16(sp)
    2e90:	00812a03          	lw	s4,8(sp)
    2e94:	00f9a623          	sw	a5,12(s3)
    2e98:	00c12983          	lw	s3,12(sp)
    2e9c:	00008537          	lui	a0,0x8
    2ea0:	a4c50513          	addi	a0,a0,-1460 # 7a4c <__global_pointer+0x3444>
    2ea4:	02010113          	addi	sp,sp,32
    2ea8:	cb4fd06f          	j	35c <pretty_print>
    2eac:	00008537          	lui	a0,0x8
    2eb0:	8cc50513          	addi	a0,a0,-1844 # 78cc <__global_pointer+0x32c4>
    2eb4:	ca8fd0ef          	jal	35c <pretty_print>
    2eb8:	00008537          	lui	a0,0x8
    2ebc:	91850513          	addi	a0,a0,-1768 # 7918 <__global_pointer+0x3310>
    2ec0:	c9cfd0ef          	jal	35c <pretty_print>
    2ec4:	00008537          	lui	a0,0x8
    2ec8:	94850513          	addi	a0,a0,-1720 # 7948 <__global_pointer+0x3340>
    2ecc:	c90fd0ef          	jal	35c <pretty_print>
    2ed0:	00008537          	lui	a0,0x8
    2ed4:	97c50513          	addi	a0,a0,-1668 # 797c <__global_pointer+0x3374>
    2ed8:	394000ef          	jal	326c <print>
    2edc:	00500713          	li	a4,5
    2ee0:	000077b7          	lui	a5,0x7
    2ee4:	53078793          	addi	a5,a5,1328 # 7530 <__global_pointer+0x2f28>
    2ee8:	00000013          	nop
    2eec:	fff78793          	addi	a5,a5,-1
    2ef0:	fe079ce3          	bnez	a5,2ee8 <desk+0x2b8>
    2ef4:	fff70713          	addi	a4,a4,-1
    2ef8:	fe0714e3          	bnez	a4,2ee0 <desk+0x2b0>
    2efc:	00008537          	lui	a0,0x8
    2f00:	98450513          	addi	a0,a0,-1660 # 7984 <__global_pointer+0x337c>
    2f04:	368000ef          	jal	326c <print>
    2f08:	00500713          	li	a4,5
    2f0c:	000077b7          	lui	a5,0x7
    2f10:	53078793          	addi	a5,a5,1328 # 7530 <__global_pointer+0x2f28>
    2f14:	00000013          	nop
    2f18:	fff78793          	addi	a5,a5,-1
    2f1c:	fe079ce3          	bnez	a5,2f14 <desk+0x2e4>
    2f20:	fff70713          	addi	a4,a4,-1
    2f24:	fe0714e3          	bnez	a4,2f0c <desk+0x2dc>
    2f28:	00008537          	lui	a0,0x8
    2f2c:	98c50513          	addi	a0,a0,-1652 # 798c <__global_pointer+0x3384>
    2f30:	33c000ef          	jal	326c <print>
    2f34:	00008537          	lui	a0,0x8
    2f38:	99850513          	addi	a0,a0,-1640 # 7998 <__global_pointer+0x3390>
    2f3c:	c20fd0ef          	jal	35c <pretty_print>
    2f40:	00008537          	lui	a0,0x8
    2f44:	9b850513          	addi	a0,a0,-1608 # 79b8 <__global_pointer+0x33b0>
    2f48:	c14fd0ef          	jal	35c <pretty_print>
    2f4c:	0009a823          	sw	zero,16(s3)
    2f50:	f29ff06f          	j	2e78 <desk+0x248>
    2f54:	00004437          	lui	s0,0x4
    2f58:	e1840513          	addi	a0,s0,-488 # 3e18 <c_energy+0xc>
    2f5c:	310000ef          	jal	326c <print>
    2f60:	00007537          	lui	a0,0x7
    2f64:	0b450513          	addi	a0,a0,180 # 70b4 <__global_pointer+0x2aac>
    2f68:	bf4fd0ef          	jal	35c <pretty_print>
    2f6c:	00007537          	lui	a0,0x7
    2f70:	0e050513          	addi	a0,a0,224 # 70e0 <__global_pointer+0x2ad8>
    2f74:	be8fd0ef          	jal	35c <pretty_print>
    2f78:	e1840513          	addi	a0,s0,-488
    2f7c:	2f0000ef          	jal	326c <print>
    2f80:	00007537          	lui	a0,0x7
    2f84:	14050513          	addi	a0,a0,320 # 7140 <__global_pointer+0x2b38>
    2f88:	bd4fd0ef          	jal	35c <pretty_print>
    2f8c:	00007537          	lui	a0,0x7
    2f90:	15c50513          	addi	a0,a0,348 # 715c <__global_pointer+0x2b54>
    2f94:	bc8fd0ef          	jal	35c <pretty_print>
    2f98:	e1840513          	addi	a0,s0,-488
    2f9c:	2d0000ef          	jal	326c <print>
    2fa0:	00007537          	lui	a0,0x7
    2fa4:	19850513          	addi	a0,a0,408 # 7198 <__global_pointer+0x2b90>
    2fa8:	bb4fd0ef          	jal	35c <pretty_print>
    2fac:	0089a703          	lw	a4,8(s3)
    2fb0:	040007b7          	lui	a5,0x4000
    2fb4:	03078793          	addi	a5,a5,48 # 4000030 <_stack_end+0x3ef6820>
    2fb8:	ff670713          	addi	a4,a4,-10
    2fbc:	00e9a423          	sw	a4,8(s3)
    2fc0:	00079023          	sh	zero,0(a5)
    2fc4:	0007d783          	lhu	a5,0(a5)
    2fc8:	0017f793          	andi	a5,a5,1
    2fcc:	c80786e3          	beqz	a5,2c58 <desk+0x28>
    2fd0:	00007537          	lui	a0,0x7
    2fd4:	1b050513          	addi	a0,a0,432 # 71b0 <__global_pointer+0x2ba8>
    2fd8:	b84fd0ef          	jal	35c <pretty_print>
    2fdc:	00007537          	lui	a0,0x7
    2fe0:	1dc50513          	addi	a0,a0,476 # 71dc <__global_pointer+0x2bd4>
    2fe4:	b78fd0ef          	jal	35c <pretty_print>
    2fe8:	00007537          	lui	a0,0x7
    2fec:	21850513          	addi	a0,a0,536 # 7218 <__global_pointer+0x2c10>
    2ff0:	b6cfd0ef          	jal	35c <pretty_print>
    2ff4:	0089a783          	lw	a5,8(s3)
    2ff8:	ffb78793          	addi	a5,a5,-5
    2ffc:	00f9a423          	sw	a5,8(s3)
    3000:	c59ff06f          	j	2c58 <desk+0x28>
    3004:	00007537          	lui	a0,0x7
    3008:	77850513          	addi	a0,a0,1912 # 7778 <__global_pointer+0x3170>
    300c:	b50fd0ef          	jal	35c <pretty_print>
    3010:	01900713          	li	a4,25
    3014:	000077b7          	lui	a5,0x7
    3018:	53078793          	addi	a5,a5,1328 # 7530 <__global_pointer+0x2f28>
    301c:	00000013          	nop
    3020:	fff78793          	addi	a5,a5,-1
    3024:	fe079ce3          	bnez	a5,301c <desk+0x3ec>
    3028:	fff70713          	addi	a4,a4,-1
    302c:	fe0714e3          	bnez	a4,3014 <desk+0x3e4>
    3030:	000074b7          	lui	s1,0x7
    3034:	7c848513          	addi	a0,s1,1992 # 77c8 <__global_pointer+0x31c0>
    3038:	b24fd0ef          	jal	35c <pretty_print>
    303c:	00f00713          	li	a4,15
    3040:	000077b7          	lui	a5,0x7
    3044:	53078793          	addi	a5,a5,1328 # 7530 <__global_pointer+0x2f28>
    3048:	00000013          	nop
    304c:	fff78793          	addi	a5,a5,-1
    3050:	fe079ce3          	bnez	a5,3048 <desk+0x418>
    3054:	fff70713          	addi	a4,a4,-1
    3058:	fe0714e3          	bnez	a4,3040 <desk+0x410>
    305c:	00004437          	lui	s0,0x4
    3060:	e1840513          	addi	a0,s0,-488 # 3e18 <c_energy+0xc>
    3064:	208000ef          	jal	326c <print>
    3068:	00007537          	lui	a0,0x7
    306c:	7cc50513          	addi	a0,a0,1996 # 77cc <__global_pointer+0x31c4>
    3070:	aecfd0ef          	jal	35c <pretty_print>
    3074:	00007537          	lui	a0,0x7
    3078:	7d450513          	addi	a0,a0,2004 # 77d4 <__global_pointer+0x31cc>
    307c:	1f0000ef          	jal	326c <print>
    3080:	01400713          	li	a4,20
    3084:	000077b7          	lui	a5,0x7
    3088:	53078793          	addi	a5,a5,1328 # 7530 <__global_pointer+0x2f28>
    308c:	00000013          	nop
    3090:	fff78793          	addi	a5,a5,-1
    3094:	fe079ce3          	bnez	a5,308c <desk+0x45c>
    3098:	fff70713          	addi	a4,a4,-1
    309c:	fe0714e3          	bnez	a4,3084 <desk+0x454>
    30a0:	00007537          	lui	a0,0x7
    30a4:	7f050513          	addi	a0,a0,2032 # 77f0 <__global_pointer+0x31e8>
    30a8:	ab4fd0ef          	jal	35c <pretty_print>
    30ac:	00008537          	lui	a0,0x8
    30b0:	81c50513          	addi	a0,a0,-2020 # 781c <__global_pointer+0x3214>
    30b4:	aa8fd0ef          	jal	35c <pretty_print>
    30b8:	00008537          	lui	a0,0x8
    30bc:	85450513          	addi	a0,a0,-1964 # 7854 <__global_pointer+0x324c>
    30c0:	a9cfd0ef          	jal	35c <pretty_print>
    30c4:	00008537          	lui	a0,0x8
    30c8:	88850513          	addi	a0,a0,-1912 # 7888 <__global_pointer+0x3280>
    30cc:	1a0000ef          	jal	326c <print>
    30d0:	00f00713          	li	a4,15
    30d4:	000077b7          	lui	a5,0x7
    30d8:	53078793          	addi	a5,a5,1328 # 7530 <__global_pointer+0x2f28>
    30dc:	00000013          	nop
    30e0:	fff78793          	addi	a5,a5,-1
    30e4:	fe079ce3          	bnez	a5,30dc <desk+0x4ac>
    30e8:	fff70713          	addi	a4,a4,-1
    30ec:	fe0714e3          	bnez	a4,30d4 <desk+0x4a4>
    30f0:	7c848513          	addi	a0,s1,1992
    30f4:	a68fd0ef          	jal	35c <pretty_print>
    30f8:	e1840513          	addi	a0,s0,-488
    30fc:	170000ef          	jal	326c <print>
    3100:	00008537          	lui	a0,0x8
    3104:	8b450513          	addi	a0,a0,-1868 # 78b4 <__global_pointer+0x32ac>
    3108:	a54fd0ef          	jal	35c <pretty_print>
    310c:	d6dff06f          	j	2e78 <desk+0x248>
    3110:	00007537          	lui	a0,0x7
    3114:	66850513          	addi	a0,a0,1640 # 7668 <__global_pointer+0x3060>
    3118:	a44fd0ef          	jal	35c <pretty_print>
    311c:	00007537          	lui	a0,0x7
    3120:	6a450513          	addi	a0,a0,1700 # 76a4 <__global_pointer+0x309c>
    3124:	a38fd0ef          	jal	35c <pretty_print>
    3128:	01400713          	li	a4,20
    312c:	000077b7          	lui	a5,0x7
    3130:	53078793          	addi	a5,a5,1328 # 7530 <__global_pointer+0x2f28>
    3134:	00000013          	nop
    3138:	fff78793          	addi	a5,a5,-1
    313c:	fe079ce3          	bnez	a5,3134 <desk+0x504>
    3140:	fff70713          	addi	a4,a4,-1
    3144:	fe0714e3          	bnez	a4,312c <desk+0x4fc>
    3148:	00007537          	lui	a0,0x7
    314c:	6f050513          	addi	a0,a0,1776 # 76f0 <__global_pointer+0x30e8>
    3150:	a0cfd0ef          	jal	35c <pretty_print>
    3154:	0009a783          	lw	a5,0(s3)
    3158:	ffb78793          	addi	a5,a5,-5
    315c:	00f9a023          	sw	a5,0(s3)
    3160:	d19ff06f          	j	2e78 <desk+0x248>
    3164:	00098513          	mv	a0,s3
    3168:	ae1fe0ef          	jal	1c48 <game_over>

0000316c <stat_check>:
    316c:	00052783          	lw	a5,0(a0)
    3170:	00f05c63          	blez	a5,3188 <stat_check+0x1c>
    3174:	00852783          	lw	a5,8(a0)
    3178:	00f05863          	blez	a5,3188 <stat_check+0x1c>
    317c:	00452783          	lw	a5,4(a0)
    3180:	00f05463          	blez	a5,3188 <stat_check+0x1c>
    3184:	00008067          	ret
    3188:	ff010113          	addi	sp,sp,-16
    318c:	00112623          	sw	ra,12(sp)
    3190:	ab9fe0ef          	jal	1c48 <game_over>

00003194 <main>:
    3194:	fb010113          	addi	sp,sp,-80
    3198:	03200793          	li	a5,50
    319c:	00f12023          	sw	a5,0(sp)
    31a0:	3e800793          	li	a5,1000
    31a4:	00f12223          	sw	a5,4(sp)
    31a8:	00600813          	li	a6,6
    31ac:	00500793          	li	a5,5
    31b0:	04112623          	sw	ra,76(sp)
    31b4:	00f12423          	sw	a5,8(sp)
    31b8:	01012623          	sw	a6,12(sp)
    31bc:	00012823          	sw	zero,16(sp)
    31c0:	00012a23          	sw	zero,20(sp)
    31c4:	00012c23          	sw	zero,24(sp)
    31c8:	00012e23          	sw	zero,28(sp)
    31cc:	02012023          	sw	zero,32(sp)
    31d0:	02012223          	sw	zero,36(sp)
    31d4:	02012423          	sw	zero,40(sp)
    31d8:	02012623          	sw	zero,44(sp)
    31dc:	02012823          	sw	zero,48(sp)
    31e0:	02012a23          	sw	zero,52(sp)
    31e4:	02012c23          	sw	zero,56(sp)
    31e8:	02012e23          	sw	zero,60(sp)
    31ec:	fff00713          	li	a4,-1
    31f0:	040006b7          	lui	a3,0x4000
    31f4:	04e68823          	sb	a4,80(a3) # 4000050 <_stack_end+0x3ef6840>
    31f8:	040007b7          	lui	a5,0x4000
    31fc:	06e78023          	sb	a4,96(a5) # 4000060 <_stack_end+0x3ef6850>
    3200:	06e78823          	sb	a4,112(a5)
    3204:	08e78023          	sb	a4,128(a5)
    3208:	08e78823          	sb	a4,144(a5)
    320c:	ffffc537          	lui	a0,0xffffc
    3210:	0ae78023          	sb	a4,160(a5)
    3214:	040005b7          	lui	a1,0x4000
    3218:	6bf50513          	addi	a0,a0,1727 # ffffc6bf <_stack_end+0xffef2eaf>
    321c:	02a59423          	sh	a0,40(a1) # 4000028 <_stack_end+0x3ef6818>
    3220:	04000637          	lui	a2,0x4000
    3224:	02d00593          	li	a1,45
    3228:	04000737          	lui	a4,0x4000
    322c:	02b61623          	sh	a1,44(a2) # 400002c <_stack_end+0x3ef681c>
    3230:	00010513          	mv	a0,sp
    3234:	03071223          	sh	a6,36(a4) # 4000024 <_stack_end+0x3ef6814>
    3238:	a55fd0ef          	jal	c8c <coffee_game>
    323c:	04c12083          	lw	ra,76(sp)
    3240:	00000513          	li	a0,0
    3244:	05010113          	addi	sp,sp,80
    3248:	00008067          	ret

0000324c <printc>:
    324c:	04000737          	lui	a4,0x4000
    3250:	04470713          	addi	a4,a4,68 # 4000044 <_stack_end+0x3ef6834>
    3254:	000106b7          	lui	a3,0x10
    3258:	00072783          	lw	a5,0(a4)
    325c:	fed7eee3          	bltu	a5,a3,3258 <printc+0xc>
    3260:	040007b7          	lui	a5,0x4000
    3264:	04a7a023          	sw	a0,64(a5) # 4000040 <_stack_end+0x3ef6830>
    3268:	00008067          	ret

0000326c <print>:
    326c:	00054603          	lbu	a2,0(a0)
    3270:	02060863          	beqz	a2,32a0 <print+0x34>
    3274:	04000737          	lui	a4,0x4000
    3278:	040005b7          	lui	a1,0x4000
    327c:	04470713          	addi	a4,a4,68 # 4000044 <_stack_end+0x3ef6834>
    3280:	000106b7          	lui	a3,0x10
    3284:	04058593          	addi	a1,a1,64 # 4000040 <_stack_end+0x3ef6830>
    3288:	00072783          	lw	a5,0(a4)
    328c:	fed7eee3          	bltu	a5,a3,3288 <print+0x1c>
    3290:	00c5a023          	sw	a2,0(a1)
    3294:	00154603          	lbu	a2,1(a0)
    3298:	00150513          	addi	a0,a0,1
    329c:	fe0616e3          	bnez	a2,3288 <print+0x1c>
    32a0:	00008067          	ret

000032a4 <print_dec>:
    32a4:	3b9ad737          	lui	a4,0x3b9ad
    32a8:	040006b7          	lui	a3,0x4000
    32ac:	04000337          	lui	t1,0x4000
    32b0:	00a00593          	li	a1,10
    32b4:	00000793          	li	a5,0
    32b8:	a0070713          	addi	a4,a4,-1536 # 3b9aca00 <_stack_end+0x3b8a31f0>
    32bc:	04468693          	addi	a3,a3,68 # 4000044 <_stack_end+0x3ef6834>
    32c0:	00010637          	lui	a2,0x10
    32c4:	04030313          	addi	t1,t1,64 # 4000040 <_stack_end+0x3ef6830>
    32c8:	00a00893          	li	a7,10
    32cc:	04e57063          	bgeu	a0,a4,330c <print_dec+0x68>
    32d0:	02079e63          	bnez	a5,330c <print_dec+0x68>
    32d4:	fff58593          	addi	a1,a1,-1
    32d8:	02e57533          	remu	a0,a0,a4
    32dc:	03175733          	divu	a4,a4,a7
    32e0:	fe0596e3          	bnez	a1,32cc <print_dec+0x28>
    32e4:	02079263          	bnez	a5,3308 <print_dec+0x64>
    32e8:	04000737          	lui	a4,0x4000
    32ec:	04470713          	addi	a4,a4,68 # 4000044 <_stack_end+0x3ef6834>
    32f0:	000106b7          	lui	a3,0x10
    32f4:	00072783          	lw	a5,0(a4)
    32f8:	fed7eee3          	bltu	a5,a3,32f4 <print_dec+0x50>
    32fc:	040007b7          	lui	a5,0x4000
    3300:	03000713          	li	a4,48
    3304:	04e7a023          	sw	a4,64(a5) # 4000040 <_stack_end+0x3ef6830>
    3308:	00008067          	ret
    330c:	02e55833          	divu	a6,a0,a4
    3310:	03080813          	addi	a6,a6,48
    3314:	0ff87813          	zext.b	a6,a6
    3318:	0006a783          	lw	a5,0(a3) # 10000 <__global_pointer+0xb9f8>
    331c:	fec7eee3          	bltu	a5,a2,3318 <print_dec+0x74>
    3320:	01032023          	sw	a6,0(t1)
    3324:	00100793          	li	a5,1
    3328:	fadff06f          	j	32d4 <print_dec+0x30>

0000332c <print_hex32>:
    332c:	04000737          	lui	a4,0x4000
    3330:	04470713          	addi	a4,a4,68 # 4000044 <_stack_end+0x3ef6834>
    3334:	000106b7          	lui	a3,0x10
    3338:	00072783          	lw	a5,0(a4)
    333c:	fed7eee3          	bltu	a5,a3,3338 <print_hex32+0xc>
    3340:	03000693          	li	a3,48
    3344:	040007b7          	lui	a5,0x4000
    3348:	04000737          	lui	a4,0x4000
    334c:	04d7a023          	sw	a3,64(a5) # 4000040 <_stack_end+0x3ef6830>
    3350:	04470713          	addi	a4,a4,68 # 4000044 <_stack_end+0x3ef6834>
    3354:	000106b7          	lui	a3,0x10
    3358:	00072783          	lw	a5,0(a4)
    335c:	fed7eee3          	bltu	a5,a3,3358 <print_hex32+0x2c>
    3360:	04000837          	lui	a6,0x4000
    3364:	04080813          	addi	a6,a6,64 # 4000040 <_stack_end+0x3ef6830>
    3368:	04000737          	lui	a4,0x4000
    336c:	07800793          	li	a5,120
    3370:	00f82023          	sw	a5,0(a6)
    3374:	01c00613          	li	a2,28
    3378:	00900313          	li	t1,9
    337c:	04470713          	addi	a4,a4,68 # 4000044 <_stack_end+0x3ef6834>
    3380:	000106b7          	lui	a3,0x10
    3384:	ffc00893          	li	a7,-4
    3388:	00c557b3          	srl	a5,a0,a2
    338c:	00f7f793          	andi	a5,a5,15
    3390:	03778593          	addi	a1,a5,55
    3394:	00f36463          	bltu	t1,a5,339c <print_hex32+0x70>
    3398:	03078593          	addi	a1,a5,48
    339c:	00072783          	lw	a5,0(a4)
    33a0:	fed7eee3          	bltu	a5,a3,339c <print_hex32+0x70>
    33a4:	00b82023          	sw	a1,0(a6)
    33a8:	ffc60613          	addi	a2,a2,-4 # fffc <__global_pointer+0xb9f4>
    33ac:	fd161ee3          	bne	a2,a7,3388 <print_hex32+0x5c>
    33b0:	00008067          	ret

000033b4 <handle_exception>:
    33b4:	00200793          	li	a5,2
    33b8:	18f80863          	beq	a6,a5,3548 <handle_exception+0x194>
    33bc:	00b00793          	li	a5,11
    33c0:	12f80063          	beq	a6,a5,34e0 <handle_exception+0x12c>
    33c4:	04000737          	lui	a4,0x4000
    33c8:	14081463          	bnez	a6,3510 <handle_exception+0x15c>
    33cc:	04000837          	lui	a6,0x4000
    33d0:	00009637          	lui	a2,0x9
    33d4:	78860613          	addi	a2,a2,1928 # 9788 <__global_pointer+0x5180>
    33d8:	00a00593          	li	a1,10
    33dc:	04470713          	addi	a4,a4,68 # 4000044 <_stack_end+0x3ef6834>
    33e0:	000106b7          	lui	a3,0x10
    33e4:	04080813          	addi	a6,a6,64 # 4000040 <_stack_end+0x3ef6830>
    33e8:	00072783          	lw	a5,0(a4)
    33ec:	fed7eee3          	bltu	a5,a3,33e8 <handle_exception+0x34>
    33f0:	00b82023          	sw	a1,0(a6)
    33f4:	00164583          	lbu	a1,1(a2)
    33f8:	00160613          	addi	a2,a2,1
    33fc:	fe0596e3          	bnez	a1,33e8 <handle_exception+0x34>
    3400:	04000737          	lui	a4,0x4000
    3404:	04000837          	lui	a6,0x4000
    3408:	00009637          	lui	a2,0x9
    340c:	7fc60613          	addi	a2,a2,2044 # 97fc <__global_pointer+0x51f4>
    3410:	04500593          	li	a1,69
    3414:	04470713          	addi	a4,a4,68 # 4000044 <_stack_end+0x3ef6834>
    3418:	000106b7          	lui	a3,0x10
    341c:	04080813          	addi	a6,a6,64 # 4000040 <_stack_end+0x3ef6830>
    3420:	00072783          	lw	a5,0(a4)
    3424:	fed7eee3          	bltu	a5,a3,3420 <handle_exception+0x6c>
    3428:	00b82023          	sw	a1,0(a6)
    342c:	00164583          	lbu	a1,1(a2)
    3430:	00160613          	addi	a2,a2,1
    3434:	fe0596e3          	bnez	a1,3420 <handle_exception+0x6c>
    3438:	04000737          	lui	a4,0x4000
    343c:	04470713          	addi	a4,a4,68 # 4000044 <_stack_end+0x3ef6834>
    3440:	000106b7          	lui	a3,0x10
    3444:	00072783          	lw	a5,0(a4)
    3448:	fed7eee3          	bltu	a5,a3,3444 <handle_exception+0x90>
    344c:	03000693          	li	a3,48
    3450:	040007b7          	lui	a5,0x4000
    3454:	04000737          	lui	a4,0x4000
    3458:	04d7a023          	sw	a3,64(a5) # 4000040 <_stack_end+0x3ef6830>
    345c:	04470713          	addi	a4,a4,68 # 4000044 <_stack_end+0x3ef6834>
    3460:	000106b7          	lui	a3,0x10
    3464:	00072783          	lw	a5,0(a4)
    3468:	fed7eee3          	bltu	a5,a3,3464 <handle_exception+0xb0>
    346c:	04000837          	lui	a6,0x4000
    3470:	04080813          	addi	a6,a6,64 # 4000040 <_stack_end+0x3ef6830>
    3474:	04000737          	lui	a4,0x4000
    3478:	07800793          	li	a5,120
    347c:	00f82023          	sw	a5,0(a6)
    3480:	01c00613          	li	a2,28
    3484:	00900313          	li	t1,9
    3488:	04470713          	addi	a4,a4,68 # 4000044 <_stack_end+0x3ef6834>
    348c:	000106b7          	lui	a3,0x10
    3490:	ffc00893          	li	a7,-4
    3494:	00c557b3          	srl	a5,a0,a2
    3498:	00f7f793          	andi	a5,a5,15
    349c:	03778593          	addi	a1,a5,55
    34a0:	00f36463          	bltu	t1,a5,34a8 <handle_exception+0xf4>
    34a4:	03078593          	addi	a1,a5,48
    34a8:	00072783          	lw	a5,0(a4)
    34ac:	fed7eee3          	bltu	a5,a3,34a8 <handle_exception+0xf4>
    34b0:	00b82023          	sw	a1,0(a6)
    34b4:	ffc60613          	addi	a2,a2,-4
    34b8:	fd161ee3          	bne	a2,a7,3494 <handle_exception+0xe0>
    34bc:	04000737          	lui	a4,0x4000
    34c0:	04470713          	addi	a4,a4,68 # 4000044 <_stack_end+0x3ef6834>
    34c4:	000106b7          	lui	a3,0x10
    34c8:	00072783          	lw	a5,0(a4)
    34cc:	fed7eee3          	bltu	a5,a3,34c8 <handle_exception+0x114>
    34d0:	040007b7          	lui	a5,0x4000
    34d4:	00a00713          	li	a4,10
    34d8:	04e7a023          	sw	a4,64(a5) # 4000040 <_stack_end+0x3ef6830>
    34dc:	0000006f          	j	34dc <handle_exception+0x128>
    34e0:	00400793          	li	a5,4
    34e4:	0af88063          	beq	a7,a5,3584 <handle_exception+0x1d0>
    34e8:	0d089a63          	bne	a7,a6,35bc <handle_exception+0x208>
    34ec:	04000737          	lui	a4,0x4000
    34f0:	04470713          	addi	a4,a4,68 # 4000044 <_stack_end+0x3ef6834>
    34f4:	000106b7          	lui	a3,0x10
    34f8:	00072783          	lw	a5,0(a4)
    34fc:	fed7eee3          	bltu	a5,a3,34f8 <handle_exception+0x144>
    3500:	040007b7          	lui	a5,0x4000
    3504:	0ff57513          	zext.b	a0,a0
    3508:	04a7a023          	sw	a0,64(a5) # 4000040 <_stack_end+0x3ef6830>
    350c:	00008067          	ret
    3510:	04000837          	lui	a6,0x4000
    3514:	00009637          	lui	a2,0x9
    3518:	7dc60613          	addi	a2,a2,2012 # 97dc <__global_pointer+0x51d4>
    351c:	00a00593          	li	a1,10
    3520:	04470713          	addi	a4,a4,68
    3524:	000106b7          	lui	a3,0x10
    3528:	04080813          	addi	a6,a6,64 # 4000040 <_stack_end+0x3ef6830>
    352c:	00072783          	lw	a5,0(a4)
    3530:	fed7eee3          	bltu	a5,a3,352c <handle_exception+0x178>
    3534:	00b82023          	sw	a1,0(a6)
    3538:	00164583          	lbu	a1,1(a2)
    353c:	00160613          	addi	a2,a2,1
    3540:	fe0596e3          	bnez	a1,352c <handle_exception+0x178>
    3544:	ebdff06f          	j	3400 <handle_exception+0x4c>
    3548:	04000737          	lui	a4,0x4000
    354c:	04000837          	lui	a6,0x4000
    3550:	00009637          	lui	a2,0x9
    3554:	7b860613          	addi	a2,a2,1976 # 97b8 <__global_pointer+0x51b0>
    3558:	00a00593          	li	a1,10
    355c:	04470713          	addi	a4,a4,68 # 4000044 <_stack_end+0x3ef6834>
    3560:	000106b7          	lui	a3,0x10
    3564:	04080813          	addi	a6,a6,64 # 4000040 <_stack_end+0x3ef6830>
    3568:	00072783          	lw	a5,0(a4)
    356c:	fed7eee3          	bltu	a5,a3,3568 <handle_exception+0x1b4>
    3570:	00b82023          	sw	a1,0(a6)
    3574:	00164583          	lbu	a1,1(a2)
    3578:	00160613          	addi	a2,a2,1
    357c:	fe0596e3          	bnez	a1,3568 <handle_exception+0x1b4>
    3580:	e81ff06f          	j	3400 <handle_exception+0x4c>
    3584:	00054603          	lbu	a2,0(a0)
    3588:	02060a63          	beqz	a2,35bc <handle_exception+0x208>
    358c:	04000737          	lui	a4,0x4000
    3590:	040005b7          	lui	a1,0x4000
    3594:	04470713          	addi	a4,a4,68 # 4000044 <_stack_end+0x3ef6834>
    3598:	000106b7          	lui	a3,0x10
    359c:	04058593          	addi	a1,a1,64 # 4000040 <_stack_end+0x3ef6830>
    35a0:	00072783          	lw	a5,0(a4)
    35a4:	fed7eee3          	bltu	a5,a3,35a0 <handle_exception+0x1ec>
    35a8:	00c5a023          	sw	a2,0(a1)
    35ac:	00154603          	lbu	a2,1(a0)
    35b0:	00150513          	addi	a0,a0,1
    35b4:	fe0616e3          	bnez	a2,35a0 <handle_exception+0x1ec>
    35b8:	00008067          	ret
    35bc:	00008067          	ret

000035c0 <nextprime>:
    35c0:	00200713          	li	a4,2
    35c4:	00050793          	mv	a5,a0
    35c8:	02a74063          	blt	a4,a0,35e8 <nextprime+0x28>
    35cc:	00100513          	li	a0,1
    35d0:	00f05a63          	blez	a5,35e4 <nextprime+0x24>
    35d4:	fff78793          	addi	a5,a5,-1
    35d8:	00f037b3          	snez	a5,a5
    35dc:	00278513          	addi	a0,a5,2
    35e0:	00008067          	ret
    35e4:	00008067          	ret
    35e8:	00150793          	addi	a5,a0,1
    35ec:	0017e513          	ori	a0,a5,1
    35f0:	00300613          	li	a2,3
    35f4:	02c567b3          	rem	a5,a0,a2
    35f8:	40155693          	srai	a3,a0,0x1
    35fc:	02078263          	beqz	a5,3620 <nextprime+0x60>
    3600:	00268693          	addi	a3,a3,2 # 10002 <__global_pointer+0xb9fa>
    3604:	00300793          	li	a5,3
    3608:	00c0006f          	j	3614 <nextprime+0x54>
    360c:	02f56733          	rem	a4,a0,a5
    3610:	00070863          	beqz	a4,3620 <nextprime+0x60>
    3614:	00178793          	addi	a5,a5,1
    3618:	fef69ae3          	bne	a3,a5,360c <nextprime+0x4c>
    361c:	00008067          	ret
    3620:	00250513          	addi	a0,a0,2
    3624:	fd1ff06f          	j	35f4 <nextprime+0x34>

Disassembly of section .data:

00003628 <msg>:
    3628:	4554                	.insn	2, 0x4554
    362a:	54205453          	.insn	4, 0x54205453
    362e:	5345                	.insn	2, 0x5345
    3630:	2054                	.insn	2, 0x2054
    3632:	4554                	.insn	2, 0x4554
    3634:	54205453          	.insn	4, 0x54205453
    3638:	5345                	.insn	2, 0x5345
    363a:	0a54                	.insn	2, 0x0a54
    363c:	0000                	.insn	2, 0x
	...

00003640 <welcome_msg>:
    3640:	3d3d                	.insn	2, 0x3d3d
    3642:	3d3d                	.insn	2, 0x3d3d
    3644:	3d3d                	.insn	2, 0x3d3d
    3646:	3d3d                	.insn	2, 0x3d3d
    3648:	3d3d                	.insn	2, 0x3d3d
    364a:	3d3d                	.insn	2, 0x3d3d
    364c:	3d3d                	.insn	2, 0x3d3d
    364e:	3d3d                	.insn	2, 0x3d3d
    3650:	3d3d                	.insn	2, 0x3d3d
    3652:	3d3d                	.insn	2, 0x3d3d
    3654:	3d3d                	.insn	2, 0x3d3d
    3656:	3d3d                	.insn	2, 0x3d3d
    3658:	3d3d                	.insn	2, 0x3d3d
    365a:	3d3d                	.insn	2, 0x3d3d
    365c:	3d3d                	.insn	2, 0x3d3d
    365e:	3d3d                	.insn	2, 0x3d3d
    3660:	3d3d                	.insn	2, 0x3d3d
    3662:	3d3d                	.insn	2, 0x3d3d
    3664:	3d3d                	.insn	2, 0x3d3d
    3666:	3d3d                	.insn	2, 0x3d3d
    3668:	3d3d                	.insn	2, 0x3d3d
    366a:	3d3d                	.insn	2, 0x3d3d
    366c:	3d3d                	.insn	2, 0x3d3d
    366e:	3d3d                	.insn	2, 0x3d3d
    3670:	3d0a                	.insn	2, 0x3d0a
    3672:	3d3d                	.insn	2, 0x3d3d
    3674:	3d3d                	.insn	2, 0x3d3d
    3676:	5220                	.insn	2, 0x5220
    3678:	5349                	.insn	2, 0x5349
    367a:	20562d43          	.insn	4, 0x20562d43
    367e:	6f42                	.insn	2, 0x6f42
    3680:	552d746f          	jal	s0,dabd2 <__global_pointer+0xd65ca>
    3684:	2070                	.insn	2, 0x2070
    3686:	7250                	.insn	2, 0x7250
    3688:	7365636f          	jal	t1,59dbe <__global_pointer+0x557b6>
    368c:	6f4e2073          	csrs	0x6f4,t3
    3690:	6f432077          	.insn	4, 0x6f432077
    3694:	706d                	.insn	2, 0x706d
    3696:	656c                	.insn	2, 0x656c
    3698:	6574                	.insn	2, 0x6574
    369a:	3d20                	.insn	2, 0x3d20
    369c:	3d3d                	.insn	2, 0x3d3d
    369e:	3d3d                	.insn	2, 0x3d3d
    36a0:	0a3d                	.insn	2, 0x0a3d
    36a2:	3d3d                	.insn	2, 0x3d3d
    36a4:	3d3d                	.insn	2, 0x3d3d
    36a6:	3d3d                	.insn	2, 0x3d3d
    36a8:	3d3d                	.insn	2, 0x3d3d
    36aa:	3d3d                	.insn	2, 0x3d3d
    36ac:	3d3d                	.insn	2, 0x3d3d
    36ae:	3d3d                	.insn	2, 0x3d3d
    36b0:	3d3d                	.insn	2, 0x3d3d
    36b2:	3d3d                	.insn	2, 0x3d3d
    36b4:	3d3d                	.insn	2, 0x3d3d
    36b6:	3d3d                	.insn	2, 0x3d3d
    36b8:	3d3d                	.insn	2, 0x3d3d
    36ba:	3d3d                	.insn	2, 0x3d3d
    36bc:	3d3d                	.insn	2, 0x3d3d
    36be:	3d3d                	.insn	2, 0x3d3d
    36c0:	3d3d                	.insn	2, 0x3d3d
    36c2:	3d3d                	.insn	2, 0x3d3d
    36c4:	3d3d                	.insn	2, 0x3d3d
    36c6:	3d3d                	.insn	2, 0x3d3d
    36c8:	3d3d                	.insn	2, 0x3d3d
    36ca:	3d3d                	.insn	2, 0x3d3d
    36cc:	3d3d                	.insn	2, 0x3d3d
    36ce:	3d3d                	.insn	2, 0x3d3d
    36d0:	3d3d                	.insn	2, 0x3d3d
    36d2:	000a                	.insn	2, 0x000a

000036d4 <enemy_lanes>:
    36d4:	3030                	.insn	2, 0x3030
    36d6:	3030                	.insn	2, 0x3030
    36d8:	3030                	.insn	2, 0x3030
    36da:	3030                	.insn	2, 0x3030
    36dc:	3030                	.insn	2, 0x3030
    36de:	3030                	.insn	2, 0x3030
    36e0:	7630                	.insn	2, 0x7630
    36e2:	3030                	.insn	2, 0x3030
    36e4:	3030                	.insn	2, 0x3030
    36e6:	3030                	.insn	2, 0x3030
    36e8:	3030                	.insn	2, 0x3030
    36ea:	3030                	.insn	2, 0x3030
    36ec:	3030                	.insn	2, 0x3030
    36ee:	3030                	.insn	2, 0x3030
    36f0:	3030                	.insn	2, 0x3030
    36f2:	3076                	.insn	2, 0x3076
    36f4:	3076                	.insn	2, 0x3076
    36f6:	3030                	.insn	2, 0x3030
    36f8:	3030                	.insn	2, 0x3030
    36fa:	3030                	.insn	2, 0x3030
    36fc:	3030                	.insn	2, 0x3030
    36fe:	3030                	.insn	2, 0x3030
    3700:	3030                	.insn	2, 0x3030
    3702:	3030                	.insn	2, 0x3030
    3704:	3030                	.insn	2, 0x3030
    3706:	3030                	.insn	2, 0x3030
    3708:	2330                	.insn	2, 0x2330
    370a:	3030                	.insn	2, 0x3030
    370c:	23303023          	.insn	4, 0x23303023
    3710:	3030                	.insn	2, 0x3030
    3712:	3030                	.insn	2, 0x3030
    3714:	3030                	.insn	2, 0x3030
    3716:	3030                	.insn	2, 0x3030
    3718:	3030                	.insn	2, 0x3030
    371a:	23303023          	.insn	4, 0x23303023
    371e:	3030                	.insn	2, 0x3030
    3720:	30303023          	.insn	4, 0x30303023
    3724:	3030                	.insn	2, 0x3030
    3726:	3030                	.insn	2, 0x3030
    3728:	3030                	.insn	2, 0x3030
    372a:	2330                	.insn	2, 0x2330
    372c:	3030                	.insn	2, 0x3030
    372e:	23303023          	.insn	4, 0x23303023
    3732:	3030                	.insn	2, 0x3030
    3734:	3030                	.insn	2, 0x3030
    3736:	3030                	.insn	2, 0x3030
    3738:	3030                	.insn	2, 0x3030
    373a:	3030                	.insn	2, 0x3030
    373c:	3030                	.insn	2, 0x3030
    373e:	3030                	.insn	2, 0x3030
    3740:	3030                	.insn	2, 0x3030
    3742:	2330                	.insn	2, 0x2330
    3744:	2330                	.insn	2, 0x2330
    3746:	23233023          	.insn	4, 0x23233023
    374a:	2330                	.insn	2, 0x2330
    374c:	3030                	.insn	2, 0x3030
    374e:	3030                	.insn	2, 0x3030
    3750:	3030                	.insn	2, 0x3030
    3752:	3030                	.insn	2, 0x3030
    3754:	3030                	.insn	2, 0x3030
    3756:	3030                	.insn	2, 0x3030
    3758:	7630                	.insn	2, 0x7630
    375a:	3030                	.insn	2, 0x3030
    375c:	7630                	.insn	2, 0x7630
    375e:	7630                	.insn	2, 0x7630
    3760:	3030                	.insn	2, 0x3030
    3762:	7630                	.insn	2, 0x7630
    3764:	7630                	.insn	2, 0x7630
    3766:	3030                	.insn	2, 0x3030
    3768:	7630                	.insn	2, 0x7630
    376a:	7630                	.insn	2, 0x7630
    376c:	3030                	.insn	2, 0x3030
    376e:	3030                	.insn	2, 0x3030
    3770:	3030                	.insn	2, 0x3030
    3772:	3030                	.insn	2, 0x3030
    3774:	3030                	.insn	2, 0x3030
    3776:	3076                	.insn	2, 0x3076
    3778:	7630                	.insn	2, 0x7630
    377a:	3030                	.insn	2, 0x3030
    377c:	3030                	.insn	2, 0x3030
    377e:	3030                	.insn	2, 0x3030
    3780:	3030                	.insn	2, 0x3030
    3782:	7676                	.insn	2, 0x7676
    3784:	3030                	.insn	2, 0x3030
    3786:	3030                	.insn	2, 0x3030
    3788:	7676                	.insn	2, 0x7676
    378a:	3030                	.insn	2, 0x3030
    378c:	3030                	.insn	2, 0x3030
    378e:	7676                	.insn	2, 0x7676
    3790:	3030                	.insn	2, 0x3030
    3792:	3030                	.insn	2, 0x3030
    3794:	3030                	.insn	2, 0x3030
    3796:	3030                	.insn	2, 0x3030
    3798:	3030                	.insn	2, 0x3030
    379a:	3030                	.insn	2, 0x3030
    379c:	3030                	.insn	2, 0x3030
    379e:	7676                	.insn	2, 0x7676
    37a0:	3030                	.insn	2, 0x3030
    37a2:	3030                	.insn	2, 0x3030
    37a4:	7676                	.insn	2, 0x7676
    37a6:	3030                	.insn	2, 0x3030
    37a8:	3030                	.insn	2, 0x3030
    37aa:	7676                	.insn	2, 0x7676
    37ac:	3030                	.insn	2, 0x3030
    37ae:	3030                	.insn	2, 0x3030
    37b0:	3030                	.insn	2, 0x3030
    37b2:	3030                	.insn	2, 0x3030
    37b4:	2330                	.insn	2, 0x2330
    37b6:	3030                	.insn	2, 0x3030
    37b8:	23302323          	sw	s3,550(zero) # 226 <handle_interrupt+0xa>
    37bc:	23303023          	.insn	4, 0x23303023
    37c0:	3030                	.insn	2, 0x3030
    37c2:	3030                	.insn	2, 0x3030
    37c4:	3030                	.insn	2, 0x3030
    37c6:	3030                	.insn	2, 0x3030
    37c8:	3030                	.insn	2, 0x3030
    37ca:	3030                	.insn	2, 0x3030
    37cc:	3030                	.insn	2, 0x3030
    37ce:	7630                	.insn	2, 0x7630
    37d0:	7630                	.insn	2, 0x7630
    37d2:	3030                	.insn	2, 0x3030
    37d4:	7630                	.insn	2, 0x7630
    37d6:	7630                	.insn	2, 0x7630
    37d8:	3030                	.insn	2, 0x3030
    37da:	3030                	.insn	2, 0x3030
    37dc:	3030                	.insn	2, 0x3030
    37de:	3030                	.insn	2, 0x3030
    37e0:	3030                	.insn	2, 0x3030
    37e2:	3076                	.insn	2, 0x3076
    37e4:	3030                	.insn	2, 0x3030
    37e6:	3076                	.insn	2, 0x3076
    37e8:	3076                	.insn	2, 0x3076
    37ea:	3030                	.insn	2, 0x3030
    37ec:	3076                	.insn	2, 0x3076
    37ee:	3030                	.insn	2, 0x3030
    37f0:	3030                	.insn	2, 0x3030
    37f2:	3030                	.insn	2, 0x3030
    37f4:	3030                	.insn	2, 0x3030
    37f6:	23303023          	.insn	4, 0x23303023
    37fa:	3030                	.insn	2, 0x3030
    37fc:	30303023          	.insn	4, 0x30303023
    3800:	3030                	.insn	2, 0x3030
    3802:	3030                	.insn	2, 0x3030
    3804:	3030                	.insn	2, 0x3030
    3806:	3030                	.insn	2, 0x3030
    3808:	3030                	.insn	2, 0x3030
    380a:	3030                	.insn	2, 0x3030
    380c:	3030                	.insn	2, 0x3030
    380e:	3030                	.insn	2, 0x3030
    3810:	3030                	.insn	2, 0x3030
    3812:	3030                	.insn	2, 0x3030
    3814:	3030                	.insn	2, 0x3030
    3816:	3030                	.insn	2, 0x3030
    3818:	3030                	.insn	2, 0x3030
    381a:	3030                	.insn	2, 0x3030
    381c:	3030                	.insn	2, 0x3030
    381e:	3030                	.insn	2, 0x3030
    3820:	3030                	.insn	2, 0x3030
    3822:	3030                	.insn	2, 0x3030
    3824:	3030                	.insn	2, 0x3030
    3826:	3030                	.insn	2, 0x3030
    3828:	3030                	.insn	2, 0x3030
    382a:	3030                	.insn	2, 0x3030
    382c:	3030                	.insn	2, 0x3030
    382e:	3030                	.insn	2, 0x3030
    3830:	3030                	.insn	2, 0x3030
    3832:	3030                	.insn	2, 0x3030
    3834:	3030                	.insn	2, 0x3030
    3836:	3030                	.insn	2, 0x3030
    3838:	3030                	.insn	2, 0x3030
    383a:	3030                	.insn	2, 0x3030
    383c:	0000                	.insn	2, 0x
	...

00003840 <meeting>:
    3840:	7a9c                	.insn	2, 0x7a9c
    3842:	0000                	.insn	2, 0x
    3844:	7af8                	.insn	2, 0x7af8
    3846:	0000                	.insn	2, 0x
    3848:	7b54                	.insn	2, 0x7b54
    384a:	0000                	.insn	2, 0x
    384c:	7bb0                	.insn	2, 0x7bb0
    384e:	0000                	.insn	2, 0x
    3850:	7c0c                	.insn	2, 0x7c0c
    3852:	0000                	.insn	2, 0x
    3854:	7c68                	.insn	2, 0x7c68
    3856:	0000                	.insn	2, 0x
    3858:	7cc4                	.insn	2, 0x7cc4
    385a:	0000                	.insn	2, 0x
    385c:	7d20                	.insn	2, 0x7d20
    385e:	0000                	.insn	2, 0x
    3860:	7d7c                	.insn	2, 0x7d7c
    3862:	0000                	.insn	2, 0x
    3864:	7dd8                	.insn	2, 0x7dd8
    3866:	0000                	.insn	2, 0x
    3868:	7e34                	.insn	2, 0x7e34
    386a:	0000                	.insn	2, 0x
    386c:	7e90                	.insn	2, 0x7e90
    386e:	0000                	.insn	2, 0x
    3870:	7eec                	.insn	2, 0x7eec
    3872:	0000                	.insn	2, 0x
    3874:	7f48                	.insn	2, 0x7f48
    3876:	0000                	.insn	2, 0x
    3878:	7fa4                	.insn	2, 0x7fa4
    387a:	0000                	.insn	2, 0x
    387c:	9710                	.insn	2, 0x9710
    387e:	0000                	.insn	2, 0x
    3880:	9530                	.insn	2, 0x9530
    3882:	0000                	.insn	2, 0x
    3884:	810c                	.insn	2, 0x810c
    3886:	0000                	.insn	2, 0x
    3888:	8180                	.insn	2, 0x8180
    388a:	0000                	.insn	2, 0x
    388c:	81f4                	.insn	2, 0x81f4
    388e:	0000                	.insn	2, 0x
    3890:	8268                	.insn	2, 0x8268
    3892:	0000                	.insn	2, 0x
    3894:	82dc                	.insn	2, 0x82dc
    3896:	0000                	.insn	2, 0x
    3898:	8350                	.insn	2, 0x8350
    389a:	0000                	.insn	2, 0x
    389c:	83c4                	.insn	2, 0x83c4
    389e:	0000                	.insn	2, 0x
    38a0:	8438                	.insn	2, 0x8438
    38a2:	0000                	.insn	2, 0x
    38a4:	84a8                	.insn	2, 0x84a8
    38a6:	0000                	.insn	2, 0x
    38a8:	8514                	.insn	2, 0x8514
    38aa:	0000                	.insn	2, 0x
    38ac:	8588                	.insn	2, 0x8588
    38ae:	0000                	.insn	2, 0x
    38b0:	85fc                	.insn	2, 0x85fc
    38b2:	0000                	.insn	2, 0x
    38b4:	8670                	.insn	2, 0x8670
    38b6:	0000                	.insn	2, 0x
    38b8:	86e4                	.insn	2, 0x86e4
    38ba:	0000                	.insn	2, 0x
    38bc:	875c                	.insn	2, 0x875c
    38be:	0000                	.insn	2, 0x
    38c0:	87d0                	.insn	2, 0x87d0
    38c2:	0000                	.insn	2, 0x
    38c4:	8844                	.insn	2, 0x8844
    38c6:	0000                	.insn	2, 0x
    38c8:	88b8                	.insn	2, 0x88b8
    38ca:	0000                	.insn	2, 0x
    38cc:	892c                	.insn	2, 0x892c
    38ce:	0000                	.insn	2, 0x
    38d0:	0000                	.insn	2, 0x
	...

000038d4 <boss3>:
    38d4:	7a9c                	.insn	2, 0x7a9c
    38d6:	0000                	.insn	2, 0x
    38d8:	7af8                	.insn	2, 0x7af8
    38da:	0000                	.insn	2, 0x
    38dc:	7b54                	.insn	2, 0x7b54
    38de:	0000                	.insn	2, 0x
    38e0:	7bb0                	.insn	2, 0x7bb0
    38e2:	0000                	.insn	2, 0x
    38e4:	7c0c                	.insn	2, 0x7c0c
    38e6:	0000                	.insn	2, 0x
    38e8:	7c68                	.insn	2, 0x7c68
    38ea:	0000                	.insn	2, 0x
    38ec:	7cc4                	.insn	2, 0x7cc4
    38ee:	0000                	.insn	2, 0x
    38f0:	7d20                	.insn	2, 0x7d20
    38f2:	0000                	.insn	2, 0x
    38f4:	7d7c                	.insn	2, 0x7d7c
    38f6:	0000                	.insn	2, 0x
    38f8:	7dd8                	.insn	2, 0x7dd8
    38fa:	0000                	.insn	2, 0x
    38fc:	7e34                	.insn	2, 0x7e34
    38fe:	0000                	.insn	2, 0x
    3900:	7e90                	.insn	2, 0x7e90
    3902:	0000                	.insn	2, 0x
    3904:	7eec                	.insn	2, 0x7eec
    3906:	0000                	.insn	2, 0x
    3908:	7f48                	.insn	2, 0x7f48
    390a:	0000                	.insn	2, 0x
    390c:	9440                	.insn	2, 0x9440
    390e:	0000                	.insn	2, 0x
    3910:	94b8                	.insn	2, 0x94b8
    3912:	0000                	.insn	2, 0x
    3914:	9530                	.insn	2, 0x9530
    3916:	0000                	.insn	2, 0x
    3918:	810c                	.insn	2, 0x810c
    391a:	0000                	.insn	2, 0x
    391c:	8180                	.insn	2, 0x8180
    391e:	0000                	.insn	2, 0x
    3920:	81f4                	.insn	2, 0x81f4
    3922:	0000                	.insn	2, 0x
    3924:	8268                	.insn	2, 0x8268
    3926:	0000                	.insn	2, 0x
    3928:	82dc                	.insn	2, 0x82dc
    392a:	0000                	.insn	2, 0x
    392c:	8350                	.insn	2, 0x8350
    392e:	0000                	.insn	2, 0x
    3930:	83c4                	.insn	2, 0x83c4
    3932:	0000                	.insn	2, 0x
    3934:	8438                	.insn	2, 0x8438
    3936:	0000                	.insn	2, 0x
    3938:	84a8                	.insn	2, 0x84a8
    393a:	0000                	.insn	2, 0x
    393c:	8514                	.insn	2, 0x8514
    393e:	0000                	.insn	2, 0x
    3940:	8588                	.insn	2, 0x8588
    3942:	0000                	.insn	2, 0x
    3944:	85fc                	.insn	2, 0x85fc
    3946:	0000                	.insn	2, 0x
    3948:	8670                	.insn	2, 0x8670
    394a:	0000                	.insn	2, 0x
    394c:	86e4                	.insn	2, 0x86e4
    394e:	0000                	.insn	2, 0x
    3950:	875c                	.insn	2, 0x875c
    3952:	0000                	.insn	2, 0x
    3954:	87d0                	.insn	2, 0x87d0
    3956:	0000                	.insn	2, 0x
    3958:	8844                	.insn	2, 0x8844
    395a:	0000                	.insn	2, 0x
    395c:	88b8                	.insn	2, 0x88b8
    395e:	0000                	.insn	2, 0x
    3960:	892c                	.insn	2, 0x892c
    3962:	0000                	.insn	2, 0x
    3964:	0000                	.insn	2, 0x
	...

00003968 <boss0>:
    3968:	7a9c                	.insn	2, 0x7a9c
    396a:	0000                	.insn	2, 0x
    396c:	7af8                	.insn	2, 0x7af8
    396e:	0000                	.insn	2, 0x
    3970:	7b54                	.insn	2, 0x7b54
    3972:	0000                	.insn	2, 0x
    3974:	7bb0                	.insn	2, 0x7bb0
    3976:	0000                	.insn	2, 0x
    3978:	7c0c                	.insn	2, 0x7c0c
    397a:	0000                	.insn	2, 0x
    397c:	7c68                	.insn	2, 0x7c68
    397e:	0000                	.insn	2, 0x
    3980:	7cc4                	.insn	2, 0x7cc4
    3982:	0000                	.insn	2, 0x
    3984:	7d20                	.insn	2, 0x7d20
    3986:	0000                	.insn	2, 0x
    3988:	7d7c                	.insn	2, 0x7d7c
    398a:	0000                	.insn	2, 0x
    398c:	7dd8                	.insn	2, 0x7dd8
    398e:	0000                	.insn	2, 0x
    3990:	7e34                	.insn	2, 0x7e34
    3992:	0000                	.insn	2, 0x
    3994:	7e90                	.insn	2, 0x7e90
    3996:	0000                	.insn	2, 0x
    3998:	7eec                	.insn	2, 0x7eec
    399a:	0000                	.insn	2, 0x
    399c:	7f48                	.insn	2, 0x7f48
    399e:	0000                	.insn	2, 0x
    39a0:	9698                	.insn	2, 0x9698
    39a2:	0000                	.insn	2, 0x
    39a4:	94b8                	.insn	2, 0x94b8
    39a6:	0000                	.insn	2, 0x
    39a8:	9530                	.insn	2, 0x9530
    39aa:	0000                	.insn	2, 0x
    39ac:	810c                	.insn	2, 0x810c
    39ae:	0000                	.insn	2, 0x
    39b0:	8180                	.insn	2, 0x8180
    39b2:	0000                	.insn	2, 0x
    39b4:	81f4                	.insn	2, 0x81f4
    39b6:	0000                	.insn	2, 0x
    39b8:	8268                	.insn	2, 0x8268
    39ba:	0000                	.insn	2, 0x
    39bc:	82dc                	.insn	2, 0x82dc
    39be:	0000                	.insn	2, 0x
    39c0:	8350                	.insn	2, 0x8350
    39c2:	0000                	.insn	2, 0x
    39c4:	83c4                	.insn	2, 0x83c4
    39c6:	0000                	.insn	2, 0x
    39c8:	8438                	.insn	2, 0x8438
    39ca:	0000                	.insn	2, 0x
    39cc:	84a8                	.insn	2, 0x84a8
    39ce:	0000                	.insn	2, 0x
    39d0:	8514                	.insn	2, 0x8514
    39d2:	0000                	.insn	2, 0x
    39d4:	8588                	.insn	2, 0x8588
    39d6:	0000                	.insn	2, 0x
    39d8:	85fc                	.insn	2, 0x85fc
    39da:	0000                	.insn	2, 0x
    39dc:	8670                	.insn	2, 0x8670
    39de:	0000                	.insn	2, 0x
    39e0:	86e4                	.insn	2, 0x86e4
    39e2:	0000                	.insn	2, 0x
    39e4:	875c                	.insn	2, 0x875c
    39e6:	0000                	.insn	2, 0x
    39e8:	87d0                	.insn	2, 0x87d0
    39ea:	0000                	.insn	2, 0x
    39ec:	8844                	.insn	2, 0x8844
    39ee:	0000                	.insn	2, 0x
    39f0:	88b8                	.insn	2, 0x88b8
    39f2:	0000                	.insn	2, 0x
    39f4:	892c                	.insn	2, 0x892c
    39f6:	0000                	.insn	2, 0x
    39f8:	0000                	.insn	2, 0x
	...

000039fc <boss1>:
    39fc:	7a9c                	.insn	2, 0x7a9c
    39fe:	0000                	.insn	2, 0x
    3a00:	7af8                	.insn	2, 0x7af8
    3a02:	0000                	.insn	2, 0x
    3a04:	7b54                	.insn	2, 0x7b54
    3a06:	0000                	.insn	2, 0x
    3a08:	7bb0                	.insn	2, 0x7bb0
    3a0a:	0000                	.insn	2, 0x
    3a0c:	7c0c                	.insn	2, 0x7c0c
    3a0e:	0000                	.insn	2, 0x
    3a10:	7c68                	.insn	2, 0x7c68
    3a12:	0000                	.insn	2, 0x
    3a14:	7cc4                	.insn	2, 0x7cc4
    3a16:	0000                	.insn	2, 0x
    3a18:	7d20                	.insn	2, 0x7d20
    3a1a:	0000                	.insn	2, 0x
    3a1c:	7d7c                	.insn	2, 0x7d7c
    3a1e:	0000                	.insn	2, 0x
    3a20:	7dd8                	.insn	2, 0x7dd8
    3a22:	0000                	.insn	2, 0x
    3a24:	7e34                	.insn	2, 0x7e34
    3a26:	0000                	.insn	2, 0x
    3a28:	7e90                	.insn	2, 0x7e90
    3a2a:	0000                	.insn	2, 0x
    3a2c:	7eec                	.insn	2, 0x7eec
    3a2e:	0000                	.insn	2, 0x
    3a30:	7f48                	.insn	2, 0x7f48
    3a32:	0000                	.insn	2, 0x
    3a34:	9620                	.insn	2, 0x9620
    3a36:	0000                	.insn	2, 0x
    3a38:	94b8                	.insn	2, 0x94b8
    3a3a:	0000                	.insn	2, 0x
    3a3c:	9530                	.insn	2, 0x9530
    3a3e:	0000                	.insn	2, 0x
    3a40:	810c                	.insn	2, 0x810c
    3a42:	0000                	.insn	2, 0x
    3a44:	8180                	.insn	2, 0x8180
    3a46:	0000                	.insn	2, 0x
    3a48:	81f4                	.insn	2, 0x81f4
    3a4a:	0000                	.insn	2, 0x
    3a4c:	8268                	.insn	2, 0x8268
    3a4e:	0000                	.insn	2, 0x
    3a50:	82dc                	.insn	2, 0x82dc
    3a52:	0000                	.insn	2, 0x
    3a54:	8350                	.insn	2, 0x8350
    3a56:	0000                	.insn	2, 0x
    3a58:	83c4                	.insn	2, 0x83c4
    3a5a:	0000                	.insn	2, 0x
    3a5c:	8438                	.insn	2, 0x8438
    3a5e:	0000                	.insn	2, 0x
    3a60:	84a8                	.insn	2, 0x84a8
    3a62:	0000                	.insn	2, 0x
    3a64:	8514                	.insn	2, 0x8514
    3a66:	0000                	.insn	2, 0x
    3a68:	8588                	.insn	2, 0x8588
    3a6a:	0000                	.insn	2, 0x
    3a6c:	85fc                	.insn	2, 0x85fc
    3a6e:	0000                	.insn	2, 0x
    3a70:	8670                	.insn	2, 0x8670
    3a72:	0000                	.insn	2, 0x
    3a74:	86e4                	.insn	2, 0x86e4
    3a76:	0000                	.insn	2, 0x
    3a78:	875c                	.insn	2, 0x875c
    3a7a:	0000                	.insn	2, 0x
    3a7c:	87d0                	.insn	2, 0x87d0
    3a7e:	0000                	.insn	2, 0x
    3a80:	8844                	.insn	2, 0x8844
    3a82:	0000                	.insn	2, 0x
    3a84:	88b8                	.insn	2, 0x88b8
    3a86:	0000                	.insn	2, 0x
    3a88:	892c                	.insn	2, 0x892c
    3a8a:	0000                	.insn	2, 0x
    3a8c:	0000                	.insn	2, 0x
	...

00003a90 <boss2>:
    3a90:	7a9c                	.insn	2, 0x7a9c
    3a92:	0000                	.insn	2, 0x
    3a94:	7af8                	.insn	2, 0x7af8
    3a96:	0000                	.insn	2, 0x
    3a98:	7b54                	.insn	2, 0x7b54
    3a9a:	0000                	.insn	2, 0x
    3a9c:	7bb0                	.insn	2, 0x7bb0
    3a9e:	0000                	.insn	2, 0x
    3aa0:	7c0c                	.insn	2, 0x7c0c
    3aa2:	0000                	.insn	2, 0x
    3aa4:	7c68                	.insn	2, 0x7c68
    3aa6:	0000                	.insn	2, 0x
    3aa8:	7cc4                	.insn	2, 0x7cc4
    3aaa:	0000                	.insn	2, 0x
    3aac:	7d20                	.insn	2, 0x7d20
    3aae:	0000                	.insn	2, 0x
    3ab0:	7d7c                	.insn	2, 0x7d7c
    3ab2:	0000                	.insn	2, 0x
    3ab4:	7dd8                	.insn	2, 0x7dd8
    3ab6:	0000                	.insn	2, 0x
    3ab8:	7e34                	.insn	2, 0x7e34
    3aba:	0000                	.insn	2, 0x
    3abc:	7e90                	.insn	2, 0x7e90
    3abe:	0000                	.insn	2, 0x
    3ac0:	7eec                	.insn	2, 0x7eec
    3ac2:	0000                	.insn	2, 0x
    3ac4:	7f48                	.insn	2, 0x7f48
    3ac6:	0000                	.insn	2, 0x
    3ac8:	95a8                	.insn	2, 0x95a8
    3aca:	0000                	.insn	2, 0x
    3acc:	94b8                	.insn	2, 0x94b8
    3ace:	0000                	.insn	2, 0x
    3ad0:	9530                	.insn	2, 0x9530
    3ad2:	0000                	.insn	2, 0x
    3ad4:	810c                	.insn	2, 0x810c
    3ad6:	0000                	.insn	2, 0x
    3ad8:	8180                	.insn	2, 0x8180
    3ada:	0000                	.insn	2, 0x
    3adc:	81f4                	.insn	2, 0x81f4
    3ade:	0000                	.insn	2, 0x
    3ae0:	8268                	.insn	2, 0x8268
    3ae2:	0000                	.insn	2, 0x
    3ae4:	82dc                	.insn	2, 0x82dc
    3ae6:	0000                	.insn	2, 0x
    3ae8:	8350                	.insn	2, 0x8350
    3aea:	0000                	.insn	2, 0x
    3aec:	83c4                	.insn	2, 0x83c4
    3aee:	0000                	.insn	2, 0x
    3af0:	8438                	.insn	2, 0x8438
    3af2:	0000                	.insn	2, 0x
    3af4:	84a8                	.insn	2, 0x84a8
    3af6:	0000                	.insn	2, 0x
    3af8:	8514                	.insn	2, 0x8514
    3afa:	0000                	.insn	2, 0x
    3afc:	8588                	.insn	2, 0x8588
    3afe:	0000                	.insn	2, 0x
    3b00:	85fc                	.insn	2, 0x85fc
    3b02:	0000                	.insn	2, 0x
    3b04:	8670                	.insn	2, 0x8670
    3b06:	0000                	.insn	2, 0x
    3b08:	86e4                	.insn	2, 0x86e4
    3b0a:	0000                	.insn	2, 0x
    3b0c:	875c                	.insn	2, 0x875c
    3b0e:	0000                	.insn	2, 0x
    3b10:	87d0                	.insn	2, 0x87d0
    3b12:	0000                	.insn	2, 0x
    3b14:	8844                	.insn	2, 0x8844
    3b16:	0000                	.insn	2, 0x
    3b18:	88b8                	.insn	2, 0x88b8
    3b1a:	0000                	.insn	2, 0x
    3b1c:	892c                	.insn	2, 0x892c
    3b1e:	0000                	.insn	2, 0x
    3b20:	0000                	.insn	2, 0x
	...

00003b24 <funny>:
    3b24:	7a9c                	.insn	2, 0x7a9c
    3b26:	0000                	.insn	2, 0x
    3b28:	7af8                	.insn	2, 0x7af8
    3b2a:	0000                	.insn	2, 0x
    3b2c:	7b54                	.insn	2, 0x7b54
    3b2e:	0000                	.insn	2, 0x
    3b30:	7bb0                	.insn	2, 0x7bb0
    3b32:	0000                	.insn	2, 0x
    3b34:	7c0c                	.insn	2, 0x7c0c
    3b36:	0000                	.insn	2, 0x
    3b38:	7c68                	.insn	2, 0x7c68
    3b3a:	0000                	.insn	2, 0x
    3b3c:	7cc4                	.insn	2, 0x7cc4
    3b3e:	0000                	.insn	2, 0x
    3b40:	7d20                	.insn	2, 0x7d20
    3b42:	0000                	.insn	2, 0x
    3b44:	7d7c                	.insn	2, 0x7d7c
    3b46:	0000                	.insn	2, 0x
    3b48:	7dd8                	.insn	2, 0x7dd8
    3b4a:	0000                	.insn	2, 0x
    3b4c:	7e34                	.insn	2, 0x7e34
    3b4e:	0000                	.insn	2, 0x
    3b50:	7e90                	.insn	2, 0x7e90
    3b52:	0000                	.insn	2, 0x
    3b54:	7eec                	.insn	2, 0x7eec
    3b56:	0000                	.insn	2, 0x
    3b58:	7f48                	.insn	2, 0x7f48
    3b5a:	0000                	.insn	2, 0x
    3b5c:	89a0                	.insn	2, 0x89a0
    3b5e:	0000                	.insn	2, 0x
    3b60:	90c4                	.insn	2, 0x90c4
    3b62:	0000                	.insn	2, 0x
    3b64:	9138                	.insn	2, 0x9138
    3b66:	0000                	.insn	2, 0x
    3b68:	8ab4                	.insn	2, 0x8ab4
    3b6a:	0000                	.insn	2, 0x
    3b6c:	8b20                	.insn	2, 0x8b20
    3b6e:	0000                	.insn	2, 0x
    3b70:	91a4                	.insn	2, 0x91a4
    3b72:	0000                	.insn	2, 0x
    3b74:	9214                	.insn	2, 0x9214
    3b76:	0000                	.insn	2, 0x
    3b78:	9284                	.insn	2, 0x9284
    3b7a:	0000                	.insn	2, 0x
    3b7c:	92f4                	.insn	2, 0x92f4
    3b7e:	0000                	.insn	2, 0x
    3b80:	9364                	.insn	2, 0x9364
    3b82:	0000                	.insn	2, 0x
    3b84:	93d4                	.insn	2, 0x93d4
    3b86:	0000                	.insn	2, 0x
    3b88:	84a8                	.insn	2, 0x84a8
    3b8a:	0000                	.insn	2, 0x
    3b8c:	8514                	.insn	2, 0x8514
    3b8e:	0000                	.insn	2, 0x
    3b90:	8588                	.insn	2, 0x8588
    3b92:	0000                	.insn	2, 0x
    3b94:	85fc                	.insn	2, 0x85fc
    3b96:	0000                	.insn	2, 0x
    3b98:	8670                	.insn	2, 0x8670
    3b9a:	0000                	.insn	2, 0x
    3b9c:	86e4                	.insn	2, 0x86e4
    3b9e:	0000                	.insn	2, 0x
    3ba0:	875c                	.insn	2, 0x875c
    3ba2:	0000                	.insn	2, 0x
    3ba4:	87d0                	.insn	2, 0x87d0
    3ba6:	0000                	.insn	2, 0x
    3ba8:	8844                	.insn	2, 0x8844
    3baa:	0000                	.insn	2, 0x
    3bac:	88b8                	.insn	2, 0x88b8
    3bae:	0000                	.insn	2, 0x
    3bb0:	892c                	.insn	2, 0x892c
    3bb2:	0000                	.insn	2, 0x
    3bb4:	0000                	.insn	2, 0x
	...

00003bb8 <boring>:
    3bb8:	7a9c                	.insn	2, 0x7a9c
    3bba:	0000                	.insn	2, 0x
    3bbc:	7af8                	.insn	2, 0x7af8
    3bbe:	0000                	.insn	2, 0x
    3bc0:	7b54                	.insn	2, 0x7b54
    3bc2:	0000                	.insn	2, 0x
    3bc4:	7bb0                	.insn	2, 0x7bb0
    3bc6:	0000                	.insn	2, 0x
    3bc8:	7c0c                	.insn	2, 0x7c0c
    3bca:	0000                	.insn	2, 0x
    3bcc:	7c68                	.insn	2, 0x7c68
    3bce:	0000                	.insn	2, 0x
    3bd0:	7cc4                	.insn	2, 0x7cc4
    3bd2:	0000                	.insn	2, 0x
    3bd4:	7d20                	.insn	2, 0x7d20
    3bd6:	0000                	.insn	2, 0x
    3bd8:	7d7c                	.insn	2, 0x7d7c
    3bda:	0000                	.insn	2, 0x
    3bdc:	7dd8                	.insn	2, 0x7dd8
    3bde:	0000                	.insn	2, 0x
    3be0:	7e34                	.insn	2, 0x7e34
    3be2:	0000                	.insn	2, 0x
    3be4:	7e90                	.insn	2, 0x7e90
    3be6:	0000                	.insn	2, 0x
    3be8:	7eec                	.insn	2, 0x7eec
    3bea:	0000                	.insn	2, 0x
    3bec:	7f48                	.insn	2, 0x7f48
    3bee:	0000                	.insn	2, 0x
    3bf0:	7fa4                	.insn	2, 0x7fa4
    3bf2:	0000                	.insn	2, 0x
    3bf4:	801c                	.insn	2, 0x801c
    3bf6:	0000                	.insn	2, 0x
    3bf8:	8094                	.insn	2, 0x8094
    3bfa:	0000                	.insn	2, 0x
    3bfc:	810c                	.insn	2, 0x810c
    3bfe:	0000                	.insn	2, 0x
    3c00:	8180                	.insn	2, 0x8180
    3c02:	0000                	.insn	2, 0x
    3c04:	81f4                	.insn	2, 0x81f4
    3c06:	0000                	.insn	2, 0x
    3c08:	8268                	.insn	2, 0x8268
    3c0a:	0000                	.insn	2, 0x
    3c0c:	82dc                	.insn	2, 0x82dc
    3c0e:	0000                	.insn	2, 0x
    3c10:	8350                	.insn	2, 0x8350
    3c12:	0000                	.insn	2, 0x
    3c14:	83c4                	.insn	2, 0x83c4
    3c16:	0000                	.insn	2, 0x
    3c18:	8438                	.insn	2, 0x8438
    3c1a:	0000                	.insn	2, 0x
    3c1c:	84a8                	.insn	2, 0x84a8
    3c1e:	0000                	.insn	2, 0x
    3c20:	8514                	.insn	2, 0x8514
    3c22:	0000                	.insn	2, 0x
    3c24:	8588                	.insn	2, 0x8588
    3c26:	0000                	.insn	2, 0x
    3c28:	85fc                	.insn	2, 0x85fc
    3c2a:	0000                	.insn	2, 0x
    3c2c:	8670                	.insn	2, 0x8670
    3c2e:	0000                	.insn	2, 0x
    3c30:	86e4                	.insn	2, 0x86e4
    3c32:	0000                	.insn	2, 0x
    3c34:	875c                	.insn	2, 0x875c
    3c36:	0000                	.insn	2, 0x
    3c38:	87d0                	.insn	2, 0x87d0
    3c3a:	0000                	.insn	2, 0x
    3c3c:	8844                	.insn	2, 0x8844
    3c3e:	0000                	.insn	2, 0x
    3c40:	88b8                	.insn	2, 0x88b8
    3c42:	0000                	.insn	2, 0x
    3c44:	892c                	.insn	2, 0x892c
    3c46:	0000                	.insn	2, 0x
    3c48:	0000                	.insn	2, 0x
	...

00003c4c <question>:
    3c4c:	7a9c                	.insn	2, 0x7a9c
    3c4e:	0000                	.insn	2, 0x
    3c50:	7af8                	.insn	2, 0x7af8
    3c52:	0000                	.insn	2, 0x
    3c54:	7b54                	.insn	2, 0x7b54
    3c56:	0000                	.insn	2, 0x
    3c58:	7bb0                	.insn	2, 0x7bb0
    3c5a:	0000                	.insn	2, 0x
    3c5c:	7c0c                	.insn	2, 0x7c0c
    3c5e:	0000                	.insn	2, 0x
    3c60:	7c68                	.insn	2, 0x7c68
    3c62:	0000                	.insn	2, 0x
    3c64:	7cc4                	.insn	2, 0x7cc4
    3c66:	0000                	.insn	2, 0x
    3c68:	7d20                	.insn	2, 0x7d20
    3c6a:	0000                	.insn	2, 0x
    3c6c:	7d7c                	.insn	2, 0x7d7c
    3c6e:	0000                	.insn	2, 0x
    3c70:	7dd8                	.insn	2, 0x7dd8
    3c72:	0000                	.insn	2, 0x
    3c74:	7e34                	.insn	2, 0x7e34
    3c76:	0000                	.insn	2, 0x
    3c78:	7e90                	.insn	2, 0x7e90
    3c7a:	0000                	.insn	2, 0x
    3c7c:	7eec                	.insn	2, 0x7eec
    3c7e:	0000                	.insn	2, 0x
    3c80:	7f48                	.insn	2, 0x7f48
    3c82:	0000                	.insn	2, 0x
    3c84:	89a0                	.insn	2, 0x89a0
    3c86:	0000                	.insn	2, 0x
    3c88:	89fc                	.insn	2, 0x89fc
    3c8a:	0000                	.insn	2, 0x
    3c8c:	8a58                	.insn	2, 0x8a58
    3c8e:	0000                	.insn	2, 0x
    3c90:	8ab4                	.insn	2, 0x8ab4
    3c92:	0000                	.insn	2, 0x
    3c94:	8b20                	.insn	2, 0x8b20
    3c96:	0000                	.insn	2, 0x
    3c98:	8e2c                	.insn	2, 0x8e2c
    3c9a:	0000                	.insn	2, 0x
    3c9c:	8e9c                	.insn	2, 0x8e9c
    3c9e:	0000                	.insn	2, 0x
    3ca0:	8c70                	.insn	2, 0x8c70
    3ca2:	0000                	.insn	2, 0x
    3ca4:	8ce0                	.insn	2, 0x8ce0
    3ca6:	0000                	.insn	2, 0x
    3ca8:	8fe8                	.insn	2, 0x8fe8
    3caa:	0000                	.insn	2, 0x
    3cac:	9058                	.insn	2, 0x9058
    3cae:	0000                	.insn	2, 0x
    3cb0:	84a8                	.insn	2, 0x84a8
    3cb2:	0000                	.insn	2, 0x
    3cb4:	8514                	.insn	2, 0x8514
    3cb6:	0000                	.insn	2, 0x
    3cb8:	8588                	.insn	2, 0x8588
    3cba:	0000                	.insn	2, 0x
    3cbc:	85fc                	.insn	2, 0x85fc
    3cbe:	0000                	.insn	2, 0x
    3cc0:	8670                	.insn	2, 0x8670
    3cc2:	0000                	.insn	2, 0x
    3cc4:	86e4                	.insn	2, 0x86e4
    3cc6:	0000                	.insn	2, 0x
    3cc8:	875c                	.insn	2, 0x875c
    3cca:	0000                	.insn	2, 0x
    3ccc:	87d0                	.insn	2, 0x87d0
    3cce:	0000                	.insn	2, 0x
    3cd0:	8844                	.insn	2, 0x8844
    3cd2:	0000                	.insn	2, 0x
    3cd4:	88b8                	.insn	2, 0x88b8
    3cd6:	0000                	.insn	2, 0x
    3cd8:	892c                	.insn	2, 0x892c
    3cda:	0000                	.insn	2, 0x
    3cdc:	0000                	.insn	2, 0x
	...

00003ce0 <question_good>:
    3ce0:	7a9c                	.insn	2, 0x7a9c
    3ce2:	0000                	.insn	2, 0x
    3ce4:	7af8                	.insn	2, 0x7af8
    3ce6:	0000                	.insn	2, 0x
    3ce8:	7b54                	.insn	2, 0x7b54
    3cea:	0000                	.insn	2, 0x
    3cec:	7bb0                	.insn	2, 0x7bb0
    3cee:	0000                	.insn	2, 0x
    3cf0:	7c0c                	.insn	2, 0x7c0c
    3cf2:	0000                	.insn	2, 0x
    3cf4:	7c68                	.insn	2, 0x7c68
    3cf6:	0000                	.insn	2, 0x
    3cf8:	7cc4                	.insn	2, 0x7cc4
    3cfa:	0000                	.insn	2, 0x
    3cfc:	7d20                	.insn	2, 0x7d20
    3cfe:	0000                	.insn	2, 0x
    3d00:	7d7c                	.insn	2, 0x7d7c
    3d02:	0000                	.insn	2, 0x
    3d04:	7dd8                	.insn	2, 0x7dd8
    3d06:	0000                	.insn	2, 0x
    3d08:	7e34                	.insn	2, 0x7e34
    3d0a:	0000                	.insn	2, 0x
    3d0c:	7e90                	.insn	2, 0x7e90
    3d0e:	0000                	.insn	2, 0x
    3d10:	7eec                	.insn	2, 0x7eec
    3d12:	0000                	.insn	2, 0x
    3d14:	7f48                	.insn	2, 0x7f48
    3d16:	0000                	.insn	2, 0x
    3d18:	89a0                	.insn	2, 0x89a0
    3d1a:	0000                	.insn	2, 0x
    3d1c:	89fc                	.insn	2, 0x89fc
    3d1e:	0000                	.insn	2, 0x
    3d20:	8a58                	.insn	2, 0x8a58
    3d22:	0000                	.insn	2, 0x
    3d24:	8ab4                	.insn	2, 0x8ab4
    3d26:	0000                	.insn	2, 0x
    3d28:	8b20                	.insn	2, 0x8b20
    3d2a:	0000                	.insn	2, 0x
    3d2c:	8e2c                	.insn	2, 0x8e2c
    3d2e:	0000                	.insn	2, 0x
    3d30:	8e9c                	.insn	2, 0x8e9c
    3d32:	0000                	.insn	2, 0x
    3d34:	8c70                	.insn	2, 0x8c70
    3d36:	0000                	.insn	2, 0x
    3d38:	8ce0                	.insn	2, 0x8ce0
    3d3a:	0000                	.insn	2, 0x
    3d3c:	8f0c                	.insn	2, 0x8f0c
    3d3e:	0000                	.insn	2, 0x
    3d40:	8f7c                	.insn	2, 0x8f7c
    3d42:	0000                	.insn	2, 0x
    3d44:	84a8                	.insn	2, 0x84a8
    3d46:	0000                	.insn	2, 0x
    3d48:	8514                	.insn	2, 0x8514
    3d4a:	0000                	.insn	2, 0x
    3d4c:	8588                	.insn	2, 0x8588
    3d4e:	0000                	.insn	2, 0x
    3d50:	85fc                	.insn	2, 0x85fc
    3d52:	0000                	.insn	2, 0x
    3d54:	8670                	.insn	2, 0x8670
    3d56:	0000                	.insn	2, 0x
    3d58:	86e4                	.insn	2, 0x86e4
    3d5a:	0000                	.insn	2, 0x
    3d5c:	875c                	.insn	2, 0x875c
    3d5e:	0000                	.insn	2, 0x
    3d60:	87d0                	.insn	2, 0x87d0
    3d62:	0000                	.insn	2, 0x
    3d64:	8844                	.insn	2, 0x8844
    3d66:	0000                	.insn	2, 0x
    3d68:	88b8                	.insn	2, 0x88b8
    3d6a:	0000                	.insn	2, 0x
    3d6c:	892c                	.insn	2, 0x892c
    3d6e:	0000                	.insn	2, 0x
    3d70:	0000                	.insn	2, 0x
	...

00003d74 <question_bad>:
    3d74:	7a9c                	.insn	2, 0x7a9c
    3d76:	0000                	.insn	2, 0x
    3d78:	7af8                	.insn	2, 0x7af8
    3d7a:	0000                	.insn	2, 0x
    3d7c:	7b54                	.insn	2, 0x7b54
    3d7e:	0000                	.insn	2, 0x
    3d80:	7bb0                	.insn	2, 0x7bb0
    3d82:	0000                	.insn	2, 0x
    3d84:	7c0c                	.insn	2, 0x7c0c
    3d86:	0000                	.insn	2, 0x
    3d88:	7c68                	.insn	2, 0x7c68
    3d8a:	0000                	.insn	2, 0x
    3d8c:	7cc4                	.insn	2, 0x7cc4
    3d8e:	0000                	.insn	2, 0x
    3d90:	7d20                	.insn	2, 0x7d20
    3d92:	0000                	.insn	2, 0x
    3d94:	7d7c                	.insn	2, 0x7d7c
    3d96:	0000                	.insn	2, 0x
    3d98:	7dd8                	.insn	2, 0x7dd8
    3d9a:	0000                	.insn	2, 0x
    3d9c:	7e34                	.insn	2, 0x7e34
    3d9e:	0000                	.insn	2, 0x
    3da0:	7e90                	.insn	2, 0x7e90
    3da2:	0000                	.insn	2, 0x
    3da4:	7eec                	.insn	2, 0x7eec
    3da6:	0000                	.insn	2, 0x
    3da8:	7f48                	.insn	2, 0x7f48
    3daa:	0000                	.insn	2, 0x
    3dac:	89a0                	.insn	2, 0x89a0
    3dae:	0000                	.insn	2, 0x
    3db0:	89fc                	.insn	2, 0x89fc
    3db2:	0000                	.insn	2, 0x
    3db4:	8a58                	.insn	2, 0x8a58
    3db6:	0000                	.insn	2, 0x
    3db8:	8ab4                	.insn	2, 0x8ab4
    3dba:	0000                	.insn	2, 0x
    3dbc:	8b20                	.insn	2, 0x8b20
    3dbe:	0000                	.insn	2, 0x
    3dc0:	8b90                	.insn	2, 0x8b90
    3dc2:	0000                	.insn	2, 0x
    3dc4:	8c00                	.insn	2, 0x8c00
    3dc6:	0000                	.insn	2, 0x
    3dc8:	8c70                	.insn	2, 0x8c70
    3dca:	0000                	.insn	2, 0x
    3dcc:	8ce0                	.insn	2, 0x8ce0
    3dce:	0000                	.insn	2, 0x
    3dd0:	8d50                	.insn	2, 0x8d50
    3dd2:	0000                	.insn	2, 0x
    3dd4:	8dc0                	.insn	2, 0x8dc0
    3dd6:	0000                	.insn	2, 0x
    3dd8:	84a8                	.insn	2, 0x84a8
    3dda:	0000                	.insn	2, 0x
    3ddc:	8514                	.insn	2, 0x8514
    3dde:	0000                	.insn	2, 0x
    3de0:	8588                	.insn	2, 0x8588
    3de2:	0000                	.insn	2, 0x
    3de4:	85fc                	.insn	2, 0x85fc
    3de6:	0000                	.insn	2, 0x
    3de8:	8670                	.insn	2, 0x8670
    3dea:	0000                	.insn	2, 0x
    3dec:	86e4                	.insn	2, 0x86e4
    3dee:	0000                	.insn	2, 0x
    3df0:	875c                	.insn	2, 0x875c
    3df2:	0000                	.insn	2, 0x
    3df4:	87d0                	.insn	2, 0x87d0
    3df6:	0000                	.insn	2, 0x
    3df8:	8844                	.insn	2, 0x8844
    3dfa:	0000                	.insn	2, 0x
    3dfc:	88b8                	.insn	2, 0x88b8
    3dfe:	0000                	.insn	2, 0x
    3e00:	892c                	.insn	2, 0x892c
    3e02:	0000                	.insn	2, 0x
    3e04:	0000                	.insn	2, 0x
	...

00003e08 <coffee>:
    3e08:	0006                	.insn	2, 0x0006
	...

00003e0c <c_energy>:
    3e0c:	000a                	.insn	2, 0x000a
	...

Disassembly of section .rodata.str1.4:

00003e10 <.rodata.str1.4>:
    3e10:	4a325b1b          	.insn	4, 0x4a325b1b
    3e14:	00485b1b          	.insn	4, 0x00485b1b
    3e18:	41315b1b          	.insn	4, 0x41315b1b
    3e1c:	4b325b1b          	.insn	4, 0x4b325b1b
    3e20:	0000                	.insn	2, 0x
    3e22:	0000                	.insn	2, 0x
    3e24:	6e49                	.insn	2, 0x6e49
    3e26:	6176                	.insn	2, 0x6176
    3e28:	696c                	.insn	2, 0x696c
    3e2a:	2064                	.insn	2, 0x2064
    3e2c:	696f6863          	bltu	t5,s6,44bc <c_energy+0x6b0>
    3e30:	20216563          	bltu	sp,sp,403a <c_energy+0x22e>
    3e34:	6c46                	.insn	2, 0x6c46
    3e36:	7069                	.insn	2, 0x7069
    3e38:	6f20                	.insn	2, 0x6f20
    3e3a:	6c6e                	.insn	2, 0x6c6e
    3e3c:	2079                	.insn	2, 0x2079
    3e3e:	20454e4f          	.insn	4, 0x20454e4f
    3e42:	74697773          	csrrci	a4,0x746,18
    3e46:	61206863          	bltu	zero,s2,4456 <c_energy+0x64a>
    3e4a:	646e                	.insn	2, 0x646e
    3e4c:	7020                	.insn	2, 0x7020
    3e4e:	6572                	.insn	2, 0x6572
    3e50:	74207373          	csrrci	t1,0x742,0
    3e54:	6568                	.insn	2, 0x6568
    3e56:	6220                	.insn	2, 0x6220
    3e58:	7475                	.insn	2, 0x7475
    3e5a:	6f74                	.insn	2, 0x6f74
    3e5c:	2e6e                	.insn	2, 0x2e6e
    3e5e:	000a                	.insn	2, 0x000a
    3e60:	2d0a                	.insn	2, 0x2d0a
    3e62:	2d2d                	.insn	2, 0x2d2d
    3e64:	4320                	.insn	2, 0x4320
    3e66:	7275                	.insn	2, 0x7275
    3e68:	6572                	.insn	2, 0x6572
    3e6a:	746e                	.insn	2, 0x746e
    3e6c:	5320                	.insn	2, 0x5320
    3e6e:	6174                	.insn	2, 0x6174
    3e70:	7574                	.insn	2, 0x7574
    3e72:	2d2d2073          	csrs	0x2d2,s10
    3e76:	0a2d                	.insn	2, 0x0a2d
    3e78:	0000                	.insn	2, 0x
    3e7a:	0000                	.insn	2, 0x
    3e7c:	6e45                	.insn	2, 0x6e45
    3e7e:	7265                	.insn	2, 0x7265
    3e80:	203a7967          	.insn	4, 0x203a7967
    3e84:	0000                	.insn	2, 0x
    3e86:	0000                	.insn	2, 0x
    3e88:	000a                	.insn	2, 0x000a
    3e8a:	0000                	.insn	2, 0x
    3e8c:	68736143          	.insn	4, 0x68736143
    3e90:	203a                	.insn	2, 0x203a
    3e92:	0024                	.insn	2, 0x0024
    3e94:	72616843          	.insn	4, 0x72616843
    3e98:	7369                	.insn	2, 0x7369
    3e9a:	616d                	.insn	2, 0x616d
    3e9c:	203a                	.insn	2, 0x203a
    3e9e:	0000                	.insn	2, 0x
    3ea0:	636f6c43          	.insn	4, 0x636f6c43
    3ea4:	00203a6b          	.insn	4, 0x00203a6b
    3ea8:	6941                	.insn	2, 0x6941
    3eaa:	6d6c                	.insn	2, 0x6d6c
    3eac:	6e65                	.insn	2, 0x6e65
    3eae:	7374                	.insn	2, 0x7374
    3eb0:	203a                	.insn	2, 0x203a
    3eb2:	0000                	.insn	2, 0x
    3eb4:	9ff0                	.insn	2, 0x9ff0
    3eb6:	b598                	.insn	2, 0xb598
    3eb8:	5320                	.insn	2, 0x5320
    3eba:	7274                	.insn	2, 0x7274
    3ebc:	7365                	.insn	2, 0x7365
    3ebe:	20646573          	csrrsi	a0,0x206,8
    3ec2:	0020                	.insn	2, 0x0020
    3ec4:	9ff0                	.insn	2, 0x9ff0
    3ec6:	b1a5                	.insn	2, 0xb1a5
    3ec8:	5320                	.insn	2, 0x5320
    3eca:	656c                	.insn	2, 0x656c
    3ecc:	7065                	.insn	2, 0x7065
    3ece:	2079                	.insn	2, 0x2079
    3ed0:	0020                	.insn	2, 0x0020
    3ed2:	0000                	.insn	2, 0x
    3ed4:	98e2                	.insn	2, 0x98e2
    3ed6:	2095                	.insn	2, 0x2095
    3ed8:	7265764f          	.insn	4, 0x7265764f
    3edc:	632d                	.insn	2, 0x632d
    3ede:	6661                	.insn	2, 0x6661
    3ee0:	6566                	.insn	2, 0x6566
    3ee2:	6e69                	.insn	2, 0x6e69
    3ee4:	7461                	.insn	2, 0x7461
    3ee6:	6465                	.insn	2, 0x6465
    3ee8:	2020                	.insn	2, 0x2020
    3eea:	0000                	.insn	2, 0x
    3eec:	9ff0                	.insn	2, 0x9ff0
    3eee:	5020868f          	.insn	4, 0x5020868f
    3ef2:	6f72                	.insn	2, 0x6f72
    3ef4:	7564                	.insn	2, 0x7564
    3ef6:	76697463          	bgeu	s2,t1,465e <__global_pointer+0x56>
    3efa:	2065                	.insn	2, 0x2065
    3efc:	0020                	.insn	2, 0x0020
    3efe:	0000                	.insn	2, 0x
    3f00:	6f4e                	.insn	2, 0x6f4e
    3f02:	656e                	.insn	2, 0x656e
    3f04:	f020                	.insn	2, 0xf020
    3f06:	989f 008a 0000      	.insn	6, 0x008a989f
    3f0c:	207c                	.insn	2, 0x207c
    3f0e:	0000                	.insn	2, 0x
    3f10:	7c20                	.insn	2, 0x7c20
    3f12:	0020                	.insn	2, 0x0020
    3f14:	7c20                	.insn	2, 0x7c20
    3f16:	0000                	.insn	2, 0x
    3f18:	0041                	.insn	2, 0x0041
    3f1a:	0000                	.insn	2, 0x
    3f1c:	6f59                	.insn	2, 0x6f59
    3f1e:	2075                	.insn	2, 0x2075
    3f20:	7261                	.insn	2, 0x7261
    3f22:	6972                	.insn	2, 0x6972
    3f24:	6576                	.insn	2, 0x6576
    3f26:	6120                	.insn	2, 0x6120
    3f28:	2074                	.insn	2, 0x2074
    3f2a:	6874                	.insn	2, 0x6874
    3f2c:	2065                	.insn	2, 0x2065
    3f2e:	6170                	.insn	2, 0x6170
    3f30:	6b72                	.insn	2, 0x6b72
    3f32:	6e69                	.insn	2, 0x6e69
    3f34:	6f6c2067          	.insn	4, 0x6f6c2067
    3f38:	2e74                	.insn	2, 0x2e74
    3f3a:	5920                	.insn	2, 0x5920
    3f3c:	7320756f          	jal	a0,b66e <__global_pointer+0x7066>
    3f40:	6565                	.insn	2, 0x6565
    3f42:	7620                	.insn	2, 0x7620
    3f44:	6361                	.insn	2, 0x6361
    3f46:	6e61                	.insn	2, 0x6e61
    3f48:	2074                	.insn	2, 0x2074
    3f4a:	746f7073          	csrci	0x746,30
    3f4e:	70732073          	csrs	0x707,t1
    3f52:	6574746f          	jal	s0,4bda8 <__global_pointer+0x477a0>
    3f56:	2064                	.insn	2, 0x2064
    3f58:	6874                	.insn	2, 0x6874
    3f5a:	6f72                	.insn	2, 0x6f72
    3f5c:	6775                	.insn	2, 0x6775
    3f5e:	6f68                	.insn	2, 0x6f68
    3f60:	7475                	.insn	2, 0x7475
    3f62:	000a                	.insn	2, 0x000a
    3f64:	2020                	.insn	2, 0x2020
    3f66:	2020                	.insn	2, 0x2020
    3f68:	2020                	.insn	2, 0x2020
    3f6a:	5f5f 5f5f 5f5f      	.insn	6, 0x5f5f5f5f5f5f
    3f70:	5f5f 5f5f 5f5f      	.insn	6, 0x5f5f5f5f5f5f
    3f76:	5f5f 5f5f 5f5f      	.insn	6, 0x5f5f5f5f5f5f
    3f7c:	5f5f 5f5f 5f5f      	.insn	6, 0x5f5f5f5f5f5f
    3f82:	000a                	.insn	2, 0x000a
    3f84:	2020                	.insn	2, 0x2020
    3f86:	2020                	.insn	2, 0x2020
    3f88:	2f20                	.insn	2, 0x2f20
    3f8a:	2f2f2f2f          	.insn	4, 0x2f2f2f2f
    3f8e:	2f2f2f2f          	.insn	4, 0x2f2f2f2f
    3f92:	2f2f2f2f          	.insn	4, 0x2f2f2f2f
    3f96:	5c7c                	.insn	2, 0x5c7c
    3f98:	5c5c                	.insn	2, 0x5c5c
    3f9a:	5c5c                	.insn	2, 0x5c5c
    3f9c:	6e5c                	.insn	2, 0x6e5c
    3f9e:	0000                	.insn	2, 0x
    3fa0:	2020                	.insn	2, 0x2020
    3fa2:	2020                	.insn	2, 0x2020
    3fa4:	2d2d2e27          	.insn	4, 0x2d2d2e27
    3fa8:	2d2d                	.insn	2, 0x2d2d
    3faa:	2d2d                	.insn	2, 0x2d2d
    3fac:	2d2d                	.insn	2, 0x2d2d
    3fae:	2d2d                	.insn	2, 0x2d2d
    3fb0:	2d2d                	.insn	2, 0x2d2d
    3fb2:	2d2d                	.insn	2, 0x2d2d
    3fb4:	2d2d                	.insn	2, 0x2d2d
    3fb6:	2d2d                	.insn	2, 0x2d2d
    3fb8:	2d2d                	.insn	2, 0x2d2d
    3fba:	2d2d                	.insn	2, 0x2d2d
    3fbc:	2d2d                	.insn	2, 0x2d2d
    3fbe:	2e2d                	.insn	2, 0x2e2d
    3fc0:	00000a27          	.insn	4, 0x0a27
    3fc4:	2020                	.insn	2, 0x2020
    3fc6:	2020                	.insn	2, 0x2020
    3fc8:	7c20                	.insn	2, 0x7c20
    3fca:	2020                	.insn	2, 0x2020
    3fcc:	2020                	.insn	2, 0x2020
    3fce:	2020                	.insn	2, 0x2020
    3fd0:	2020                	.insn	2, 0x2020
    3fd2:	2020                	.insn	2, 0x2020
    3fd4:	2020                	.insn	2, 0x2020
    3fd6:	2020                	.insn	2, 0x2020
    3fd8:	2020                	.insn	2, 0x2020
    3fda:	2020                	.insn	2, 0x2020
    3fdc:	2020                	.insn	2, 0x2020
    3fde:	2020                	.insn	2, 0x2020
    3fe0:	2020                	.insn	2, 0x2020
    3fe2:	7c20                	.insn	2, 0x7c20
    3fe4:	000a                	.insn	2, 0x000a
    3fe6:	0000                	.insn	2, 0x
    3fe8:	2020                	.insn	2, 0x2020
    3fea:	2020                	.insn	2, 0x2020
    3fec:	7c20                	.insn	2, 0x7c20
    3fee:	5b20                	.insn	2, 0x5b20
    3ff0:	205d                	.insn	2, 0x205d
    3ff2:	5b205d5b          	.insn	4, 0x5b205d5b
    3ff6:	205d                	.insn	2, 0x205d
    3ff8:	5b205d5b          	.insn	4, 0x5b205d5b
    3ffc:	205d                	.insn	2, 0x205d
    3ffe:	5b205d5b          	.insn	4, 0x5b205d5b
    4002:	205d                	.insn	2, 0x205d
    4004:	7c205d5b          	.insn	4, 0x7c205d5b
    4008:	000a                	.insn	2, 0x000a
    400a:	0000                	.insn	2, 0x
    400c:	2020                	.insn	2, 0x2020
    400e:	5f20                	.insn	2, 0x5f20
    4010:	2d2e                	.insn	2, 0x2d2e
    4012:	202e                	.insn	2, 0x202e
    4014:	2020                	.insn	2, 0x2020
    4016:	2020                	.insn	2, 0x2020
    4018:	2020                	.insn	2, 0x2020
    401a:	5f20                	.insn	2, 0x5f20
    401c:	5f20                	.insn	2, 0x5f20
    401e:	5f32                	.insn	2, 0x5f32
    4020:	5f20                	.insn	2, 0x5f20
    4022:	2020                	.insn	2, 0x2020
    4024:	2020                	.insn	2, 0x2020
    4026:	2020                	.insn	2, 0x2020
    4028:	2020                	.insn	2, 0x2020
    402a:	7c20                	.insn	2, 0x7c20
    402c:	000a                	.insn	2, 0x000a
    402e:	0000                	.insn	2, 0x
    4030:	2020                	.insn	2, 0x2020
    4032:	3e20                	.insn	2, 0x3e20
    4034:	2020                	.insn	2, 0x2020
    4036:	2920                	.insn	2, 0x2920
    4038:	205d                	.insn	2, 0x205d
    403a:	5b205d5b          	.insn	4, 0x5b205d5b
    403e:	7c5d                	.insn	2, 0x7c5d
    4040:	5f7c                	.insn	2, 0x5f7c
    4042:	7c7c                	.insn	2, 0x7c7c
    4044:	7c7c                	.insn	2, 0x7c7c
    4046:	5b205d5b          	.insn	4, 0x5b205d5b
    404a:	205d                	.insn	2, 0x205d
    404c:	7c205d5b          	.insn	4, 0x7c205d5b
    4050:	000a                	.insn	2, 0x000a
    4052:	0000                	.insn	2, 0x
    4054:	2020                	.insn	2, 0x2020
    4056:	6020                	.insn	2, 0x6020
    4058:	2c2e                	.insn	2, 0x2c2e
    405a:	5f5f5f27          	.insn	4, 0x5f5f5f27
    405e:	5f5f 5f5f 7c5f      	.insn	6, 0x7c5f5f5f5f5f
    4064:	5f7c                	.insn	2, 0x5f7c
    4066:	5f5f 7c7c 5f5f      	.insn	6, 0x5f5f7c7c5f5f
    406c:	5f5f 5f5f 5f5f      	.insn	6, 0x5f5f5f5f5f5f
    4072:	7c5f 2020 0a3c      	.insn	6, 0x0a3c20207c5f
    4078:	0000                	.insn	2, 0x
    407a:	0000                	.insn	2, 0x
    407c:	2020                	.insn	2, 0x2020
    407e:	2020                	.insn	2, 0x2020
    4080:	7c7c                	.insn	2, 0x7c7c
    4082:	2020                	.insn	2, 0x2020
    4084:	5f20202f          	.insn	4, 0x5f20202f
    4088:	3e3c                	.insn	2, 0x3e3c
    408a:	5f20                	.insn	2, 0x5f20
    408c:	2020                	.insn	2, 0x2020
    408e:	2020                	.insn	2, 0x2020
    4090:	5f20                	.insn	2, 0x5f20
    4092:	2020                	.insn	2, 0x2020
    4094:	2020                	.insn	2, 0x2020
    4096:	5f28                	.insn	2, 0x5f28
    4098:	3c29                	.insn	2, 0x3c29
    409a:	203e                	.insn	2, 0x203e
    409c:	0a7c                	.insn	2, 0x0a7c
    409e:	0000                	.insn	2, 0x
    40a0:	2020                	.insn	2, 0x2020
    40a2:	2020                	.insn	2, 0x2020
    40a4:	2f202727          	.insn	4, 0x2f202727
    40a8:	3e3c                	.insn	2, 0x3e3c
    40aa:	5f28                	.insn	2, 0x5f28
    40ac:	2c29                	.insn	2, 0x2c29
    40ae:	2f3a                	.insn	2, 0x2f3a
    40b0:	2020                	.insn	2, 0x2020
    40b2:	2020                	.insn	2, 0x2020
    40b4:	5c20                	.insn	2, 0x5c20
    40b6:	2e3a                	.insn	2, 0x2e3a
    40b8:	3c20                	.insn	2, 0x3c20
    40ba:	273e                	.insn	2, 0x273e
    40bc:	2020                	.insn	2, 0x2020
    40be:	3e3c                	.insn	2, 0x3e3c
    40c0:	0a7c                	.insn	2, 0x0a7c
    40c2:	0000                	.insn	2, 0x
    40c4:	2020                	.insn	2, 0x2020
    40c6:	2020                	.insn	2, 0x2020
    40c8:	5f5f 3a3a 3a3a      	.insn	6, 0x3a3a3a3a5f5f
    40ce:	3a3a                	.insn	2, 0x3a3a
    40d0:	3a3a                	.insn	2, 0x3a3a
    40d2:	205f202f          	.insn	4, 0x205f202f
    40d6:	205f 205f 3a5c      	.insn	6, 0x3a5c205f205f
    40dc:	3a3a                	.insn	2, 0x3a3a
    40de:	3a3a                	.insn	2, 0x3a3a
    40e0:	3a3a                	.insn	2, 0x3a3a
    40e2:	3a3a                	.insn	2, 0x3a3a
    40e4:	3a3a                	.insn	2, 0x3a3a
    40e6:	0a5f 0000 0000      	.insn	6, 0x0a5f
    40ec:	2e31                	.insn	2, 0x2e31
    40ee:	5020                	.insn	2, 0x5020
    40f0:	7261                	.insn	2, 0x7261
    40f2:	6e69206b          	.insn	4, 0x6e69206b
    40f6:	7920                	.insn	2, 0x7920
    40f8:	2072756f          	jal	a0,2bafe <__global_pointer+0x274f6>
    40fc:	6f62                	.insn	2, 0x6f62
    40fe:	80e27373          	csrrci	t1,0x80e,4
    4102:	7399                	.insn	2, 0x7399
    4104:	7520                	.insn	2, 0x7520
    4106:	6c617573          	csrrci	a0,0x6c6,2
    410a:	7320                	.insn	2, 0x7320
    410c:	6f70                	.insn	2, 0x6f70
    410e:	2074                	.insn	2, 0x2074
    4110:	4128                	.insn	2, 0x4128
    4112:	7020                	.insn	2, 0x7020
    4114:	7265776f          	jal	a4,5b83a <__global_pointer+0x57232>
    4118:	6d20                	.insn	2, 0x6d20
    411a:	2e65766f          	jal	a2,5b400 <__global_pointer+0x56df8>
    411e:	0a29                	.insn	2, 0x0a29
    4120:	0000                	.insn	2, 0x
    4122:	0000                	.insn	2, 0x
    4124:	2e32                	.insn	2, 0x2e32
    4126:	5020                	.insn	2, 0x5020
    4128:	7261                	.insn	2, 0x7261
    412a:	656e206b          	.insn	4, 0x656e206b
    412e:	7478                	.insn	2, 0x7478
    4130:	7420                	.insn	2, 0x7420
    4132:	6f79206f          	j	97028 <__global_pointer+0x92a20>
    4136:	7275                	.insn	2, 0x7275
    4138:	6220                	.insn	2, 0x6220
    413a:	7365                	.insn	2, 0x7365
    413c:	6974                	.insn	2, 0x6974
    413e:	2065                	.insn	2, 0x2065
    4140:	4728                	.insn	2, 0x4728
    4142:	6973736f          	jal	t1,3bfd8 <__global_pointer+0x379d0>
    4146:	2070                	.insn	2, 0x2070
    4148:	6974                	.insn	2, 0x6974
    414a:	656d                	.insn	2, 0x656d
    414c:	292e                	.insn	2, 0x292e
    414e:	000a                	.insn	2, 0x000a
    4150:	6f59                	.insn	2, 0x6f59
    4152:	7275                	.insn	2, 0x7275
    4154:	6220                	.insn	2, 0x6220
    4156:	2073736f          	jal	t1,3bb5c <__global_pointer+0x37554>
    415a:	73656573          	csrrsi	a0,mhpmevent22h,10
    415e:	6920                	.insn	2, 0x6920
    4160:	2e74                	.insn	2, 0x2e74
    4162:	5420                	.insn	2, 0x5420
    4164:	6568                	.insn	2, 0x6568
    4166:	2079                	.insn	2, 0x2079
    4168:	20796173          	csrrsi	sp,0x207,18
    416c:	6f6e                	.insn	2, 0x6f6e
    416e:	6874                	.insn	2, 0x6874
    4170:	6e69                	.insn	2, 0x6e69
    4172:	42202e67          	.insn	4, 0x42202e67
    4176:	7475                	.insn	2, 0x7475
    4178:	7420                	.insn	2, 0x7420
    417a:	6568                	.insn	2, 0x6568
    417c:	7269                	.insn	2, 0x7269
    417e:	6520                	.insn	2, 0x6520
    4180:	6579                	.insn	2, 0x6579
    4182:	2e2e2e73          	csrrs	t3,0x2e2,t3
    4186:	7420                	.insn	2, 0x7420
    4188:	6568                	.insn	2, 0x6568
    418a:	2079                	.insn	2, 0x2079
    418c:	7261                	.insn	2, 0x7261
    418e:	2065                	.insn	2, 0x2065
    4190:	6c70                	.insn	2, 0x6c70
    4192:	6974746f          	jal	s0,4c028 <__global_pointer+0x47a20>
    4196:	676e                	.insn	2, 0x676e
    4198:	0a2e                	.insn	2, 0x0a2e
    419a:	0000                	.insn	2, 0x
    419c:	6f59                	.insn	2, 0x6f59
    419e:	2075                	.insn	2, 0x2075
    41a0:	6566                	.insn	2, 0x6566
    41a2:	6c65                	.insn	2, 0x6c65
    41a4:	6120                	.insn	2, 0x6120
    41a6:	7320                	.insn	2, 0x7320
    41a8:	6e65                	.insn	2, 0x6e65
    41aa:	6f206573          	csrrsi	a0,0x6f2,0
    41ae:	2066                	.insn	2, 0x2066
    41b0:	6f70                	.insn	2, 0x6f70
    41b2:	2e726577          	.insn	4, 0x2e726577
    41b6:	f020                	.insn	2, 0xf020
    41b8:	989f 0a8e 0000      	.insn	6, 0x0a8e989f
    41be:	0000                	.insn	2, 0x
    41c0:	6f59                	.insn	2, 0x6f59
    41c2:	2075                	.insn	2, 0x2075
    41c4:	6e61                	.insn	2, 0x6e61
    41c6:	2064                	.insn	2, 0x2064
    41c8:	6f79                	.insn	2, 0x6f79
    41ca:	7275                	.insn	2, 0x7275
    41cc:	6620                	.insn	2, 0x6620
    41ce:	6972                	.insn	2, 0x6972
    41d0:	6e65                	.insn	2, 0x6e65
    41d2:	2064                	.insn	2, 0x2064
    41d4:	7865                	.insn	2, 0x7865
    41d6:	6365                	.insn	2, 0x6365
    41d8:	7475                	.insn	2, 0x7475
    41da:	2065                	.insn	2, 0x2065
    41dc:	6874                	.insn	2, 0x6874
    41de:	2065                	.insn	2, 0x2065
    41e0:	656c                	.insn	2, 0x656c
    41e2:	646e6567          	.insn	4, 0x646e6567
    41e6:	7261                	.insn	2, 0x7261
    41e8:	2079                	.insn	2, 0x2079
    41ea:	72636573          	csrrsi	a0,mhpmevent6h,6
    41ee:	7465                	.insn	2, 0x7465
    41f0:	6820                	.insn	2, 0x6820
    41f2:	6e61                	.insn	2, 0x6e61
    41f4:	7364                	.insn	2, 0x7364
    41f6:	6168                	.insn	2, 0x6168
    41f8:	6620656b          	.insn	4, 0x6620656b
    41fc:	616c                	.insn	2, 0x616c
    41fe:	73656c77          	.insn	4, 0x73656c77
    4202:	21796c73          	csrrsi	s8,0x217,18
    4206:	f020                	.insn	2, 0xf020
    4208:	a49f e29d a89c      	.insn	6, 0xa89ce29da49f
    420e:	000a                	.insn	2, 0x000a
    4210:	6f59                	.insn	2, 0x6f59
    4212:	2075                	.insn	2, 0x2075
    4214:	7461                	.insn	2, 0x7461
    4216:	6574                	.insn	2, 0x6574
    4218:	706d                	.insn	2, 0x706d
    421a:	2074                	.insn	2, 0x2074
    421c:	6f74                	.insn	2, 0x6f74
    421e:	6520                	.insn	2, 0x6520
    4220:	6578                	.insn	2, 0x6578
    4222:	65747563          	bgeu	s0,s7,486c <__global_pointer+0x264>
    4226:	7420                	.insn	2, 0x7420
    4228:	6568                	.insn	2, 0x6568
    422a:	6c20                	.insn	2, 0x6c20
    422c:	6765                	.insn	2, 0x6765
    422e:	6e65                	.insn	2, 0x6e65
    4230:	6164                	.insn	2, 0x6164
    4232:	7972                	.insn	2, 0x7972
    4234:	7320                	.insn	2, 0x7320
    4236:	6365                	.insn	2, 0x6365
    4238:	6572                	.insn	2, 0x6572
    423a:	2074                	.insn	2, 0x2074
    423c:	6168                	.insn	2, 0x6168
    423e:	646e                	.insn	2, 0x646e
    4240:	6b616873          	csrrsi	a6,0x6b6,2
    4244:	e265                	.insn	2, 0xe265
    4246:	a680                	.insn	2, 0xa680
    4248:	6120                	.insn	2, 0x6120
    424a:	646e                	.insn	2, 0x646e
    424c:	6320                	.insn	2, 0x6320
    424e:	6c706d6f          	jal	s10,b114 <__global_pointer+0x6b0c>
    4252:	7465                	.insn	2, 0x7465
    4254:	6c65                	.insn	2, 0x6c65
    4256:	2079                	.insn	2, 0x2079
    4258:	7562                	.insn	2, 0x7562
    425a:	6374                	.insn	2, 0x6374
    425c:	6568                	.insn	2, 0x6568
    425e:	2072                	.insn	2, 0x2072
    4260:	7469                	.insn	2, 0x7469
    4262:	202e                	.insn	2, 0x202e
    4264:	9ff0                	.insn	2, 0x9ff0
    4266:	000aa0ab          	.insn	4, 0x000aa0ab
    426a:	0000                	.insn	2, 0x
    426c:	6f59                	.insn	2, 0x6f59
    426e:	7275                	.insn	2, 0x7275
    4270:	7720                	.insn	2, 0x7720
    4272:	206b726f          	jal	tp,bb478 <__global_pointer+0xb6e70>
    4276:	6562                	.insn	2, 0x6562
    4278:	65697473          	csrrci	s0,hviprio1h,18
    427c:	7320                	.insn	2, 0x7320
    427e:	6970                	.insn	2, 0x6970
    4280:	6c6c                	.insn	2, 0x6c6c
    4282:	616c2073          	csrs	0x616,s8
    4286:	77207473          	csrrci	s0,0x772,0
    428a:	6565                	.insn	2, 0x6565
    428c:	6620736b          	.insn	4, 0x6620736b
    4290:	6962726f          	jal	tp,2b926 <__global_pointer+0x2731e>
    4294:	6464                	.insn	2, 0x6464
    4296:	6e65                	.insn	2, 0x6e65
    4298:	7420                	.insn	2, 0x7420
    429a:	6165                	.insn	2, 0x6165
    429c:	202e                	.insn	2, 0x202e
    429e:	98e2                	.insn	2, 0x98e2
    42a0:	0a95                	.insn	2, 0x0a95
    42a2:	0000                	.insn	2, 0x
    42a4:	6f59                	.insn	2, 0x6f59
    42a6:	2075                	.insn	2, 0x2075
    42a8:	70657473          	csrrci	s0,0x706,10
    42ac:	6f20                	.insn	2, 0x6f20
    42ae:	7475                	.insn	2, 0x7475
    42b0:	6f20                	.insn	2, 0x6f20
    42b2:	2066                	.insn	2, 0x2066
    42b4:	6f79                	.insn	2, 0x6f79
    42b6:	7275                	.insn	2, 0x7275
    42b8:	6320                	.insn	2, 0x6320
    42ba:	7261                	.insn	2, 0x7261
    42bc:	202c                	.insn	2, 0x202c
    42be:	6572                	.insn	2, 0x6572
    42c0:	6461                	.insn	2, 0x6461
    42c2:	2079                	.insn	2, 0x2079
    42c4:	6f74                	.insn	2, 0x6f74
    42c6:	6620                	.insn	2, 0x6620
    42c8:	6361                	.insn	2, 0x6361
    42ca:	2065                	.insn	2, 0x2065
    42cc:	6874                	.insn	2, 0x6874
    42ce:	2065                	.insn	2, 0x2065
    42d0:	6164                	.insn	2, 0x6164
    42d2:	2779                	.insn	2, 0x2779
    42d4:	6f6e2073          	csrs	0x6f6,t3
    42d8:	736e                	.insn	2, 0x736e
    42da:	6e65                	.insn	2, 0x6e65
    42dc:	0a2e6573          	csrrsi	a0,0xa2,28
    42e0:	0000                	.insn	2, 0x
    42e2:	0000                	.insn	2, 0x
    42e4:	7449                	.insn	2, 0x7449
    42e6:	6920                	.insn	2, 0x6920
    42e8:	69742073          	csrs	0x697,s0
    42ec:	656d                	.insn	2, 0x656d
    42ee:	6620                	.insn	2, 0x6620
    42f0:	6120726f          	jal	tp,b902 <__global_pointer+0x72fa>
    42f4:	6d20                	.insn	2, 0x6d20
    42f6:	6565                	.insn	2, 0x6565
    42f8:	6974                	.insn	2, 0x6974
    42fa:	676e                	.insn	2, 0x676e
    42fc:	202e                	.insn	2, 0x202e
    42fe:	2020                	.insn	2, 0x2020
    4300:	2020                	.insn	2, 0x2020
    4302:	0a20                	.insn	2, 0x0a20
    4304:	7546                	.insn	2, 0x7546
    4306:	20206b63          	bltu	zero,sp,451c <c_energy+0x710>
    430a:	2020                	.insn	2, 0x2020
    430c:	2020                	.insn	2, 0x2020
    430e:	2020                	.insn	2, 0x2020
    4310:	2020                	.insn	2, 0x2020
    4312:	0a0a                	.insn	2, 0x0a0a
    4314:	6854                	.insn	2, 0x6854
    4316:	7369                	.insn	2, 0x7369
    4318:	7720                	.insn	2, 0x7720
    431a:	6c69                	.insn	2, 0x6c69
    431c:	206c                	.insn	2, 0x206c
    431e:	69726573          	csrrsi	a0,0x697,4
    4322:	796c736f          	jal	t1,cbab8 <__global_pointer+0xc74b0>
    4326:	6420                	.insn	2, 0x6420
    4328:	6172                	.insn	2, 0x6172
    432a:	6e69                	.insn	2, 0x6e69
    432c:	7920                	.insn	2, 0x7920
    432e:	2072756f          	jal	a0,2bd34 <__global_pointer+0x2772c>
    4332:	6e65                	.insn	2, 0x6e65
    4334:	7265                	.insn	2, 0x7265
    4336:	202c7967          	.insn	4, 0x202c7967
    433a:	7562                	.insn	2, 0x7562
    433c:	2074                	.insn	2, 0x2074
    433e:	6f79                	.insn	2, 0x6f79
    4340:	2075                	.insn	2, 0x2075
    4342:	6168                	.insn	2, 0x6168
    4344:	6576                	.insn	2, 0x6576
    4346:	6120                	.insn	2, 0x6120
    4348:	6320                	.insn	2, 0x6320
    434a:	7075                	.insn	2, 0x7075
    434c:	6f20                	.insn	2, 0x6f20
    434e:	2066                	.insn	2, 0x2066
    4350:	66666f63          	bltu	a2,t1,49ce <__global_pointer+0x3c6>
    4354:	6565                	.insn	2, 0x6565
    4356:	7420                	.insn	2, 0x7420
    4358:	656b206f          	j	b69ae <__global_pointer+0xb23a6>
    435c:	7065                	.insn	2, 0x7065
    435e:	7520                	.insn	2, 0x7520
    4360:	2070                	.insn	2, 0x2070
    4362:	6f79                	.insn	2, 0x6f79
    4364:	2075                	.insn	2, 0x2075
    4366:	6e65                	.insn	2, 0x6e65
    4368:	7265                	.insn	2, 0x7265
    436a:	3a207967          	.insn	4, 0x3a207967
    436e:	0a29                	.insn	2, 0x0a29
    4370:	0000                	.insn	2, 0x
    4372:	0000                	.insn	2, 0x
    4374:	6c46                	.insn	2, 0x6c46
    4376:	7069                	.insn	2, 0x7069
    4378:	5320                	.insn	2, 0x5320
    437a:	74203157          	.insn	4, 0x74203157
    437e:	6174206f          	j	47194 <__global_pointer+0x42b8c>
    4382:	6120656b          	.insn	4, 0x6120656b
    4386:	7320                	.insn	2, 0x7320
    4388:	7069                	.insn	2, 0x7069
    438a:	6f20                	.insn	2, 0x6f20
    438c:	2066                	.insn	2, 0x2066
    438e:	66666f63          	bltu	a2,t1,4a0c <__global_pointer+0x404>
    4392:	6565                	.insn	2, 0x6565
    4394:	202e                	.insn	2, 0x202e
    4396:	2020                	.insn	2, 0x2020
    4398:	2020                	.insn	2, 0x2020
    439a:	2020                	.insn	2, 0x2020
    439c:	0a20                	.insn	2, 0x0a20
    439e:	7542                	.insn	2, 0x7542
    43a0:	2074                	.insn	2, 0x2074
    43a2:	6f64                	.insn	2, 0x6f64
    43a4:	276e                	.insn	2, 0x276e
    43a6:	2074                	.insn	2, 0x2074
    43a8:	7264                	.insn	2, 0x7264
    43aa:	6e69                	.insn	2, 0x6e69
    43ac:	6f74206b          	.insn	4, 0x6f74206b
    43b0:	6166206f          	j	669c6 <__global_pointer+0x623be>
    43b4:	202c7473          	csrrci	s0,0x202,24
    43b8:	6f79                	.insn	2, 0x6f79
    43ba:	2075                	.insn	2, 0x2075
    43bc:	796c6e6f          	jal	t3,cab52 <__global_pointer+0xc654a>
    43c0:	6820                	.insn	2, 0x6820
    43c2:	7661                	.insn	2, 0x7661
    43c4:	2065                	.insn	2, 0x2065
    43c6:	20656e6f          	jal	t3,5a5cc <__global_pointer+0x55fc4>
    43ca:	20707563          	bgeu	zero,t2,45d4 <c_energy+0x7c8>
    43ce:	6f66                	.insn	2, 0x6f66
    43d0:	2072                	.insn	2, 0x2072
    43d2:	6874                	.insn	2, 0x6874
    43d4:	2065                	.insn	2, 0x2065
    43d6:	6e65                	.insn	2, 0x6e65
    43d8:	6974                	.insn	2, 0x6974
    43da:	6572                	.insn	2, 0x6572
    43dc:	6d20                	.insn	2, 0x6d20
    43de:	6565                	.insn	2, 0x6565
    43e0:	6974                	.insn	2, 0x6974
    43e2:	676e                	.insn	2, 0x676e
    43e4:	0a2e                	.insn	2, 0x0a2e
    43e6:	0000                	.insn	2, 0x
    43e8:	6f59                	.insn	2, 0x6f59
    43ea:	2075                	.insn	2, 0x2075
    43ec:	206e6163          	bltu	t3,t1,45ee <c_energy+0x7e2>
    43f0:	20656573          	csrrsi	a0,0x206,10
    43f4:	6f68                	.insn	2, 0x6f68
    43f6:	756d2077          	.insn	4, 0x756d2077
    43fa:	65206863          	bltu	zero,s2,4a4a <__global_pointer+0x442>
    43fe:	656e                	.insn	2, 0x656e
    4400:	6772                	.insn	2, 0x6772
    4402:	2079                	.insn	2, 0x2079
    4404:	6f79                	.insn	2, 0x6f79
    4406:	2075                	.insn	2, 0x2075
    4408:	6168                	.insn	2, 0x6168
    440a:	6576                	.insn	2, 0x6576
    440c:	6f20                	.insn	2, 0x6f20
    440e:	206e                	.insn	2, 0x206e
    4410:	6874                	.insn	2, 0x6874
    4412:	2065                	.insn	2, 0x2065
    4414:	454c                	.insn	2, 0x454c
    4416:	7344                	.insn	2, 0x7344
    4418:	0000                	.insn	2, 0x
    441a:	0000                	.insn	2, 0x
    441c:	6f59                	.insn	2, 0x6f59
    441e:	7275                	.insn	2, 0x7275
    4420:	6620                	.insn	2, 0x6620
    4422:	7661                	.insn	2, 0x7661
    4424:	7469726f          	jal	tp,9bb6a <__global_pointer+0x97562>
    4428:	2065                	.insn	2, 0x2065
    442a:	6c6c6f63          	bltu	s8,t1,4b08 <__global_pointer+0x500>
    442e:	6165                	.insn	2, 0x6165
    4430:	20657567          	.insn	4, 0x20657567
    4434:	6168                	.insn	2, 0x6168
    4436:	68732073          	csrs	0x687,t1
    443a:	7261                	.insn	2, 0x7261
    443c:	6465                	.insn	2, 0x6465
    443e:	6120                	.insn	2, 0x6120
    4440:	6620                	.insn	2, 0x6620
    4442:	6e75                	.insn	2, 0x6e75
    4444:	796e                	.insn	2, 0x796e
    4446:	6120                	.insn	2, 0x6120
    4448:	656e                	.insn	2, 0x656e
    444a:	746f6463          	bltu	t5,t1,4b92 <__global_pointer+0x58a>
    444e:	2e65                	.insn	2, 0x2e65
    4450:	2020                	.insn	2, 0x2020
    4452:	2020                	.insn	2, 0x2020
    4454:	2020                	.insn	2, 0x2020
    4456:	2020                	.insn	2, 0x2020
    4458:	2020                	.insn	2, 0x2020
    445a:	000a                	.insn	2, 0x000a
    445c:	6854                	.insn	2, 0x6854
    445e:	6e61                	.insn	2, 0x6e61
    4460:	6f67206b          	.insn	4, 0x6f67206b
    4464:	2164                	.insn	2, 0x2164
    4466:	2121                	.insn	2, 0x2121
    4468:	5920                	.insn	2, 0x5920
    446a:	6720756f          	jal	a0,badc <__global_pointer+0x74d4>
    446e:	6961                	.insn	2, 0x6961
    4470:	206e                	.insn	2, 0x206e
    4472:	656d6f73          	csrrsi	t5,hviprio1h,26
    4476:	6520                	.insn	2, 0x6520
    4478:	656e                	.insn	2, 0x656e
    447a:	6772                	.insn	2, 0x6772
    447c:	2079                	.insn	2, 0x2079
    447e:	6162                	.insn	2, 0x6162
    4480:	202e6b63          	bltu	t3,sp,4696 <__global_pointer+0x8e>
    4484:	2020                	.insn	2, 0x2020
    4486:	0020                	.insn	2, 0x0020
    4488:	6142                	.insn	2, 0x6142
    448a:	74206b63          	bltu	zero,sp,4be0 <__global_pointer+0x5d8>
    448e:	7562206f          	j	26be4 <__global_pointer+0x225dc>
    4492:	7369                	.insn	2, 0x7369
    4494:	656e                	.insn	2, 0x656e
    4496:	2e2e7373          	csrrci	t1,0x2e2,28
    449a:	002e                	.insn	2, 0x002e
    449c:	4545                	.insn	2, 0x4545
    449e:	4755                	.insn	2, 0x4755
    44a0:	4848                	.insn	2, 0x4848
    44a2:	2121                	.insn	2, 0x2121
    44a4:	2021                	.insn	2, 0x2021
    44a6:	6854                	.insn	2, 0x6854
    44a8:	2065                	.insn	2, 0x2065
    44aa:	6c6c6f63          	bltu	s8,t1,4b88 <__global_pointer+0x580>
    44ae:	6165                	.insn	2, 0x6165
    44b0:	20657567          	.insn	4, 0x20657567
    44b4:	6f79                	.insn	2, 0x6f79
    44b6:	2075                	.insn	2, 0x2075
    44b8:	6f64                	.insn	2, 0x6f64
    44ba:	276e                	.insn	2, 0x276e
    44bc:	2074                	.insn	2, 0x2074
    44be:	696c                	.insn	2, 0x696c
    44c0:	6920656b          	.insn	4, 0x6920656b
    44c4:	65742073          	csrs	hviprio2h,s0
    44c8:	6c6c                	.insn	2, 0x6c6c
    44ca:	6e69                	.insn	2, 0x6e69
    44cc:	20612067          	.insn	4, 0x20612067
    44d0:	45505553          	.insn	4, 0x45505553
    44d4:	2052                	.insn	2, 0x2052
    44d6:	4f42                	.insn	2, 0x4f42
    44d8:	4952                	.insn	2, 0x4952
    44da:	474e                	.insn	2, 0x474e
    44dc:	7020                	.insn	2, 0x7020
    44de:	746e696f          	jal	s2,eac24 <__global_pointer+0xe661c>
    44e2:	656c                	.insn	2, 0x656c
    44e4:	73207373          	csrrci	t1,mhpmevent18h,0
    44e8:	6f74                	.insn	2, 0x6f74
    44ea:	7972                	.insn	2, 0x7972
    44ec:	590a                	.insn	2, 0x590a
    44ee:	6c20756f          	jal	a0,bbb0 <__global_pointer+0x75a8>
    44f2:	65736f6f          	jal	t5,3b348 <__global_pointer+0x36d40>
    44f6:	6820                	.insn	2, 0x6820
    44f8:	6c61                	.insn	2, 0x6c61
    44fa:	2066                	.insn	2, 0x2066
    44fc:	7920666f          	jal	a2,ac8e <__global_pointer+0x6686>
    4500:	2072756f          	jal	a0,2bf06 <__global_pointer+0x278fe>
    4504:	6e65                	.insn	2, 0x6e65
    4506:	7265                	.insn	2, 0x7265
    4508:	28207967          	.insn	4, 0x28207967
    450c:	6f72                	.insn	2, 0x6f72
    450e:	6e75                	.insn	2, 0x6e75
    4510:	6564                	.insn	2, 0x6564
    4512:	2064                	.insn	2, 0x2064
    4514:	6f64                	.insn	2, 0x6f64
    4516:	21296e77          	.insn	4, 0x21296e77
    451a:	000a                	.insn	2, 0x000a
    451c:	6f59                	.insn	2, 0x6f59
    451e:	7275                	.insn	2, 0x7275
    4520:	6220                	.insn	2, 0x6220
    4522:	2073736f          	jal	t1,3bf28 <__global_pointer+0x37920>
    4526:	656d6f73          	csrrsi	t5,hviprio1h,26
    452a:	6f68                	.insn	2, 0x6f68
    452c:	65622077          	.insn	4, 0x65622077
    4530:	656d6163          	bltu	s10,s6,4b72 <__global_pointer+0x56a>
    4534:	6520                	.insn	2, 0x6520
    4536:	7478                	.insn	2, 0x7478
    4538:	6172                	.insn	2, 0x6172
    453a:	6220                	.insn	2, 0x6220
    453c:	6e69726f          	jal	tp,9bc22 <__global_pointer+0x9761a>
    4540:	00000a67          	jalr	s4,zero # 0 <_isr_handler>
    4544:	6854                	.insn	2, 0x6854
    4546:	6e61                	.insn	2, 0x6e61
    4548:	6f67206b          	.insn	4, 0x6f67206b
    454c:	2064                	.insn	2, 0x2064
    454e:	6874                	.insn	2, 0x6874
    4550:	7461                	.insn	2, 0x7461
    4552:	7920                	.insn	2, 0x7920
    4554:	6820756f          	jal	a0,bbd6 <__global_pointer+0x75ce>
    4558:	6461                	.insn	2, 0x6461
    455a:	7420                	.insn	2, 0x7420
    455c:	6168                	.insn	2, 0x6168
    455e:	2074                	.insn	2, 0x2074
    4560:	6f6d                	.insn	2, 0x6f6d
    4562:	6e72                	.insn	2, 0x6e72
    4564:	6e69                	.insn	2, 0x6e69
    4566:	6f632067          	.insn	4, 0x6f632067
    456a:	6666                	.insn	2, 0x6666
    456c:	6565                	.insn	2, 0x6565
    456e:	7320                	.insn	2, 0x7320
    4570:	6f79206f          	j	97466 <__global_pointer+0x92e5e>
    4574:	2075                	.insn	2, 0x2075
    4576:	206e6163          	bltu	t3,t1,4778 <__global_pointer+0x170>
    457a:	6465                	.insn	2, 0x6465
    457c:	7275                	.insn	2, 0x7275
    457e:	2e65                	.insn	2, 0x2e65
    4580:	0000                	.insn	2, 0x
    4582:	0000                	.insn	2, 0x
    4584:	552a                	.insn	2, 0x552a
    4586:	20646573          	csrrsi	a0,0x206,8
    458a:	6665                	.insn	2, 0x6665
    458c:	6566                	.insn	2, 0x6566
    458e:	43207463          	bgeu	zero,s2,49b6 <__global_pointer+0x3ae>
    4592:	6661                	.insn	2, 0x6661
    4594:	6966                	.insn	2, 0x6966
    4596:	616e                	.insn	2, 0x616e
    4598:	6574                	.insn	2, 0x6574
    459a:	2a64                	.insn	2, 0x2a64
    459c:	0000                	.insn	2, 0x
    459e:	0000                	.insn	2, 0x
    45a0:	6f59                	.insn	2, 0x6f59
    45a2:	2075                	.insn	2, 0x2075
    45a4:	6f6e                	.insn	2, 0x6f6e
    45a6:	6f6c2077          	.insn	4, 0x6f6c2077
    45aa:	2065736f          	jal	t1,5b7b0 <__global_pointer+0x571a8>
    45ae:	6e65                	.insn	2, 0x6e65
    45b0:	7265                	.insn	2, 0x7265
    45b2:	66207967          	.insn	4, 0x66207967
    45b6:	7361                	.insn	2, 0x7361
    45b8:	6574                	.insn	2, 0x6574
    45ba:	0a72                	.insn	2, 0x0a72
    45bc:	0000                	.insn	2, 0x
    45be:	0000                	.insn	2, 0x
    45c0:	6f59                	.insn	2, 0x6f59
    45c2:	2075                	.insn	2, 0x2075
    45c4:	756a                	.insn	2, 0x756a
    45c6:	67207473          	csrrci	s0,0x672,0
    45ca:	6120746f          	jal	s0,bbdc <__global_pointer+0x75d4>
    45ce:	7120                	.insn	2, 0x7120
    45d0:	6575                	.insn	2, 0x6575
    45d2:	6f697473          	csrrci	s0,0x6f6,18
    45d6:	2e6e                	.insn	2, 0x2e6e
    45d8:	2e2e                	.insn	2, 0x2e2e
    45da:	480a                	.insn	2, 0x480a
    45dc:	7275                	.insn	2, 0x7275
    45de:	7972                	.insn	2, 0x7972
    45e0:	7520                	.insn	2, 0x7520
    45e2:	2070                	.insn	2, 0x2070
    45e4:	6e61                	.insn	2, 0x6e61
    45e6:	2064                	.insn	2, 0x2064
    45e8:	6e61                	.insn	2, 0x6e61
    45ea:	72657773          	csrrci	a4,mhpmevent6h,10
    45ee:	0a21                	.insn	2, 0x0a21
    45f0:	6f59                	.insn	2, 0x6f59
    45f2:	2075                	.insn	2, 0x2075
    45f4:	6168                	.insn	2, 0x6168
    45f6:	6576                	.insn	2, 0x6576
    45f8:	3320                	.insn	2, 0x3320
    45fa:	7320                	.insn	2, 0x7320
    45fc:	6365                	.insn	2, 0x6365
    45fe:	73646e6f          	jal	t3,4ad34 <__global_pointer+0x4672c>
    4602:	7420                	.insn	2, 0x7420
    4604:	7773206f          	j	3757a <__global_pointer+0x32f72>
    4608:	7469                	.insn	2, 0x7469
    460a:	53206863          	bltu	zero,s2,4b3a <__global_pointer+0x532>
    460e:	74203457          	.insn	4, 0x74203457
    4612:	6e61206f          	j	16cf8 <__global_pointer+0x126f0>
    4616:	72657773          	csrrci	a4,mhpmevent6h,10
    461a:	6320                	.insn	2, 0x6320
    461c:	6572726f          	jal	tp,2c472 <__global_pointer+0x27e6a>
    4620:	796c7463          	bgeu	s8,s6,4da8 <__global_pointer+0x7a0>
    4624:	000a                	.insn	2, 0x000a
    4626:	0000                	.insn	2, 0x
    4628:	2e2e2e33          	.insn	4, 0x2e2e2e33
    462c:	0020                	.insn	2, 0x0020
    462e:	0000                	.insn	2, 0x
    4630:	2e32                	.insn	2, 0x2e32
    4632:	2e2e                	.insn	2, 0x2e2e
    4634:	0020                	.insn	2, 0x0020
    4636:	0000                	.insn	2, 0x
    4638:	2e31                	.insn	2, 0x2e31
    463a:	2e2e                	.insn	2, 0x2e2e
    463c:	0020                	.insn	2, 0x0020
    463e:	0000                	.insn	2, 0x
    4640:	646f6f47          	.insn	4, 0x646f6f47
    4644:	6a20                	.insn	2, 0x6a20
    4646:	3a20626f          	jal	tp,a9e8 <__global_pointer+0x63e0>
    464a:	0a29                	.insn	2, 0x0a29
    464c:	6f59                	.insn	2, 0x6f59
    464e:	2075                	.insn	2, 0x2075
    4650:	6e696167          	.insn	4, 0x6e696167
    4654:	6465                	.insn	2, 0x6465
    4656:	2b20                	.insn	2, 0x2b20
    4658:	2032                	.insn	2, 0x2032
    465a:	72616863          	bltu	sp,t1,4d8a <__global_pointer+0x782>
    465e:	7369                	.insn	2, 0x7369
    4660:	616d                	.insn	2, 0x616d
    4662:	002e                	.insn	2, 0x002e
    4664:	4150                	.insn	2, 0x4150
    4666:	2059                	.insn	2, 0x2059
    4668:	5441                	.insn	2, 0x5441
    466a:	4554                	.insn	2, 0x4554
    466c:	544e                	.insn	2, 0x544e
    466e:	4f49                	.insn	2, 0x4f49
    4670:	004e                	.insn	2, 0x004e
    4672:	0000                	.insn	2, 0x
    4674:	702a                	.insn	2, 0x702a
    4676:	616c                	.insn	2, 0x616c
    4678:	6579                	.insn	2, 0x6579
    467a:	5f72                	.insn	2, 0x5f72
    467c:	616e                	.insn	2, 0x616e
    467e:	656d                	.insn	2, 0x656d
    4680:	002a                	.insn	2, 0x002a
    4682:	0000                	.insn	2, 0x
    4684:	2121                	.insn	2, 0x2121
    4686:	0a21                	.insn	2, 0x0a21
    4688:	6854                	.insn	2, 0x6854
    468a:	7369                	.insn	2, 0x7369
    468c:	6920                	.insn	2, 0x6920
    468e:	65762073          	csrs	hviprio2h,a2
    4692:	7972                	.insn	2, 0x7972
    4694:	6220                	.insn	2, 0x6220
    4696:	6461                	.insn	2, 0x6461
    4698:	6620                	.insn	2, 0x6620
    469a:	7920726f          	jal	tp,be2c <__global_pointer+0x7824>
    469e:	2072756f          	jal	a0,2c0a4 <__global_pointer+0x27a9c>
    46a2:	6d69                	.insn	2, 0x6d69
    46a4:	6761                	.insn	2, 0x6761
    46a6:	2e65                	.insn	2, 0x2e65
    46a8:	2d20                	.insn	2, 0x2d20
    46aa:	3031                	.insn	2, 0x3031
    46ac:	6320                	.insn	2, 0x6320
    46ae:	6168                	.insn	2, 0x6168
    46b0:	6972                	.insn	2, 0x6972
    46b2:	21616d73          	csrrsi	s10,0x216,2
    46b6:	0000                	.insn	2, 0x
    46b8:	6854                	.insn	2, 0x6854
    46ba:	2065                	.insn	2, 0x2065
    46bc:	656d                	.insn	2, 0x656d
    46be:	7465                	.insn	2, 0x7465
    46c0:	6e69                	.insn	2, 0x6e69
    46c2:	73692067          	.insn	4, 0x73692067
    46c6:	6e20                	.insn	2, 0x6e20
    46c8:	6f20776f          	jal	a4,bdba <__global_pointer+0x77b2>
    46cc:	6576                	.insn	2, 0x6576
    46ce:	2e72                	.insn	2, 0x2e72
    46d0:	2a20                	.insn	2, 0x2a20
    46d2:	6850                	.insn	2, 0x6850
    46d4:	7765                	.insn	2, 0x7765
    46d6:	0a2a                	.insn	2, 0x0a2a
    46d8:	7542                	.insn	2, 0x7542
    46da:	2074                	.insn	2, 0x2074
    46dc:	6f79                	.insn	2, 0x6f79
    46de:	2075                	.insn	2, 0x2075
    46e0:	6f6c                	.insn	2, 0x6f6c
    46e2:	73207473          	csrrci	s0,mhpmevent18h,0
    46e6:	20656d6f          	jal	s10,5a8ec <__global_pointer+0x562e4>
    46ea:	6e65                	.insn	2, 0x6e65
    46ec:	7265                	.insn	2, 0x7265
    46ee:	2e2e7967          	.insn	4, 0x2e2e7967
    46f2:	002e                	.insn	2, 0x002e
    46f4:	6f59                	.insn	2, 0x6f59
    46f6:	2775                	.insn	2, 0x2775
    46f8:	6572                	.insn	2, 0x6572
    46fa:	6620                	.insn	2, 0x6620
    46fc:	6e69                	.insn	2, 0x6e69
    46fe:	6c61                	.insn	2, 0x6c61
    4700:	796c                	.insn	2, 0x796c
    4702:	6420                	.insn	2, 0x6420
    4704:	20656e6f          	jal	t3,5a90a <__global_pointer+0x56302>
    4708:	6f66                	.insn	2, 0x6f66
    470a:	2072                	.insn	2, 0x2072
    470c:	6874                	.insn	2, 0x6874
    470e:	2065                	.insn	2, 0x2065
    4710:	6164                	.insn	2, 0x6164
    4712:	2e79                	.insn	2, 0x2e79
    4714:	5920                	.insn	2, 0x5920
    4716:	6320756f          	jal	a0,bd48 <__global_pointer+0x7740>
    471a:	6f6c                	.insn	2, 0x6f6c
    471c:	6f206b63          	bltu	zero,s2,4e12 <__global_pointer+0x80a>
    4720:	7475                	.insn	2, 0x7475
    4722:	6120                	.insn	2, 0x6120
    4724:	646e                	.insn	2, 0x646e
    4726:	6820                	.insn	2, 0x6820
    4728:	6165                	.insn	2, 0x6165
    472a:	2064                	.insn	2, 0x2064
    472c:	6f68                	.insn	2, 0x6f68
    472e:	656d                	.insn	2, 0x656d
    4730:	2e2e                	.insn	2, 0x2e2e
    4732:	0a2e                	.insn	2, 0x0a2e
    4734:	0000                	.insn	2, 0x
    4736:	0000                	.insn	2, 0x
    4738:	6f59                	.insn	2, 0x6f59
    473a:	2075                	.insn	2, 0x2075
    473c:	76727573          	csrrci	a0,0x767,4
    4740:	7669                	.insn	2, 0x7669
    4742:	6465                	.insn	2, 0x6465
    4744:	6120                	.insn	2, 0x6120
    4746:	6f6e                	.insn	2, 0x6f6e
    4748:	6874                	.insn	2, 0x6874
    474a:	7265                	.insn	2, 0x7265
    474c:	6420                	.insn	2, 0x6420
    474e:	7961                	.insn	2, 0x7961
    4750:	6120                	.insn	2, 0x6120
    4752:	2074                	.insn	2, 0x2074
    4754:	6874                	.insn	2, 0x6874
    4756:	2065                	.insn	2, 0x2065
    4758:	6966666f          	jal	a2,6adee <__global_pointer+0x667e6>
    475c:	0a216563          	bltu	sp,sp,4806 <__global_pointer+0x1fe>
    4760:	0000                	.insn	2, 0x
    4762:	0000                	.insn	2, 0x
    4764:	6f59                	.insn	2, 0x6f59
    4766:	2075                	.insn	2, 0x2075
    4768:	6172                	.insn	2, 0x6172
    476a:	7369                	.insn	2, 0x7369
    476c:	2065                	.insn	2, 0x2065
    476e:	6f79                	.insn	2, 0x6f79
    4770:	7275                	.insn	2, 0x7275
    4772:	6620                	.insn	2, 0x6620
    4774:	7369                	.insn	2, 0x7369
    4776:	7374                	.insn	2, 0x7374
    4778:	6920                	.insn	2, 0x6920
    477a:	206e                	.insn	2, 0x206e
    477c:	6874                	.insn	2, 0x6874
    477e:	2065                	.insn	2, 0x2065
    4780:	6961                	.insn	2, 0x6961
    4782:	2072                	.insn	2, 0x2072
    4784:	6e69                	.insn	2, 0x6e69
    4786:	7420                	.insn	2, 0x7420
    4788:	6972                	.insn	2, 0x6972
    478a:	6d75                	.insn	2, 0x6d75
    478c:	6870                	.insn	2, 0x6870
    478e:	0a21                	.insn	2, 0x0a21
    4790:	0000                	.insn	2, 0x
    4792:	0000                	.insn	2, 0x
    4794:	a0e2                	.insn	2, 0xa0e2
    4796:	e280                	.insn	2, 0xe280
    4798:	80a0                	.insn	2, 0x80a0
    479a:	a0e2                	.insn	2, 0xa0e2
    479c:	e280                	.insn	2, 0xe280
    479e:	80a0                	.insn	2, 0x80a0
    47a0:	a0e2                	.insn	2, 0xa0e2
    47a2:	e280                	.insn	2, 0xe280
    47a4:	80a0                	.insn	2, 0x80a0
    47a6:	a0e2                	.insn	2, 0xa0e2
    47a8:	e280                	.insn	2, 0xe280
    47aa:	80a0                	.insn	2, 0x80a0
    47ac:	a0e2                	.insn	2, 0xa0e2
    47ae:	e280                	.insn	2, 0xe280
    47b0:	80a0                	.insn	2, 0x80a0
    47b2:	a0e2                	.insn	2, 0xa0e2
    47b4:	e280                	.insn	2, 0xe280
    47b6:	80a0                	.insn	2, 0x80a0
    47b8:	a0e2                	.insn	2, 0xa0e2
    47ba:	e280                	.insn	2, 0xe280
    47bc:	80a0                	.insn	2, 0x80a0
    47be:	a0e2                	.insn	2, 0xa0e2
    47c0:	e280                	.insn	2, 0xe280
    47c2:	80a0                	.insn	2, 0x80a0
    47c4:	a0e2                	.insn	2, 0xa0e2
    47c6:	e280                	.insn	2, 0xe280
    47c8:	80a0                	.insn	2, 0x80a0
    47ca:	a0e2                	.insn	2, 0xa0e2
    47cc:	e280                	.insn	2, 0xe280
    47ce:	80a0                	.insn	2, 0x80a0
    47d0:	a0e2                	.insn	2, 0xa0e2
    47d2:	e280                	.insn	2, 0xe280
    47d4:	80a0                	.insn	2, 0x80a0
    47d6:	a0e2                	.insn	2, 0xa0e2
    47d8:	e280                	.insn	2, 0xe280
    47da:	80a0                	.insn	2, 0x80a0
    47dc:	a0e2                	.insn	2, 0xa0e2
    47de:	e280                	.insn	2, 0xe280
    47e0:	80a0                	.insn	2, 0x80a0
    47e2:	a0e2                	.insn	2, 0xa0e2
    47e4:	e280                	.insn	2, 0xe280
    47e6:	80a0                	.insn	2, 0x80a0
    47e8:	a0e2                	.insn	2, 0xa0e2
    47ea:	e280                	.insn	2, 0xe280
    47ec:	80a0                	.insn	2, 0x80a0
    47ee:	a0e2                	.insn	2, 0xa0e2
    47f0:	e280                	.insn	2, 0xe280
    47f2:	80a0                	.insn	2, 0x80a0
    47f4:	a0e2                	.insn	2, 0xa0e2
    47f6:	e280                	.insn	2, 0xe280
    47f8:	80a0                	.insn	2, 0x80a0
    47fa:	a0e2                	.insn	2, 0xa0e2
    47fc:	e280                	.insn	2, 0xe280
    47fe:	80a0                	.insn	2, 0x80a0
    4800:	a0e2                	.insn	2, 0xa0e2
    4802:	e280                	.insn	2, 0xe280
    4804:	80a0                	.insn	2, 0x80a0
    4806:	a0e2                	.insn	2, 0xa0e2
    4808:	e280                	.insn	2, 0xe280
    480a:	80a0                	.insn	2, 0x80a0
    480c:	a0e2                	.insn	2, 0xa0e2
    480e:	e280                	.insn	2, 0xe280
    4810:	80a0                	.insn	2, 0x80a0
    4812:	a1e2                	.insn	2, 0xa1e2
    4814:	e280                	.insn	2, 0xe280
    4816:	80a0                	.insn	2, 0x80a0
    4818:	a0e2                	.insn	2, 0xa0e2
    481a:	e280                	.insn	2, 0xe280
    481c:	80a0                	.insn	2, 0x80a0
    481e:	a0e2                	.insn	2, 0xa0e2
    4820:	e280                	.insn	2, 0xe280
    4822:	80a0                	.insn	2, 0x80a0
    4824:	a0e2                	.insn	2, 0xa0e2
    4826:	0a80                	.insn	2, 0x0a80
    4828:	0000                	.insn	2, 0x
    482a:	0000                	.insn	2, 0x
    482c:	a0e2                	.insn	2, 0xa0e2
    482e:	e280                	.insn	2, 0xe280
    4830:	80a0                	.insn	2, 0x80a0
    4832:	a0e2                	.insn	2, 0xa0e2
    4834:	e280                	.insn	2, 0xe280
    4836:	80a0                	.insn	2, 0x80a0
    4838:	a0e2                	.insn	2, 0xa0e2
    483a:	e280                	.insn	2, 0xe280
    483c:	a3e280a3          	sb	t5,-1503(t0)
    4840:	e280                	.insn	2, 0xe280
    4842:	80a1                	.insn	2, 0x80a1
    4844:	a0e2                	.insn	2, 0xa0e2
    4846:	e280                	.insn	2, 0xe280
    4848:	80a0                	.insn	2, 0x80a0
    484a:	a0e2                	.insn	2, 0xa0e2
    484c:	e280                	.insn	2, 0xe280
    484e:	80a0                	.insn	2, 0x80a0
    4850:	a0e2                	.insn	2, 0xa0e2
    4852:	e280                	.insn	2, 0xe280
    4854:	80a0                	.insn	2, 0x80a0
    4856:	a0e2                	.insn	2, 0xa0e2
    4858:	e280                	.insn	2, 0xe280
    485a:	80a0                	.insn	2, 0x80a0
    485c:	a0e2                	.insn	2, 0xa0e2
    485e:	e280                	.insn	2, 0xe280
    4860:	80a0                	.insn	2, 0x80a0
    4862:	a0e2                	.insn	2, 0xa0e2
    4864:	e280                	.insn	2, 0xe280
    4866:	80a0                	.insn	2, 0x80a0
    4868:	a0e2                	.insn	2, 0xa0e2
    486a:	e280                	.insn	2, 0xe280
    486c:	80a0                	.insn	2, 0x80a0
    486e:	a0e2                	.insn	2, 0xa0e2
    4870:	e280                	.insn	2, 0xe280
    4872:	80a0                	.insn	2, 0x80a0
    4874:	a0e2                	.insn	2, 0xa0e2
    4876:	e280                	.insn	2, 0xe280
    4878:	80a0                	.insn	2, 0x80a0
    487a:	a0e2                	.insn	2, 0xa0e2
    487c:	e280                	.insn	2, 0xe280
    487e:	80a0                	.insn	2, 0x80a0
    4880:	a0e2                	.insn	2, 0xa0e2
    4882:	e280                	.insn	2, 0xe280
    4884:	80a0                	.insn	2, 0x80a0
    4886:	a0e2                	.insn	2, 0xa0e2
    4888:	e280                	.insn	2, 0xe280
    488a:	80a0                	.insn	2, 0x80a0
    488c:	a0e2                	.insn	2, 0xa0e2
    488e:	e280                	.insn	2, 0xe280
    4890:	80a0                	.insn	2, 0x80a0
    4892:	a0e2                	.insn	2, 0xa0e2
    4894:	e280                	.insn	2, 0xe280
    4896:	80a0                	.insn	2, 0x80a0
    4898:	a0e2                	.insn	2, 0xa0e2
    489a:	e280                	.insn	2, 0xe280
    489c:	80a0                	.insn	2, 0x80a0
    489e:	a2e2                	.insn	2, 0xa2e2
    48a0:	e280                	.insn	2, 0xe280
    48a2:	a1e2b4a3          	.insn	4, 0xa1e2b4a3
    48a6:	e2be                	.insn	2, 0xe2be
    48a8:	9ba2                	.insn	2, 0x9ba2
    48aa:	a2e2                	.insn	2, 0xa2e2
    48ac:	b7a3e2bb          	.insn	4, 0xb7a3e2bb
    48b0:	a0e2                	.insn	2, 0xa0e2
    48b2:	e280                	.insn	2, 0xe280
    48b4:	80a0                	.insn	2, 0x80a0
    48b6:	a0e2                	.insn	2, 0xa0e2
    48b8:	e280                	.insn	2, 0xe280
    48ba:	80a0                	.insn	2, 0x80a0
    48bc:	a0e2                	.insn	2, 0xa0e2
    48be:	0a80                	.insn	2, 0x0a80
    48c0:	0000                	.insn	2, 0x
    48c2:	0000                	.insn	2, 0x
    48c4:	a0e2                	.insn	2, 0xa0e2
    48c6:	e280                	.insn	2, 0xe280
    48c8:	80a0                	.insn	2, 0x80a0
    48ca:	a0e2                	.insn	2, 0xa0e2
    48cc:	e280                	.insn	2, 0xe280
    48ce:	80a2                	.insn	2, 0x80a2
    48d0:	a3e2                	.insn	2, 0xa3e2
    48d2:	e2be                	.insn	2, 0xe2be
    48d4:	a0e29fa3          	sh	a4,-1505(t0)
    48d8:	bfa2e29b          	.insn	4, 0xbfa2e29b
    48dc:	a3e2                	.insn	2, 0xa3e2
    48de:	80a1e2b7          	lui	t0,0x80a1e
    48e2:	a0e2                	.insn	2, 0xa0e2
    48e4:	e280                	.insn	2, 0xe280
    48e6:	80a0                	.insn	2, 0x80a0
    48e8:	a0e2                	.insn	2, 0xa0e2
    48ea:	e280                	.insn	2, 0xe280
    48ec:	80a0                	.insn	2, 0x80a0
    48ee:	a0e2                	.insn	2, 0xa0e2
    48f0:	e280                	.insn	2, 0xe280
    48f2:	80a0                	.insn	2, 0x80a0
    48f4:	a0e2                	.insn	2, 0xa0e2
    48f6:	e280                	.insn	2, 0xe280
    48f8:	80a0                	.insn	2, 0x80a0
    48fa:	a0e2                	.insn	2, 0xa0e2
    48fc:	e280                	.insn	2, 0xe280
    48fe:	80a0                	.insn	2, 0x80a0
    4900:	a0e2                	.insn	2, 0xa0e2
    4902:	e280                	.insn	2, 0xe280
    4904:	80a0                	.insn	2, 0x80a0
    4906:	a0e2                	.insn	2, 0xa0e2
    4908:	e280                	.insn	2, 0xe280
    490a:	80a0                	.insn	2, 0x80a0
    490c:	a0e2                	.insn	2, 0xa0e2
    490e:	e280                	.insn	2, 0xe280
    4910:	80a0                	.insn	2, 0x80a0
    4912:	a0e2                	.insn	2, 0xa0e2
    4914:	e280                	.insn	2, 0xe280
    4916:	80a0                	.insn	2, 0x80a0
    4918:	a0e2                	.insn	2, 0xa0e2
    491a:	e280                	.insn	2, 0xe280
    491c:	80a0                	.insn	2, 0x80a0
    491e:	a0e2                	.insn	2, 0xa0e2
    4920:	e280                	.insn	2, 0xe280
    4922:	80a0                	.insn	2, 0x80a0
    4924:	a0e2                	.insn	2, 0xa0e2
    4926:	e280                	.insn	2, 0xe280
    4928:	80a0                	.insn	2, 0x80a0
    492a:	a0e2                	.insn	2, 0xa0e2
    492c:	e280                	.insn	2, 0xe280
    492e:	80a0                	.insn	2, 0x80a0
    4930:	a2e2                	.insn	2, 0xa2e2
    4932:	e280                	.insn	2, 0xe280
    4934:	a3e2a0a3          	sw	t5,-1503(t0) # 80a1da21 <_stack_end+0x80914211>
    4938:	8ba0e2bf e2b0a0e2 	.insn	8, 0xe2b0a0e28ba0e2bf
    4940:	80a1                	.insn	2, 0x80a1
    4942:	a2e2                	.insn	2, 0xa2e2
    4944:	e28e                	.insn	2, 0xe28e
    4946:	a0e2bfa3          	.insn	4, 0xa0e2bfa3
    494a:	e280                	.insn	2, 0xe280
    494c:	80a0                	.insn	2, 0x80a0
    494e:	a0e2                	.insn	2, 0xa0e2
    4950:	e280                	.insn	2, 0xe280
    4952:	80a0                	.insn	2, 0x80a0
    4954:	a0e2                	.insn	2, 0xa0e2
    4956:	0a80                	.insn	2, 0x0a80
    4958:	0000                	.insn	2, 0x
    495a:	0000                	.insn	2, 0x
    495c:	a0e2                	.insn	2, 0xa0e2
    495e:	e280                	.insn	2, 0xe280
    4960:	80a0                	.insn	2, 0x80a0
    4962:	a0e2                	.insn	2, 0xa0e2
    4964:	e280                	.insn	2, 0xe280
    4966:	b8a2                	.insn	2, 0xb8a2
    4968:	a3e2                	.insn	2, 0xa3e2
    496a:	80a0e2bf e28ea0e2 	.insn	8, 0xe28ea0e280a0e2bf
    4972:	a0a0                	.insn	2, 0xa0a0
    4974:	a1e2                	.insn	2, 0xa1e2
    4976:	e299                	.insn	2, 0xe299
    4978:	a1e2bfa3          	.insn	4, 0xa1e2bfa3
    497c:	e284                	.insn	2, 0xe284
    497e:	80a0                	.insn	2, 0x80a0
    4980:	a0e2                	.insn	2, 0xa0e2
    4982:	e280                	.insn	2, 0xe280
    4984:	80a2                	.insn	2, 0x80a2
    4986:	a3e2                	.insn	2, 0xa3e2
    4988:	e280                	.insn	2, 0xe280
    498a:	a3e2a4a3          	sw	t5,-1495(t0)
    498e:	e284                	.insn	2, 0xe284
    4990:	80a1                	.insn	2, 0x80a1
    4992:	a0e2                	.insn	2, 0xa0e2
    4994:	e280                	.insn	2, 0xe280
    4996:	80a0                	.insn	2, 0x80a0
    4998:	a0e2                	.insn	2, 0xa0e2
    499a:	e280                	.insn	2, 0xe280
    499c:	80a0                	.insn	2, 0x80a0
    499e:	a0e2                	.insn	2, 0xa0e2
    49a0:	e280                	.insn	2, 0xe280
    49a2:	80a0                	.insn	2, 0x80a0
    49a4:	a0e2                	.insn	2, 0xa0e2
    49a6:	e280                	.insn	2, 0xe280
    49a8:	80a0                	.insn	2, 0x80a0
    49aa:	a0e2                	.insn	2, 0xa0e2
    49ac:	e280                	.insn	2, 0xe280
    49ae:	80a0                	.insn	2, 0x80a0
    49b0:	a0e2                	.insn	2, 0xa0e2
    49b2:	e280                	.insn	2, 0xe280
    49b4:	a3e2b0a3          	.insn	4, 0xa3e2b0a3
    49b8:	bfa1e2bf e2b7a3e2 	.insn	8, 0xe2b7a3e2bfa1e2bf
    49c0:	a3e2a6a3          	sw	t5,-1491(t0)
    49c4:	e2b4                	.insn	2, 0xe2b4
    49c6:	a3e28fa3          	sb	t5,-1473(t0)
    49ca:	e2bd                	.insn	2, 0xe2bd
    49cc:	9fa1                	.insn	2, 0x9fa1
    49ce:	a0e2                	.insn	2, 0xa0e2
    49d0:	e2a1                	.insn	2, 0xe2a1
    49d2:	8ca0                	.insn	2, 0x8ca0
    49d4:	a1e2                	.insn	2, 0xa1e2
    49d6:	e2b1                	.insn	2, 0xe2b1
    49d8:	88a0                	.insn	2, 0x88a0
    49da:	a1e2                	.insn	2, 0xa1e2
    49dc:	e2bc                	.insn	2, 0xe2bc
    49de:	a3e2bfa3          	.insn	4, 0xa3e2bfa3
    49e2:	e280                	.insn	2, 0xe280
    49e4:	80a1                	.insn	2, 0x80a1
    49e6:	a0e2                	.insn	2, 0xa0e2
    49e8:	e280                	.insn	2, 0xe280
    49ea:	80a0                	.insn	2, 0x80a0
    49ec:	a0e2                	.insn	2, 0xa0e2
    49ee:	0a80                	.insn	2, 0x0a80
    49f0:	0000                	.insn	2, 0x
    49f2:	0000                	.insn	2, 0x
    49f4:	a0e2                	.insn	2, 0xa0e2
    49f6:	e280                	.insn	2, 0xe280
    49f8:	80a2                	.insn	2, 0x80a2
    49fa:	a3e2                	.insn	2, 0xa3e2
    49fc:	e2b4                	.insn	2, 0xe2b4
    49fe:	bea1                	.insn	2, 0xbea1
    4a00:	a2e2                	.insn	2, 0xa2e2
    4a02:	8ca3e2bf e28ca0e2 	.insn	8, 0xe28ca0e28ca3e2bf
    4a0a:	81a1                	.insn	2, 0x81a1
    4a0c:	a2e2                	.insn	2, 0xa2e2
    4a0e:	e286                	.insn	2, 0xe286
    4a10:	b9a0                	.insn	2, 0xb9a0
    4a12:	a3e2                	.insn	2, 0xa3e2
    4a14:	84a3e2bf e2a0a3e2 	.insn	8, 0xe2a0a3e284a3e2bf
    4a1c:	a0e2bfa3          	.insn	4, 0xa0e2bfa3
    4a20:	afa0e29b          	.insn	4, 0xafa0e29b
    4a24:	a3e2                	.insn	2, 0xa3e2
    4a26:	e29d                	.insn	2, 0xe29d
    4a28:	a1e2bfa3          	.insn	4, 0xa1e2bfa3
    4a2c:	e284                	.insn	2, 0xe284
    4a2e:	80a0                	.insn	2, 0x80a0
    4a30:	a0e2                	.insn	2, 0xa0e2
    4a32:	e280                	.insn	2, 0xe280
    4a34:	80a0                	.insn	2, 0x80a0
    4a36:	a0e2                	.insn	2, 0xa0e2
    4a38:	e280                	.insn	2, 0xe280
    4a3a:	80a0                	.insn	2, 0x80a0
    4a3c:	a0e2                	.insn	2, 0xa0e2
    4a3e:	e280                	.insn	2, 0xe280
    4a40:	80a0                	.insn	2, 0x80a0
    4a42:	a0e2                	.insn	2, 0xa0e2
    4a44:	e280                	.insn	2, 0xe280
    4a46:	80a0                	.insn	2, 0x80a0
    4a48:	a0e2                	.insn	2, 0xa0e2
    4a4a:	e280                	.insn	2, 0xe280
    4a4c:	a3e2bfa3          	.insn	4, 0xa3e2bfa3
    4a50:	90a0e287          	.insn	4, 0x90a0e287
    4a54:	a1e2                	.insn	2, 0xa1e2
    4a56:	e288                	.insn	2, 0xe288
    4a58:	bfa2                	.insn	2, 0xbfa2
    4a5a:	a3e2                	.insn	2, 0xa3e2
    4a5c:	bfa3e2bf e29fa1e2 	.insn	8, 0xe29fa1e2bfa3e2bf
    4a64:	81a0                	.insn	2, 0x81a0
    4a66:	a2e2                	.insn	2, 0xa2e2
    4a68:	e286                	.insn	2, 0xe286
    4a6a:	b1a0                	.insn	2, 0xb1a0
    4a6c:	a2e2                	.insn	2, 0xa2e2
    4a6e:	e280                	.insn	2, 0xe280
    4a70:	b1a1                	.insn	2, 0xb1a1
    4a72:	a1e2                	.insn	2, 0xa1e2
    4a74:	e29d                	.insn	2, 0xe29d
    4a76:	89a2                	.insn	2, 0x89a2
    4a78:	a1e2                	.insn	2, 0xa1e2
    4a7a:	e289                	.insn	2, 0xe289
    4a7c:	bfa2                	.insn	2, 0xbfa2
    4a7e:	a3e2                	.insn	2, 0xa3e2
    4a80:	e2a6                	.insn	2, 0xe2a6
    4a82:	80a0                	.insn	2, 0x80a0
    4a84:	a0e2                	.insn	2, 0xa0e2
    4a86:	0a80                	.insn	2, 0x0a80
    4a88:	0000                	.insn	2, 0x
    4a8a:	0000                	.insn	2, 0x
    4a8c:	a2e2                	.insn	2, 0xa2e2
    4a8e:	e280                	.insn	2, 0xe280
    4a90:	a0e2bfa3          	.insn	4, 0xa0e2bfa3
    4a94:	90a1e287          	.insn	4, 0x90a1e287
    4a98:	a1e2                	.insn	2, 0xa1e2
    4a9a:	e288                	.insn	2, 0xe288
    4a9c:	bba0                	.insn	2, 0xbba0
    4a9e:	a3e2                	.insn	2, 0xa3e2
    4aa0:	e2a6                	.insn	2, 0xe2a6
    4aa2:	81a0                	.insn	2, 0x81a0
    4aa4:	a2e2                	.insn	2, 0xa2e2
    4aa6:	e282                	.insn	2, 0xe282
    4aa8:	86a0                	.insn	2, 0x86a0
    4aaa:	a0e2                	.insn	2, 0xa0e2
    4aac:	bfa3e2bb          	.insn	4, 0xbfa3e2bb
    4ab0:	a3e2                	.insn	2, 0xa3e2
    4ab2:	83a1e2bf e289a2e2 	.insn	8, 0xe289a2e283a1e2bf
    4aba:	94a0                	.insn	2, 0x94a0
    4abc:	a3e2                	.insn	2, 0xa3e2
    4abe:	bfa3e2ab          	.insn	4, 0xbfa3e2ab
    4ac2:	a0e2                	.insn	2, 0xa0e2
    4ac4:	e281                	.insn	2, 0xe281
    4ac6:	80a0                	.insn	2, 0x80a0
    4ac8:	a0e2                	.insn	2, 0xa0e2
    4aca:	e280                	.insn	2, 0xe280
    4acc:	80a0                	.insn	2, 0x80a0
    4ace:	a0e2                	.insn	2, 0xa0e2
    4ad0:	e280                	.insn	2, 0xe280
    4ad2:	80a0                	.insn	2, 0x80a0
    4ad4:	a0e2                	.insn	2, 0xa0e2
    4ad6:	e280                	.insn	2, 0xe280
    4ad8:	80a0                	.insn	2, 0x80a0
    4ada:	a0e2                	.insn	2, 0xa0e2
    4adc:	e280                	.insn	2, 0xe280
    4ade:	80a0                	.insn	2, 0x80a0
    4ae0:	a0e2                	.insn	2, 0xa0e2
    4ae2:	e280                	.insn	2, 0xe280
    4ae4:	b8a0                	.insn	2, 0xb8a0
    4ae6:	a2e2                	.insn	2, 0xa2e2
    4ae8:	8ea3e2bf e2b0a0e2 	.insn	8, 0xe2b0a0e28ea3e2bf
    4af0:	88a2                	.insn	2, 0x88a2
    4af2:	a0e2                	.insn	2, 0xa0e2
    4af4:	e299                	.insn	2, 0xe299
    4af6:	8ba1                	.insn	2, 0x8ba1
    4af8:	a2e2                	.insn	2, 0xa2e2
    4afa:	e285                	.insn	2, 0xe285
    4afc:	8aa0                	.insn	2, 0x8aa0
    4afe:	a1e2                	.insn	2, 0xa1e2
    4b00:	e284                	.insn	2, 0xe284
    4b02:	a2a0                	.insn	2, 0xa2a0
    4b04:	a1e2                	.insn	2, 0xa1e2
    4b06:	e281                	.insn	2, 0xe281
    4b08:	91a1                	.insn	2, 0x91a1
    4b0a:	a2e2                	.insn	2, 0xa2e2
    4b0c:	e2a0                	.insn	2, 0xe2a0
    4b0e:	82a0                	.insn	2, 0x82a0
    4b10:	a0e2                	.insn	2, 0xa0e2
    4b12:	e294                	.insn	2, 0xe294
    4b14:	a3e288a3          	sb	t5,-1487(t0)
    4b18:	86a0e2bf 0a80a0e2 	.insn	8, 0x0a80a0e286a0e2bf
    4b20:	0000                	.insn	2, 0x
    4b22:	0000                	.insn	2, 0x
    4b24:	a0e2                	.insn	2, 0xa0e2
    4b26:	e290                	.insn	2, 0xe290
    4b28:	a1e2bfa3          	.insn	4, 0xa1e2bfa3
    4b2c:	e29c                	.insn	2, 0xe29c
    4b2e:	a0a2                	.insn	2, 0xa0a2
    4b30:	a0e2                	.insn	2, 0xa0e2
    4b32:	e290                	.insn	2, 0xe290
    4b34:	a1a1                	.insn	2, 0xa1a1
    4b36:	a2e2                	.insn	2, 0xa2e2
    4b38:	e2a0                	.insn	2, 0xe2a0
    4b3a:	98a0                	.insn	2, 0x98a0
    4b3c:	a0e2                	.insn	2, 0xa0e2
    4b3e:	e2a4                	.insn	2, 0xe2a4
    4b40:	88a1                	.insn	2, 0x88a1
    4b42:	a0e2                	.insn	2, 0xa0e2
    4b44:	e294                	.insn	2, 0xe294
    4b46:	a2e288a3          	sb	a4,-1487(t0)
    4b4a:	e289                	.insn	2, 0xe289
    4b4c:	b0a0                	.insn	2, 0xb0a0
    4b4e:	a0e2                	.insn	2, 0xa0e2
    4b50:	e288                	.insn	2, 0xe288
    4b52:	9ca1                	.insn	2, 0x9ca1
    4b54:	a3e2                	.insn	2, 0xa3e2
    4b56:	e2bc                	.insn	2, 0xe2bc
    4b58:	8fa0                	.insn	2, 0x8fa0
    4b5a:	a0e2                	.insn	2, 0xa0e2
    4b5c:	e280                	.insn	2, 0xe280
    4b5e:	80a0                	.insn	2, 0x80a0
    4b60:	a0e2                	.insn	2, 0xa0e2
    4b62:	e280                	.insn	2, 0xe280
    4b64:	80a0                	.insn	2, 0x80a0
    4b66:	a0e2                	.insn	2, 0xa0e2
    4b68:	e280                	.insn	2, 0xe280
    4b6a:	80a0                	.insn	2, 0x80a0
    4b6c:	a0e2                	.insn	2, 0xa0e2
    4b6e:	e280                	.insn	2, 0xe280
    4b70:	80a0                	.insn	2, 0x80a0
    4b72:	a0e2                	.insn	2, 0xa0e2
    4b74:	e280                	.insn	2, 0xe280
    4b76:	80a0                	.insn	2, 0x80a0
    4b78:	a0e2                	.insn	2, 0xa0e2
    4b7a:	e280                	.insn	2, 0xe280
    4b7c:	80a0                	.insn	2, 0x80a0
    4b7e:	a0e2                	.insn	2, 0xa0e2
    4b80:	e288                	.insn	2, 0xe288
    4b82:	bba0                	.insn	2, 0xbba0
    4b84:	a3e2                	.insn	2, 0xa3e2
    4b86:	86a1e2b7          	lui	t0,0x86a1e
    4b8a:	a0e2                	.insn	2, 0xa0e2
    4b8c:	e2a1                	.insn	2, 0xe2a1
    4b8e:	92a0                	.insn	2, 0x92a0
    4b90:	a1e2                	.insn	2, 0xa1e2
    4b92:	e28c                	.insn	2, 0xe28c
    4b94:	b0a0                	.insn	2, 0xb0a0
    4b96:	a3e2                	.insn	2, 0xa3e2
    4b98:	e280                	.insn	2, 0xe280
    4b9a:	a3a0                	.insn	2, 0xa3a0
    4b9c:	a0e2                	.insn	2, 0xa0e2
    4b9e:	e290                	.insn	2, 0xe290
    4ba0:	8ca2                	.insn	2, 0x8ca2
    4ba2:	a2e2                	.insn	2, 0xa2e2
    4ba4:	e282                	.insn	2, 0xe282
    4ba6:	a9a0                	.insn	2, 0xa9a0
    4ba8:	a1e2                	.insn	2, 0xa1e2
    4baa:	e290                	.insn	2, 0xe290
    4bac:	aca2                	.insn	2, 0xaca2
    4bae:	a0e2                	.insn	2, 0xa0e2
    4bb0:	a6a3e2bf 0a84a1e2 	.insn	8, 0x0a84a1e2a6a3e2bf
    4bb8:	0000                	.insn	2, 0x
    4bba:	0000                	.insn	2, 0x
    4bbc:	a0e2                	.insn	2, 0xa0e2
    4bbe:	e280                	.insn	2, 0xe280
    4bc0:	99a2                	.insn	2, 0x99a2
    4bc2:	a3e2                	.insn	2, 0xa3e2
    4bc4:	b7a3e2bf e286a0e2 	.insn	8, 0xe286a0e2b7a3e2bf
    4bcc:	91a1                	.insn	2, 0x91a1
    4bce:	a2e2                	.insn	2, 0xa2e2
    4bd0:	e2a0                	.insn	2, 0xe2a0
    4bd2:	89a0                	.insn	2, 0x89a0
    4bd4:	a1e2                	.insn	2, 0xa1e2
    4bd6:	e290                	.insn	2, 0xe290
    4bd8:	a1a2                	.insn	2, 0xa1a2
    4bda:	a0e2                	.insn	2, 0xa0e2
    4bdc:	e28a                	.insn	2, 0xe28a
    4bde:	94a0                	.insn	2, 0x94a0
    4be0:	a2e2                	.insn	2, 0xa2e2
    4be2:	e282                	.insn	2, 0xe282
    4be4:	99a0                	.insn	2, 0x99a0
    4be6:	a3e2                	.insn	2, 0xa3e2
    4be8:	e2b2                	.insn	2, 0xe2b2
    4bea:	a1e2bca3          	.insn	4, 0xa1e2bca3
    4bee:	e29f 80a0 a0e2      	.insn	6, 0xa0e280a0e29f
    4bf4:	e280                	.insn	2, 0xe280
    4bf6:	80a0                	.insn	2, 0x80a0
    4bf8:	a0e2                	.insn	2, 0xa0e2
    4bfa:	e280                	.insn	2, 0xe280
    4bfc:	80a0                	.insn	2, 0x80a0
    4bfe:	a0e2                	.insn	2, 0xa0e2
    4c00:	e280                	.insn	2, 0xe280
    4c02:	80a0                	.insn	2, 0x80a0
    4c04:	a0e2                	.insn	2, 0xa0e2
    4c06:	e280                	.insn	2, 0xe280
    4c08:	80a0                	.insn	2, 0x80a0
    4c0a:	a0e2                	.insn	2, 0xa0e2
    4c0c:	e280                	.insn	2, 0xe280
    4c0e:	80a0                	.insn	2, 0x80a0
    4c10:	a0e2                	.insn	2, 0xa0e2
    4c12:	e280                	.insn	2, 0xe280
    4c14:	80a0                	.insn	2, 0x80a0
    4c16:	a0e2                	.insn	2, 0xa0e2
    4c18:	e280                	.insn	2, 0xe280
    4c1a:	80a0                	.insn	2, 0x80a0
    4c1c:	a0e2                	.insn	2, 0xa0e2
    4c1e:	e298                	.insn	2, 0xe298
    4c20:	a3e2b7a3          	.insn	4, 0xa3e2b7a3
    4c24:	e2a5                	.insn	2, 0xe2a5
    4c26:	81a0                	.insn	2, 0x81a0
    4c28:	a2e2                	.insn	2, 0xa2e2
    4c2a:	e286                	.insn	2, 0xe286
    4c2c:	b1a0                	.insn	2, 0xb1a0
    4c2e:	a0e2                	.insn	2, 0xa0e2
    4c30:	e280                	.insn	2, 0xe280
    4c32:	86a2                	.insn	2, 0x86a2
    4c34:	a0e2                	.insn	2, 0xa0e2
    4c36:	e2a9                	.insn	2, 0xe2a9
    4c38:	84a0                	.insn	2, 0x84a0
    4c3a:	a2e2                	.insn	2, 0xa2e2
    4c3c:	e28a                	.insn	2, 0xe28a
    4c3e:	b0a0                	.insn	2, 0xb0a0
    4c40:	a0e2                	.insn	2, 0xa0e2
    4c42:	e290                	.insn	2, 0xe290
    4c44:	a0e282a3          	sb	a4,-1531(t0) # 86a1da05 <_stack_end+0x869141f5>
    4c48:	e2b0                	.insn	2, 0xe2b0
    4c4a:	98a2                	.insn	2, 0x98a2
    4c4c:	a3e2                	.insn	2, 0xa3e2
    4c4e:	00000abf a0e20000 	.insn	8, 0xa0e2000000000abf
    4c56:	e298                	.insn	2, 0xe298
    4c58:	a1e2bfa3          	.insn	4, 0xa1e2bfa3
    4c5c:	80a2e28f          	.insn	4, 0x80a2e28f
    4c60:	a0e2                	.insn	2, 0xa0e2
    4c62:	e2a2                	.insn	2, 0xe2a2
    4c64:	91a1                	.insn	2, 0x91a1
    4c66:	a2e2                	.insn	2, 0xa2e2
    4c68:	e282                	.insn	2, 0xe282
    4c6a:	a1a0                	.insn	2, 0xa1a0
    4c6c:	a1e2                	.insn	2, 0xa1e2
    4c6e:	e298                	.insn	2, 0xe298
    4c70:	a0a2                	.insn	2, 0xa0a2
    4c72:	a0e2                	.insn	2, 0xa0e2
    4c74:	e291                	.insn	2, 0xe291
    4c76:	8ca1                	.insn	2, 0x8ca1
    4c78:	a2e2                	.insn	2, 0xa2e2
    4c7a:	e282                	.insn	2, 0xe282
    4c7c:	92a0                	.insn	2, 0x92a0
    4c7e:	a3e2                	.insn	2, 0xa3e2
    4c80:	e2bc                	.insn	2, 0xe2bc
    4c82:	9fa1                	.insn	2, 0x9fa1
    4c84:	a0e2                	.insn	2, 0xa0e2
    4c86:	e280                	.insn	2, 0xe280
    4c88:	80a0                	.insn	2, 0x80a0
    4c8a:	a0e2                	.insn	2, 0xa0e2
    4c8c:	e280                	.insn	2, 0xe280
    4c8e:	a3e280a3          	sb	t5,-1503(t0)
    4c92:	e2a4                	.insn	2, 0xe2a4
    4c94:	a3e2a4a3          	sw	t5,-1495(t0)
    4c98:	e2b6                	.insn	2, 0xe2b6
    4c9a:	a3e2b6a3          	.insn	4, 0xa3e2b6a3
    4c9e:	e2b6                	.insn	2, 0xe2b6
    4ca0:	a3e2b6a3          	.insn	4, 0xa3e2b6a3
    4ca4:	e2b6                	.insn	2, 0xe2b6
    4ca6:	a3e2a6a3          	sw	t5,-1491(t0)
    4caa:	e2b4                	.insn	2, 0xe2b4
    4cac:	a3e2a4a3          	sw	t5,-1495(t0)
    4cb0:	e2a4                	.insn	2, 0xe2a4
    4cb2:	a3e284a3          	sb	t5,-1495(t0)
    4cb6:	e280                	.insn	2, 0xe280
    4cb8:	88a0                	.insn	2, 0x88a0
    4cba:	a0e2                	.insn	2, 0xa0e2
    4cbc:	b7a3e2bb          	.insn	4, 0xb7a3e2bb
    4cc0:	a3e2                	.insn	2, 0xa3e2
    4cc2:	e2a4                	.insn	2, 0xe2a4
    4cc4:	82a1                	.insn	2, 0x82a1
    4cc6:	a2e2                	.insn	2, 0xa2e2
    4cc8:	e289                	.insn	2, 0xe289
    4cca:	a2a0                	.insn	2, 0xa2a0
    4ccc:	a0e2                	.insn	2, 0xa0e2
    4cce:	e298                	.insn	2, 0xe298
    4cd0:	88a1                	.insn	2, 0x88a1
    4cd2:	a0e2                	.insn	2, 0xa0e2
    4cd4:	e286                	.insn	2, 0xe286
    4cd6:	a1a0                	.insn	2, 0xa1a0
    4cd8:	a0e2                	.insn	2, 0xa0e2
    4cda:	84a2e283          	.insn	4, 0x84a2e283
    4cde:	a0e2                	.insn	2, 0xa0e2
    4ce0:	e292                	.insn	2, 0xe292
    4ce2:	a1e2bca3          	.insn	4, 0xa1e2bca3
    4ce6:	00000abf a0e20000 	.insn	8, 0xa0e2000000000abf
    4cee:	e280                	.insn	2, 0xe280
    4cf0:	b9a0                	.insn	2, 0xb9a0
    4cf2:	a3e2                	.insn	2, 0xa3e2
    4cf4:	8ca3e2b7          	lui	t0,0x8ca3e
    4cf8:	a0e2                	.insn	2, 0xa0e2
    4cfa:	e284                	.insn	2, 0xe284
    4cfc:	91a1                	.insn	2, 0x91a1
    4cfe:	a1e2                	.insn	2, 0xa1e2
    4d00:	e288                	.insn	2, 0xe288
    4d02:	86a0                	.insn	2, 0x86a0
    4d04:	a1e2                	.insn	2, 0xa1e2
    4d06:	e291                	.insn	2, 0xe291
    4d08:	82a2                	.insn	2, 0x82a2
    4d0a:	a0e2                	.insn	2, 0xa0e2
    4d0c:	e2a2                	.insn	2, 0xe2a2
    4d0e:	90a0                	.insn	2, 0x90a0
    4d10:	a3e2                	.insn	2, 0xa3e2
    4d12:	e2ac                	.insn	2, 0xe2ac
    4d14:	a0e2bea3          	.insn	4, 0xa0e2bea3
    4d18:	e29f 81a2 a3e2      	.insn	6, 0xa3e281a2e29f
    4d1e:	e2a4                	.insn	2, 0xe2a4
    4d20:	a0e2bea3          	.insn	4, 0xa0e2bea3
    4d24:	9ba0e2bf e28ba2e2 	.insn	8, 0xe28ba2e29ba0e2bf
    4d2c:	b9a2                	.insn	2, 0xb9a2
    4d2e:	a3e2                	.insn	2, 0xa3e2
    4d30:	96a0e2b7          	lui	t0,0x96a0e
    4d34:	a1e2                	.insn	2, 0xa1e2
    4d36:	e2a0                	.insn	2, 0xe2a0
    4d38:	b7a2                	.insn	2, 0xb7a2
    4d3a:	a3e2                	.insn	2, 0xa3e2
    4d3c:	e286                	.insn	2, 0xe286
    4d3e:	90a1                	.insn	2, 0x90a1
    4d40:	a1e2                	.insn	2, 0xa1e2
    4d42:	e288                	.insn	2, 0xe288
    4d44:	89a2                	.insn	2, 0x89a2
    4d46:	a2e2                	.insn	2, 0xa2e2
    4d48:	e289                	.insn	2, 0xe289
    4d4a:	99a1                	.insn	2, 0x99a1
    4d4c:	a0e2                	.insn	2, 0xa0e2
    4d4e:	bfa0e29b          	.insn	4, 0xbfa0e29b
    4d52:	a2e2                	.insn	2, 0xa2e2
    4d54:	aea3e2b7          	lui	t0,0xaea3e
    4d58:	a3e2                	.insn	2, 0xa3e2
    4d5a:	e29d                	.insn	2, 0xe29d
    4d5c:	bba0                	.insn	2, 0xbba0
    4d5e:	a3e2                	.insn	2, 0xa3e2
    4d60:	b6a3e2b7          	lui	t0,0xb6a3e
    4d64:	a3e2                	.insn	2, 0xa3e2
    4d66:	e2a5                	.insn	2, 0xe2a5
    4d68:	a3e2a6a3          	sw	t5,-1491(t0) # b6a3da2d <_stack_end+0xb693421d>
    4d6c:	e2ac                	.insn	2, 0xe2ac
    4d6e:	a3e2a5a3          	sw	t5,-1493(t0)
    4d72:	e2bc                	.insn	2, 0xe2bc
    4d74:	a3e2a4a3          	sw	t5,-1495(t0)
    4d78:	e2be                	.insn	2, 0xe2be
    4d7a:	9fa0                	.insn	2, 0x9fa0
    4d7c:	a0e2                	.insn	2, 0xa0e2
    4d7e:	0a81                	.insn	2, 0x0a81
    4d80:	0000                	.insn	2, 0x
    4d82:	0000                	.insn	2, 0x
    4d84:	a0e2                	.insn	2, 0xa0e2
    4d86:	e280                	.insn	2, 0xe280
    4d88:	80a0                	.insn	2, 0x80a0
    4d8a:	a0e2                	.insn	2, 0xa0e2
    4d8c:	e288                	.insn	2, 0xe288
    4d8e:	99a0                	.insn	2, 0x99a0
    4d90:	a0e2                	.insn	2, 0xa0e2
    4d92:	b7a2e2bb          	.insn	4, 0xb7a2e2bb
    4d96:	a3e2                	.insn	2, 0xa3e2
    4d98:	e28c                	.insn	2, 0xe28c
    4d9a:	a2e284a3          	sb	a4,-1495(t0)
    4d9e:	e2a1                	.insn	2, 0xe2a1
    4da0:	a3e2a2a3          	sw	t5,-1499(t0)
    4da4:	e2b4                	.insn	2, 0xe2b4
    4da6:	a0e2bfa3          	.insn	4, 0xa0e2bfa3
    4daa:	e29f 89a2 a3e2      	.insn	6, 0xa3e289a2e29f
    4db0:	e2b4                	.insn	2, 0xe2b4
    4db2:	9fa1                	.insn	2, 0x9fa1
    4db4:	a0e2                	.insn	2, 0xa0e2
    4db6:	84a0e28b          	.insn	4, 0x84a0e28b
    4dba:	a3e2                	.insn	2, 0xa3e2
    4dbc:	e282                	.insn	2, 0xe282
    4dbe:	a3e2a1a3          	sw	t5,-1501(t0)
    4dc2:	e2be                	.insn	2, 0xe2be
    4dc4:	bfa1                	.insn	2, 0xbfa1
    4dc6:	a2e2                	.insn	2, 0xa2e2
    4dc8:	b0a0e28b          	.insn	4, 0xb0a0e28b
    4dcc:	a0e2                	.insn	2, 0xa0e2
    4dce:	e280                	.insn	2, 0xe280
    4dd0:	ada2                	.insn	2, 0xada2
    4dd2:	a1e2                	.insn	2, 0xa1e2
    4dd4:	b7a2e2bb          	.insn	4, 0xb7a2e2bb
    4dd8:	a3e2                	.insn	2, 0xa3e2
    4dda:	aca3e2b7          	lui	t0,0xaca3e
    4dde:	a3e2                	.insn	2, 0xa3e2
    4de0:	e2a4                	.insn	2, 0xe2a4
    4de2:	a3e280a3          	sb	t5,-1503(t0) # aca3da21 <_stack_end+0xac934211>
    4de6:	90a3e283          	.insn	4, 0x90a3e283
    4dea:	a0e2                	.insn	2, 0xa0e2
    4dec:	e282                	.insn	2, 0xe282
    4dee:	89a1                	.insn	2, 0x89a1
    4df0:	a0e2                	.insn	2, 0xa0e2
    4df2:	b7a2e29b          	.insn	4, 0xb7a2e29b
    4df6:	a3e2                	.insn	2, 0xa3e2
    4df8:	e2a6                	.insn	2, 0xe2a6
    4dfa:	88a0                	.insn	2, 0x88a0
    4dfc:	a0e2                	.insn	2, 0xa0e2
    4dfe:	e289                	.insn	2, 0xe289
    4e00:	89a0                	.insn	2, 0x89a0
    4e02:	a0e2                	.insn	2, 0xa0e2
    4e04:	e289                	.insn	2, 0xe289
    4e06:	89a0                	.insn	2, 0x89a0
    4e08:	a0e2                	.insn	2, 0xa0e2
    4e0a:	8ba0e29b          	.insn	4, 0x8ba0e29b
    4e0e:	a0e2                	.insn	2, 0xa0e2
    4e10:	e281                	.insn	2, 0xe281
    4e12:	80a0                	.insn	2, 0x80a0
    4e14:	a0e2                	.insn	2, 0xa0e2
    4e16:	0a80                	.insn	2, 0x0a80
    4e18:	0000                	.insn	2, 0x
    4e1a:	0000                	.insn	2, 0x
    4e1c:	a0e2                	.insn	2, 0xa0e2
    4e1e:	e280                	.insn	2, 0xe280
    4e20:	80a0                	.insn	2, 0x80a0
    4e22:	a0e2                	.insn	2, 0xa0e2
    4e24:	e280                	.insn	2, 0xe280
    4e26:	80a0                	.insn	2, 0x80a0
    4e28:	a0e2                	.insn	2, 0xa0e2
    4e2a:	e280                	.insn	2, 0xe280
    4e2c:	80a0                	.insn	2, 0x80a0
    4e2e:	a0e2                	.insn	2, 0xa0e2
    4e30:	e299                	.insn	2, 0xe299
    4e32:	9ba0                	.insn	2, 0x9ba0
    4e34:	a0e2                	.insn	2, 0xa0e2
    4e36:	9ba0e29b          	.insn	4, 0x9ba0e29b
    4e3a:	a0e2                	.insn	2, 0xa0e2
    4e3c:	e289                	.insn	2, 0xe289
    4e3e:	80a2                	.insn	2, 0x80a2
    4e40:	a3e2                	.insn	2, 0xa3e2
    4e42:	e2b4                	.insn	2, 0xe2b4
    4e44:	9fa1                	.insn	2, 0x9fa1
    4e46:	a0e2                	.insn	2, 0xa0e2
    4e48:	b6a0e2b3          	.insn	4, 0xb6a0e2b3
    4e4c:	a2e2                	.insn	2, 0xa2e2
    4e4e:	bea0e2b7          	lui	t0,0xbea0e
    4e52:	a0e2                	.insn	2, 0xa0e2
    4e54:	e29f aba0 a3e2      	.insn	6, 0xa3e2aba0e29f
    4e5a:	e2b5                	.insn	2, 0xe2b5
    4e5c:	a1e2afa3          	sw	t5,-1505(t0) # bea0da1f <_stack_end+0xbe90420f>
    4e60:	e294                	.insn	2, 0xe294
    4e62:	8ea2                	.insn	2, 0x8ea2
    4e64:	a1e2                	.insn	2, 0xa1e2
    4e66:	e2b1                	.insn	2, 0xe2b1
    4e68:	bea2                	.insn	2, 0xbea2
    4e6a:	a3e2                	.insn	2, 0xa3e2
    4e6c:	a4a3e2b7          	lui	t0,0xa4a3e
    4e70:	a1e2                	.insn	2, 0xa1e2
    4e72:	e288                	.insn	2, 0xe288
    4e74:	89a2                	.insn	2, 0x89a2
    4e76:	a0e2                	.insn	2, 0xa0e2
    4e78:	e28d                	.insn	2, 0xe28d
    4e7a:	9ba0                	.insn	2, 0x9ba0
    4e7c:	a0e2                	.insn	2, 0xa0e2
    4e7e:	8ba2e29b          	.insn	4, 0x8ba2e29b
    4e82:	a1e2                	.insn	2, 0xa1e2
    4e84:	e290                	.insn	2, 0xe290
    4e86:	a1a0                	.insn	2, 0xa1a0
    4e88:	a2e2                	.insn	2, 0xa2e2
    4e8a:	e298                	.insn	2, 0xe298
    4e8c:	80a1                	.insn	2, 0x80a1
    4e8e:	a0e2                	.insn	2, 0xa0e2
    4e90:	bfa3e29b          	.insn	4, 0xbfa3e29b
    4e94:	a3e2                	.insn	2, 0xa3e2
    4e96:	e284                	.insn	2, 0xe284
    4e98:	80a0                	.insn	2, 0x80a0
    4e9a:	a0e2                	.insn	2, 0xa0e2
    4e9c:	e280                	.insn	2, 0xe280
    4e9e:	80a0                	.insn	2, 0x80a0
    4ea0:	a0e2                	.insn	2, 0xa0e2
    4ea2:	e280                	.insn	2, 0xe280
    4ea4:	80a0                	.insn	2, 0x80a0
    4ea6:	a0e2                	.insn	2, 0xa0e2
    4ea8:	e280                	.insn	2, 0xe280
    4eaa:	80a0                	.insn	2, 0x80a0
    4eac:	a0e2                	.insn	2, 0xa0e2
    4eae:	0a80                	.insn	2, 0x0a80
    4eb0:	0000                	.insn	2, 0x
    4eb2:	0000                	.insn	2, 0x
    4eb4:	a0e2                	.insn	2, 0xa0e2
    4eb6:	e280                	.insn	2, 0xe280
    4eb8:	80a0                	.insn	2, 0x80a0
    4eba:	a0e2                	.insn	2, 0xa0e2
    4ebc:	e280                	.insn	2, 0xe280
    4ebe:	80a0                	.insn	2, 0x80a0
    4ec0:	a0e2                	.insn	2, 0xa0e2
    4ec2:	e280                	.insn	2, 0xe280
    4ec4:	80a0                	.insn	2, 0x80a0
    4ec6:	a0e2                	.insn	2, 0xa0e2
    4ec8:	e280                	.insn	2, 0xe280
    4eca:	80a0                	.insn	2, 0x80a0
    4ecc:	a0e2                	.insn	2, 0xa0e2
    4ece:	e280                	.insn	2, 0xe280
    4ed0:	80a0                	.insn	2, 0x80a0
    4ed2:	a2e2                	.insn	2, 0xa2e2
    4ed4:	e2a0                	.insn	2, 0xe2a0
    4ed6:	a0e2bea3          	.insn	4, 0xa0e2bea3
    4eda:	a4a0e28b          	.insn	4, 0xa4a0e28b
    4ede:	a0e2                	.insn	2, 0xa0e2
    4ee0:	e2a1                	.insn	2, 0xe2a1
    4ee2:	8ca0                	.insn	2, 0x8ca0
    4ee4:	a1e2                	.insn	2, 0xa1e2
    4ee6:	e284                	.insn	2, 0xe284
    4ee8:	a2a0                	.insn	2, 0xa2a0
    4eea:	a3e2                	.insn	2, 0xa3e2
    4eec:	e2ac                	.insn	2, 0xe2ac
    4eee:	a3e2bfa3          	.insn	4, 0xa3e2bfa3
    4ef2:	8fa3e2bf e29ca1e2 	.insn	8, 0xe29ca1e28fa3e2bf
    4efa:	a1e2aaa3          	sw	t5,-1515(t0) # a4a3da15 <_stack_end+0xa4934205>
    4efe:	e291                	.insn	2, 0xe291
    4f00:	afa2                	.insn	2, 0xafa2
    4f02:	a3e2                	.insn	2, 0xa3e2
    4f04:	bfa3e2bf e2bfa3e2 	.insn	8, 0xe2bfa3e2bfa3e2bf
    4f0c:	a2e2a6a3          	sw	a4,-1491(t0)
    4f10:	e288                	.insn	2, 0xe288
    4f12:	a2a0                	.insn	2, 0xa2a0
    4f14:	a2e2                	.insn	2, 0xa2e2
    4f16:	e291                	.insn	2, 0xe291
    4f18:	a2a0                	.insn	2, 0xa2a0
    4f1a:	a1e2                	.insn	2, 0xa1e2
    4f1c:	e298                	.insn	2, 0xe298
    4f1e:	84a2                	.insn	2, 0x84a2
    4f20:	a0e2                	.insn	2, 0xa0e2
    4f22:	a4a0e283          	.insn	4, 0xa4a0e283
    4f26:	a0e2                	.insn	2, 0xa0e2
    4f28:	e291                	.insn	2, 0xe291
    4f2a:	88a1                	.insn	2, 0x88a1
    4f2c:	a2e2                	.insn	2, 0xa2e2
    4f2e:	a6a3e2bf e280a0e2 	.insn	8, 0xe280a0e2a6a3e2bf
    4f36:	80a0                	.insn	2, 0x80a0
    4f38:	a0e2                	.insn	2, 0xa0e2
    4f3a:	e280                	.insn	2, 0xe280
    4f3c:	80a0                	.insn	2, 0x80a0
    4f3e:	a0e2                	.insn	2, 0xa0e2
    4f40:	e280                	.insn	2, 0xe280
    4f42:	80a0                	.insn	2, 0x80a0
    4f44:	a0e2                	.insn	2, 0xa0e2
    4f46:	0a80                	.insn	2, 0x0a80
    4f48:	0000                	.insn	2, 0x
    4f4a:	0000                	.insn	2, 0x
    4f4c:	a0e2                	.insn	2, 0xa0e2
    4f4e:	e280                	.insn	2, 0xe280
    4f50:	80a0                	.insn	2, 0x80a0
    4f52:	a0e2                	.insn	2, 0xa0e2
    4f54:	e280                	.insn	2, 0xe280
    4f56:	80a0                	.insn	2, 0x80a0
    4f58:	a0e2                	.insn	2, 0xa0e2
    4f5a:	e280                	.insn	2, 0xe280
    4f5c:	80a0                	.insn	2, 0x80a0
    4f5e:	a0e2                	.insn	2, 0xa0e2
    4f60:	e280                	.insn	2, 0xe280
    4f62:	80a0                	.insn	2, 0x80a0
    4f64:	a0e2                	.insn	2, 0xa0e2
    4f66:	e280                	.insn	2, 0xe280
    4f68:	b0a2                	.insn	2, 0xb0a2
    4f6a:	a1e2                	.insn	2, 0xa1e2
    4f6c:	81a0e2bf e28ea2e2 	.insn	8, 0xe28ea2e281a0e2bf
    4f74:	90a1                	.insn	2, 0x90a1
    4f76:	a0e2                	.insn	2, 0xa0e2
    4f78:	e2a1                	.insn	2, 0xe2a1
    4f7a:	8aa2                	.insn	2, 0x8aa2
    4f7c:	a3e2                	.insn	2, 0xa3e2
    4f7e:	e2a4                	.insn	2, 0xe2a4
    4f80:	a3e2b7a3          	.insn	4, 0xa3e2b7a3
    4f84:	bfa3e2bf e2bba3e2 	.insn	8, 0xe2bba3e2bfa3e2bf
    4f8c:	9fa0                	.insn	2, 0x9fa0
    4f8e:	a1e2                	.insn	2, 0xa1e2
    4f90:	e2ad                	.insn	2, 0xe2ad
    4f92:	b5a0                	.insn	2, 0xb5a0
    4f94:	a2e2                	.insn	2, 0xa2e2
    4f96:	e2ad                	.insn	2, 0xe2ad
    4f98:	8ba1                	.insn	2, 0x8ba1
    4f9a:	a0e2                	.insn	2, 0xa0e2
    4f9c:	bda3e2bf e2bfa3e2 	.insn	8, 0xe2bfa3e2bda3e2bf
    4fa4:	a3e2bfa3          	.insn	4, 0xa3e2bfa3
    4fa8:	a6a3e2b7          	lui	t0,0xa6a3e
    4fac:	a3e2                	.insn	2, 0xa3e2
    4fae:	e286                	.insn	2, 0xe286
    4fb0:	a3e282a3          	sb	t5,-1499(t0) # a6a3da25 <_stack_end+0xa6934215>
    4fb4:	e281                	.insn	2, 0xe281
    4fb6:	a2a0                	.insn	2, 0xa2a0
    4fb8:	a0e2                	.insn	2, 0xa0e2
    4fba:	e298                	.insn	2, 0xe298
    4fbc:	a0a2                	.insn	2, 0xa0a2
    4fbe:	a0e2                	.insn	2, 0xa0e2
    4fc0:	8ca0e283          	.insn	4, 0x8ca0e283
    4fc4:	a2e2                	.insn	2, 0xa2e2
    4fc6:	e28a                	.insn	2, 0xe28a
    4fc8:	bfa2                	.insn	2, 0xbfa2
    4fca:	a1e2                	.insn	2, 0xa1e2
    4fcc:	e286                	.insn	2, 0xe286
    4fce:	80a0                	.insn	2, 0x80a0
    4fd0:	a0e2                	.insn	2, 0xa0e2
    4fd2:	e280                	.insn	2, 0xe280
    4fd4:	80a0                	.insn	2, 0x80a0
    4fd6:	a0e2                	.insn	2, 0xa0e2
    4fd8:	e280                	.insn	2, 0xe280
    4fda:	80a0                	.insn	2, 0x80a0
    4fdc:	a0e2                	.insn	2, 0xa0e2
    4fde:	0a80                	.insn	2, 0x0a80
    4fe0:	0000                	.insn	2, 0x
    4fe2:	0000                	.insn	2, 0x
    4fe4:	a0e2                	.insn	2, 0xa0e2
    4fe6:	e280                	.insn	2, 0xe280
    4fe8:	80a0                	.insn	2, 0x80a0
    4fea:	a0e2                	.insn	2, 0xa0e2
    4fec:	e280                	.insn	2, 0xe280
    4fee:	80a0                	.insn	2, 0x80a0
    4ff0:	a0e2                	.insn	2, 0xa0e2
    4ff2:	e280                	.insn	2, 0xe280
    4ff4:	80a0                	.insn	2, 0x80a0
    4ff6:	a0e2                	.insn	2, 0xa0e2
    4ff8:	e280                	.insn	2, 0xe280
    4ffa:	80a0                	.insn	2, 0x80a0
    4ffc:	a2e2                	.insn	2, 0xa2e2
    4ffe:	e280                	.insn	2, 0xe280
    5000:	a0e2bfa3          	.insn	4, 0xa0e2bfa3
    5004:	8da1e283          	.insn	4, 0x8da1e283
    5008:	a0e2                	.insn	2, 0xa0e2
    500a:	e2b0                	.insn	2, 0xe2b0
    500c:	a3e2b0a3          	.insn	4, 0xa3e2b0a3
    5010:	bfa3e2bf e2bfa3e2 	.insn	8, 0xe2bfa3e2bfa3e2bf
    5018:	bfa0                	.insn	2, 0xbfa0
    501a:	a3e2                	.insn	2, 0xa3e2
    501c:	b6a2e2bf e28fa0e2 	.insn	8, 0xe28fa0e2b6a2e2bf
    5024:	9fa1                	.insn	2, 0x9fa1
    5026:	a2e2                	.insn	2, 0xa2e2
    5028:	e2ac                	.insn	2, 0xe2ac
    502a:	99a1                	.insn	2, 0x99a1
    502c:	a2e2                	.insn	2, 0xa2e2
    502e:	e2a6                	.insn	2, 0xe2a6
    5030:	8da1                	.insn	2, 0x8da1
    5032:	a2e2                	.insn	2, 0xa2e2
    5034:	99a1e2a7          	.insn	4, 0x99a1e2a7
    5038:	a2e2                	.insn	2, 0xa2e2
    503a:	bda3e2b7          	lui	t0,0xbda3e
    503e:	a3e2                	.insn	2, 0xa3e2
    5040:	bfa1e2bb          	.insn	4, 0xbfa1e2bb
    5044:	a2e2                	.insn	2, 0xa2e2
    5046:	bfa3e2bf e2bfa3e2 	.insn	8, 0xe2bfa3e2bfa3e2bf
    504e:	a3e2bfa3          	.insn	4, 0xa3e2bfa3
    5052:	82a0e287          	.insn	4, 0x82a0e287
    5056:	a0e2                	.insn	2, 0xa0e2
    5058:	e29c                	.insn	2, 0xe29c
    505a:	88a1                	.insn	2, 0x88a1
    505c:	a0e2                	.insn	2, 0xa0e2
    505e:	e294                	.insn	2, 0xe294
    5060:	a3e2baa3          	.insn	4, 0xa3e2baa3
    5064:	80a0e2bf e280a0e2 	.insn	8, 0xe280a0e280a0e2bf
    506c:	80a0                	.insn	2, 0x80a0
    506e:	a0e2                	.insn	2, 0xa0e2
    5070:	e280                	.insn	2, 0xe280
    5072:	80a0                	.insn	2, 0x80a0
    5074:	a0e2                	.insn	2, 0xa0e2
    5076:	0a80                	.insn	2, 0x0a80
    5078:	0000                	.insn	2, 0x
    507a:	0000                	.insn	2, 0x
    507c:	a0e2                	.insn	2, 0xa0e2
    507e:	e280                	.insn	2, 0xe280
    5080:	80a0                	.insn	2, 0x80a0
    5082:	a0e2                	.insn	2, 0xa0e2
    5084:	e280                	.insn	2, 0xe280
    5086:	80a0                	.insn	2, 0x80a0
    5088:	a0e2                	.insn	2, 0xa0e2
    508a:	e280                	.insn	2, 0xe280
    508c:	80a0                	.insn	2, 0x80a0
    508e:	a0e2                	.insn	2, 0xa0e2
    5090:	e280                	.insn	2, 0xe280
    5092:	80a0                	.insn	2, 0x80a0
    5094:	a3e2                	.insn	2, 0xa3e2
    5096:	e2bc                	.insn	2, 0xe2bc
    5098:	9fa1                	.insn	2, 0x9fa1
    509a:	a2e2                	.insn	2, 0xa2e2
    509c:	e2b0                	.insn	2, 0xe2b0
    509e:	88a1                	.insn	2, 0x88a1
    50a0:	a0e2                	.insn	2, 0xa0e2
    50a2:	e28c                	.insn	2, 0xe28c
    50a4:	a1e2bfa3          	.insn	4, 0xa1e2bfa3
    50a8:	e29f ada1 a2e2      	.insn	6, 0xa2e2ada1e29f
    50ae:	e28e                	.insn	2, 0xe28e
    50b0:	bda1                	.insn	2, 0xbda1
    50b2:	a3e2                	.insn	2, 0xa3e2
    50b4:	80a0e2bf e29ba0e2 	.insn	8, 0xe29ba0e280a0e2bf
    50bc:	aca1                	.insn	2, 0xaca1
    50be:	a2e2                	.insn	2, 0xa2e2
    50c0:	99a1e2a3          	.insn	4, 0x99a1e2a3
    50c4:	a3e2                	.insn	2, 0xa3e2
    50c6:	e286                	.insn	2, 0xe286
    50c8:	9ea0                	.insn	2, 0x9ea0
    50ca:	a1e2                	.insn	2, 0xa1e2
    50cc:	e2a6                	.insn	2, 0xe2a6
    50ce:	99a0                	.insn	2, 0x99a0
    50d0:	a0e2                	.insn	2, 0xa0e2
    50d2:	e286                	.insn	2, 0xe286
    50d4:	8ca2                	.insn	2, 0x8ca2
    50d6:	a2e2                	.insn	2, 0xa2e2
    50d8:	e2b9                	.insn	2, 0xe2b9
    50da:	a1e2afa3          	sw	t5,-1505(t0) # bda3da1f <_stack_end+0xbd93420f>
    50de:	b6a2e293          	ori	t0,t0,-1174
    50e2:	a1e2                	.insn	2, 0xa1e2
    50e4:	e298                	.insn	2, 0xe298
    50e6:	a3e2bea3          	.insn	4, 0xa3e2bea3
    50ea:	80a0e2af          	.insn	4, 0x80a0e2af
    50ee:	a2e2                	.insn	2, 0xa2e2
    50f0:	98a0e2a3          	.insn	4, 0x98a0e2a3
    50f4:	a1e2                	.insn	2, 0xa1e2
    50f6:	e2a0                	.insn	2, 0xe2a0
    50f8:	b9a2                	.insn	2, 0xb9a2
    50fa:	a3e2                	.insn	2, 0xa3e2
    50fc:	80a0e2bf e280a0e2 	.insn	8, 0xe280a0e280a0e2bf
    5104:	80a0                	.insn	2, 0x80a0
    5106:	a0e2                	.insn	2, 0xa0e2
    5108:	e280                	.insn	2, 0xe280
    510a:	80a0                	.insn	2, 0x80a0
    510c:	a0e2                	.insn	2, 0xa0e2
    510e:	0a80                	.insn	2, 0x0a80
    5110:	0000                	.insn	2, 0x
    5112:	0000                	.insn	2, 0x
    5114:	a0e2                	.insn	2, 0xa0e2
    5116:	e280                	.insn	2, 0xe280
    5118:	80a0                	.insn	2, 0x80a0
    511a:	a0e2                	.insn	2, 0xa0e2
    511c:	e280                	.insn	2, 0xe280
    511e:	80a0                	.insn	2, 0x80a0
    5120:	a0e2                	.insn	2, 0xa0e2
    5122:	e280                	.insn	2, 0xe280
    5124:	80a0                	.insn	2, 0x80a0
    5126:	a0e2                	.insn	2, 0xa0e2
    5128:	e280                	.insn	2, 0xe280
    512a:	80a0                	.insn	2, 0x80a0
    512c:	a3e2                	.insn	2, 0xa3e2
    512e:	87a1e2bf e2baa2e2 	.insn	8, 0xe2baa2e287a1e2bf
    5136:	90a1                	.insn	2, 0x90a1
    5138:	a1e2                	.insn	2, 0xa1e2
    513a:	e288                	.insn	2, 0xe288
    513c:	a1e2bfa3          	.insn	4, 0xa1e2bfa3
    5140:	e2bd                	.insn	2, 0xe2bd
    5142:	a2e298a3          	sh	a4,-1487(t0)
    5146:	9aa3e2a7          	.insn	4, 0x9aa3e2a7
    514a:	a3e2                	.insn	2, 0xa3e2
    514c:	80a0e2bf e28da2e2 	.insn	8, 0xe28da2e280a0e2bf
    5154:	a3e2b0a3          	.insn	4, 0xa3e2b0a3
    5158:	e2a6                	.insn	2, 0xe2a6
    515a:	a3e2b7a3          	.insn	4, 0xa3e2b7a3
    515e:	e2be                	.insn	2, 0xe2be
    5160:	a3e2b6a3          	.insn	4, 0xa3e2b6a3
    5164:	e2b6                	.insn	2, 0xe2b6
    5166:	a1e2ada3          	sw	t5,-1509(t0)
    516a:	e290                	.insn	2, 0xe290
    516c:	a8a2                	.insn	2, 0xa8a2
    516e:	a0e2                	.insn	2, 0xa0e2
    5170:	e2b8                	.insn	2, 0xe2b8
    5172:	a1e2b7a3          	.insn	4, 0xa1e2b7a3
    5176:	e2b9                	.insn	2, 0xe2b9
    5178:	b2a2                	.insn	2, 0xb2a2
    517a:	a1e2                	.insn	2, 0xa1e2
    517c:	e2b9                	.insn	2, 0xe2b9
    517e:	bca2                	.insn	2, 0xbca2
    5180:	a3e2                	.insn	2, 0xa3e2
    5182:	88a0e2b7          	lui	t0,0x88a0e
    5186:	a2e2                	.insn	2, 0xa2e2
    5188:	e284                	.insn	2, 0xe284
    518a:	a3a0                	.insn	2, 0xa3a0
    518c:	a2e2                	.insn	2, 0xa2e2
    518e:	e290                	.insn	2, 0xe290
    5190:	a3e2a9a3          	sw	t5,-1485(t0) # 88a0da33 <_stack_end+0x88904223>
    5194:	80a0e2bf e280a0e2 	.insn	8, 0xe280a0e280a0e2bf
    519c:	80a0                	.insn	2, 0x80a0
    519e:	a0e2                	.insn	2, 0xa0e2
    51a0:	e280                	.insn	2, 0xe280
    51a2:	80a0                	.insn	2, 0x80a0
    51a4:	a0e2                	.insn	2, 0xa0e2
    51a6:	0a80                	.insn	2, 0x0a80
    51a8:	0000                	.insn	2, 0x
    51aa:	0000                	.insn	2, 0x
    51ac:	a0e2                	.insn	2, 0xa0e2
    51ae:	e280                	.insn	2, 0xe280
    51b0:	80a0                	.insn	2, 0x80a0
    51b2:	a0e2                	.insn	2, 0xa0e2
    51b4:	e280                	.insn	2, 0xe280
    51b6:	80a0                	.insn	2, 0x80a0
    51b8:	a0e2                	.insn	2, 0xa0e2
    51ba:	e280                	.insn	2, 0xe280
    51bc:	80a0                	.insn	2, 0x80a0
    51be:	a0e2                	.insn	2, 0xa0e2
    51c0:	e280                	.insn	2, 0xe280
    51c2:	80a0                	.insn	2, 0x80a0
    51c4:	a3e2                	.insn	2, 0xa3e2
    51c6:	a3a1e2bf e2a5a0e2 	.insn	8, 0xe2a5a0e2a3a1e2bf
    51ce:	83a1                	.insn	2, 0x83a1
    51d0:	a2e2                	.insn	2, 0xa2e2
    51d2:	e28c                	.insn	2, 0xe28c
    51d4:	a1e2bfa3          	.insn	4, 0xa1e2bfa3
    51d8:	e2b5                	.insn	2, 0xe2b5
    51da:	a0e2a9a3          	sw	a4,-1517(t0)
    51de:	e2b6                	.insn	2, 0xe2b6
    51e0:	a3e2a9a3          	sw	t5,-1485(t0)
    51e4:	a0a3e2bf e2bfa3e2 	.insn	8, 0xe2bfa3e2a0a3e2bf
    51ec:	a3e2bfa3          	.insn	4, 0xa3e2bfa3
    51f0:	bfa3e2bf e2bfa3e2 	.insn	8, 0xe2bfa3e2bfa3e2bf
    51f8:	a3e2bfa3          	.insn	4, 0xa3e2bfa3
    51fc:	bfa3e2bf e2bfa3e2 	.insn	8, 0xe2bfa3e2bfa3e2bf
    5204:	a1e2a7a3          	sw	t5,-1521(t0)
    5208:	e298                	.insn	2, 0xe298
    520a:	a1e2bfa3          	.insn	4, 0xa1e2bfa3
    520e:	e2b1                	.insn	2, 0xe2b1
    5210:	a1e28fa3          	sb	t5,-1505(t0)
    5214:	e29c                	.insn	2, 0xe29c
    5216:	a3e2bba3          	.insn	4, 0xa3e2bba3
    521a:	90a0e2af          	.insn	4, 0x90a0e2af
    521e:	a3e2                	.insn	2, 0xa3e2
    5220:	e288                	.insn	2, 0xe288
    5222:	92a0                	.insn	2, 0x92a0
    5224:	a1e2                	.insn	2, 0xa1e2
    5226:	e284                	.insn	2, 0xe284
    5228:	baa2                	.insn	2, 0xbaa2
    522a:	a3e2                	.insn	2, 0xa3e2
    522c:	80a0e2bf e280a0e2 	.insn	8, 0xe280a0e280a0e2bf
    5234:	80a0                	.insn	2, 0x80a0
    5236:	a0e2                	.insn	2, 0xa0e2
    5238:	e280                	.insn	2, 0xe280
    523a:	80a0                	.insn	2, 0x80a0
    523c:	a0e2                	.insn	2, 0xa0e2
    523e:	0a80                	.insn	2, 0x0a80
    5240:	0000                	.insn	2, 0x
    5242:	0000                	.insn	2, 0x
    5244:	a0e2                	.insn	2, 0xa0e2
    5246:	e280                	.insn	2, 0xe280
    5248:	80a0                	.insn	2, 0x80a0
    524a:	a0e2                	.insn	2, 0xa0e2
    524c:	e280                	.insn	2, 0xe280
    524e:	80a0                	.insn	2, 0x80a0
    5250:	a0e2                	.insn	2, 0xa0e2
    5252:	e280                	.insn	2, 0xe280
    5254:	80a0                	.insn	2, 0x80a0
    5256:	a0e2                	.insn	2, 0xa0e2
    5258:	e280                	.insn	2, 0xe280
    525a:	80a0                	.insn	2, 0x80a0
    525c:	a3e2                	.insn	2, 0xa3e2
    525e:	87a1e2bf e292a0e2 	.insn	8, 0xe292a0e287a1e2bf
    5266:	85a1                	.insn	2, 0x85a1
    5268:	a0e2                	.insn	2, 0xa0e2
    526a:	e2a2                	.insn	2, 0xe2a2
    526c:	a2e2bfa3          	.insn	4, 0xa2e2bfa3
    5270:	e296                	.insn	2, 0xe296
    5272:	ada1                	.insn	2, 0xada1
    5274:	a2e2                	.insn	2, 0xa2e2
    5276:	b1a1e2b3          	.insn	4, 0xb1a1e2b3
    527a:	a3e2                	.insn	2, 0xa3e2
    527c:	bfa3e2af          	.insn	4, 0xbfa3e2af
    5280:	a3e2                	.insn	2, 0xa3e2
    5282:	bfa1e2bf e29fa3e2 	.insn	8, 0xe29fa3e2bfa1e2bf
    528a:	a2e2afa3          	sw	a4,-1473(t0)
    528e:	e29f bda3 a3e2      	.insn	6, 0xa3e2bda3e29f
    5294:	bfa3e2bb          	.insn	4, 0xbfa3e2bb
    5298:	a3e2                	.insn	2, 0xa3e2
    529a:	bfa3e2bf e2bfa3e2 	.insn	8, 0xe2bfa3e2bfa3e2bf
    52a2:	bda1                	.insn	2, 0xbda1
    52a4:	a3e2                	.insn	2, 0xa3e2
    52a6:	e2b1                	.insn	2, 0xe2b1
    52a8:	9ea0                	.insn	2, 0x9ea0
    52aa:	a1e2                	.insn	2, 0xa1e2
    52ac:	e2bc                	.insn	2, 0xe2bc
    52ae:	a3e2b9a3          	.insn	4, 0xa3e2b9a3
    52b2:	90a0e2b7          	lui	t0,0x90a0e
    52b6:	a2e2                	.insn	2, 0xa2e2
    52b8:	e2a0                	.insn	2, 0xe2a0
    52ba:	83a2                	.insn	2, 0x83a2
    52bc:	a2e2                	.insn	2, 0xa2e2
    52be:	e29e                	.insn	2, 0xe29e
    52c0:	a0e2bda3          	.insn	4, 0xa0e2bda3
    52c4:	80a0e287          	.insn	4, 0x80a0e287
    52c8:	a0e2                	.insn	2, 0xa0e2
    52ca:	e280                	.insn	2, 0xe280
    52cc:	80a0                	.insn	2, 0x80a0
    52ce:	a0e2                	.insn	2, 0xa0e2
    52d0:	e280                	.insn	2, 0xe280
    52d2:	80a0                	.insn	2, 0x80a0
    52d4:	a0e2                	.insn	2, 0xa0e2
    52d6:	0a80                	.insn	2, 0x0a80
    52d8:	0000                	.insn	2, 0x
    52da:	0000                	.insn	2, 0x
    52dc:	a0e2                	.insn	2, 0xa0e2
    52de:	e280                	.insn	2, 0xe280
    52e0:	80a0                	.insn	2, 0x80a0
    52e2:	a0e2                	.insn	2, 0xa0e2
    52e4:	e280                	.insn	2, 0xe280
    52e6:	80a0                	.insn	2, 0x80a0
    52e8:	a0e2                	.insn	2, 0xa0e2
    52ea:	e280                	.insn	2, 0xe280
    52ec:	80a0                	.insn	2, 0x80a0
    52ee:	a0e2                	.insn	2, 0xa0e2
    52f0:	e280                	.insn	2, 0xe280
    52f2:	80a0                	.insn	2, 0x80a0
    52f4:	a2e2                	.insn	2, 0xa2e2
    52f6:	afa3e2bf e281a0e2 	.insn	8, 0xe281a0e2afa3e2bf
    52fe:	86a1                	.insn	2, 0x86a1
    5300:	a0e2                	.insn	2, 0xa0e2
    5302:	e2a1                	.insn	2, 0xe2a1
    5304:	a0e2bfa3          	.insn	4, 0xa0e2bfa3
    5308:	e29e                	.insn	2, 0xe29e
    530a:	a2e29ca3          	sh	a4,-1479(t0) # 90a0da39 <_stack_end+0x90904229>
    530e:	b9a1e2a7          	.insn	4, 0xb9a1e2a7
    5312:	a3e2                	.insn	2, 0xa3e2
    5314:	e2be                	.insn	2, 0xe2be
    5316:	a3e2bfa3          	.insn	4, 0xa3e2bfa3
    531a:	bfa3e2bf e2bfa0e2 	.insn	8, 0xe2bfa0e2bfa3e2bf
    5322:	bfa0                	.insn	2, 0xbfa0
    5324:	a0e2                	.insn	2, 0xa0e2
    5326:	b7a2e2bf e2b7a3e2 	.insn	8, 0xe2b7a3e2b7a2e2bf
    532e:	a3e2bfa3          	.insn	4, 0xa3e2bfa3
    5332:	bfa3e2bf e2bfa3e2 	.insn	8, 0xe2bfa3e2bfa3e2bf
    533a:	a0e2a7a3          	sw	a4,-1521(t0)
    533e:	e2b9                	.insn	2, 0xe2b9
    5340:	a1e29ea3          	sh	t5,-1507(t0)
    5344:	e2b1                	.insn	2, 0xe2b1
    5346:	a3a2                	.insn	2, 0xa3a2
    5348:	a3e2                	.insn	2, 0xa3e2
    534a:	80a0e2bf e2a1a1e2 	.insn	8, 0xe2a1a1e280a0e2bf
    5352:	8ea2                	.insn	2, 0x8ea2
    5354:	a3e2                	.insn	2, 0xa3e2
    5356:	e2be                	.insn	2, 0xe2be
    5358:	8fa0                	.insn	2, 0x8fa0
    535a:	a0e2                	.insn	2, 0xa0e2
    535c:	e280                	.insn	2, 0xe280
    535e:	80a0                	.insn	2, 0x80a0
    5360:	a0e2                	.insn	2, 0xa0e2
    5362:	e280                	.insn	2, 0xe280
    5364:	80a0                	.insn	2, 0x80a0
    5366:	a0e2                	.insn	2, 0xa0e2
    5368:	e280                	.insn	2, 0xe280
    536a:	80a0                	.insn	2, 0x80a0
    536c:	a0e2                	.insn	2, 0xa0e2
    536e:	0a80                	.insn	2, 0x0a80
    5370:	0000                	.insn	2, 0x
    5372:	0000                	.insn	2, 0x
    5374:	a0e2                	.insn	2, 0xa0e2
    5376:	e280                	.insn	2, 0xe280
    5378:	80a0                	.insn	2, 0x80a0
    537a:	a0e2                	.insn	2, 0xa0e2
    537c:	e280                	.insn	2, 0xe280
    537e:	80a0                	.insn	2, 0x80a0
    5380:	a0e2                	.insn	2, 0xa0e2
    5382:	e280                	.insn	2, 0xe280
    5384:	80a0                	.insn	2, 0x80a0
    5386:	a0e2                	.insn	2, 0xa0e2
    5388:	e280                	.insn	2, 0xe280
    538a:	80a0                	.insn	2, 0x80a0
    538c:	a0e2                	.insn	2, 0xa0e2
    538e:	e288                	.insn	2, 0xe288
    5390:	bfa2                	.insn	2, 0xbfa2
    5392:	a3e2                	.insn	2, 0xa3e2
    5394:	98a1e287          	.insn	4, 0x98a1e287
    5398:	a0e2                	.insn	2, 0xa0e2
    539a:	e2a0                	.insn	2, 0xe2a0
    539c:	a1e2bfa3          	.insn	4, 0xa1e2bfa3
    53a0:	bca1e29b          	.insn	4, 0xbca1e29b
    53a4:	a2e2                	.insn	2, 0xa2e2
    53a6:	e2a2                	.insn	2, 0xe2a2
    53a8:	a3e293a3          	sh	t5,-1497(t0)
    53ac:	9fa0e2bf e289a1e2 	.insn	8, 0xe289a1e29fa0e2bf
    53b4:	84a0                	.insn	2, 0x84a0
    53b6:	a3e2                	.insn	2, 0xa3e2
    53b8:	e282                	.insn	2, 0xe282
    53ba:	86a0                	.insn	2, 0x86a0
    53bc:	a2e2                	.insn	2, 0xa2e2
    53be:	e292                	.insn	2, 0xe292
    53c0:	a0a0                	.insn	2, 0xa0a0
    53c2:	a1e2                	.insn	2, 0xa1e2
    53c4:	e280                	.insn	2, 0xe280
    53c6:	8ca0                	.insn	2, 0x8ca0
    53c8:	a1e2                	.insn	2, 0xa1e2
    53ca:	e299                	.insn	2, 0xe299
    53cc:	9ba0                	.insn	2, 0x9ba0
    53ce:	a3e2                	.insn	2, 0xa3e2
    53d0:	aea3e29b          	.insn	4, 0xaea3e29b
    53d4:	a3e2                	.insn	2, 0xa3e2
    53d6:	aea0e293          	ori	t0,ra,-1302
    53da:	a3e2                	.insn	2, 0xa3e2
    53dc:	e295                	.insn	2, 0xe295
    53de:	a1e2bba3          	.insn	4, 0xa1e2bba3
    53e2:	b0a1e28f          	.insn	4, 0xb0a1e28f
    53e6:	a3e2                	.insn	2, 0xa3e2
    53e8:	e2b4                	.insn	2, 0xe2b4
    53ea:	bfa1                	.insn	2, 0xbfa1
    53ec:	a0e2                	.insn	2, 0xa0e2
    53ee:	80a0e28b          	.insn	4, 0x80a0e28b
    53f2:	a0e2                	.insn	2, 0xa0e2
    53f4:	e280                	.insn	2, 0xe280
    53f6:	80a0                	.insn	2, 0x80a0
    53f8:	a0e2                	.insn	2, 0xa0e2
    53fa:	e280                	.insn	2, 0xe280
    53fc:	80a0                	.insn	2, 0x80a0
    53fe:	a0e2                	.insn	2, 0xa0e2
    5400:	e280                	.insn	2, 0xe280
    5402:	80a0                	.insn	2, 0x80a0
    5404:	a0e2                	.insn	2, 0xa0e2
    5406:	0a80                	.insn	2, 0x0a80
    5408:	0000                	.insn	2, 0x
    540a:	0000                	.insn	2, 0x
    540c:	a0e2                	.insn	2, 0xa0e2
    540e:	e280                	.insn	2, 0xe280
    5410:	80a0                	.insn	2, 0x80a0
    5412:	a0e2                	.insn	2, 0xa0e2
    5414:	e280                	.insn	2, 0xe280
    5416:	80a0                	.insn	2, 0x80a0
    5418:	a0e2                	.insn	2, 0xa0e2
    541a:	e280                	.insn	2, 0xe280
    541c:	80a0                	.insn	2, 0x80a0
    541e:	a0e2                	.insn	2, 0xa0e2
    5420:	e280                	.insn	2, 0xe280
    5422:	80a0                	.insn	2, 0x80a0
    5424:	a0e2                	.insn	2, 0xa0e2
    5426:	e280                	.insn	2, 0xe280
    5428:	88a0                	.insn	2, 0x88a0
    542a:	a0e2                	.insn	2, 0xa0e2
    542c:	a6a3e2bb          	.insn	4, 0xa6a3e2bb
    5430:	a1e2                	.insn	2, 0xa1e2
    5432:	e284                	.insn	2, 0xe284
    5434:	bba0                	.insn	2, 0xbba0
    5436:	a3e2                	.insn	2, 0xa3e2
    5438:	87a1e2bf e2a3a2e2 	.insn	8, 0xe2a3a2e287a1e2bf
    5440:	bfa1                	.insn	2, 0xbfa1
    5442:	a0e2                	.insn	2, 0xa0e2
    5444:	a0a2e283          	.insn	4, 0xa0a2e283
    5448:	a0e2                	.insn	2, 0xa0e2
    544a:	20202083          	lw	ra,514(zero) # 202 <get_switches+0x22>
    544e:	2020                	.insn	2, 0x2020
    5450:	2020                	.insn	2, 0x2020
    5452:	2020                	.insn	2, 0x2020
    5454:	2020                	.insn	2, 0x2020
    5456:	2020                	.insn	2, 0x2020
    5458:	2020                	.insn	2, 0x2020
    545a:	2020                	.insn	2, 0x2020
    545c:	2020                	.insn	2, 0x2020
    545e:	2020                	.insn	2, 0x2020
    5460:	2020                	.insn	2, 0x2020
    5462:	2020                	.insn	2, 0x2020
    5464:	2020                	.insn	2, 0x2020
    5466:	2020                	.insn	2, 0x2020
    5468:	2020                	.insn	2, 0x2020
    546a:	2020                	.insn	2, 0x2020
    546c:	2020                	.insn	2, 0x2020
    546e:	2020                	.insn	2, 0x2020
    5470:	2020                	.insn	2, 0x2020
    5472:	000a                	.insn	2, 0x000a
    5474:	a0e2                	.insn	2, 0xa0e2
    5476:	e280                	.insn	2, 0xe280
    5478:	80a0                	.insn	2, 0x80a0
    547a:	a0e2                	.insn	2, 0xa0e2
    547c:	e280                	.insn	2, 0xe280
    547e:	80a0                	.insn	2, 0x80a0
    5480:	a0e2                	.insn	2, 0xa0e2
    5482:	e280                	.insn	2, 0xe280
    5484:	80a0                	.insn	2, 0x80a0
    5486:	a0e2                	.insn	2, 0xa0e2
    5488:	e280                	.insn	2, 0xe280
    548a:	80a0                	.insn	2, 0x80a0
    548c:	a0e2                	.insn	2, 0xa0e2
    548e:	e280                	.insn	2, 0xe280
    5490:	80a0                	.insn	2, 0x80a0
    5492:	a0e2                	.insn	2, 0xa0e2
    5494:	e280                	.insn	2, 0xe280
    5496:	88a0                	.insn	2, 0x88a0
    5498:	a0e2                	.insn	2, 0xa0e2
    549a:	a6a3e2bb          	.insn	4, 0xa6a3e2bb
    549e:	a1e2                	.insn	2, 0xa1e2
    54a0:	e284                	.insn	2, 0xe284
    54a2:	bba0                	.insn	2, 0xbba0
    54a4:	a3e2                	.insn	2, 0xa3e2
    54a6:	87a1e2bf e2a3a2e2 	.insn	8, 0xe2a3a2e287a1e2bf
    54ae:	bfa1                	.insn	2, 0xbfa1
    54b0:	a0e2                	.insn	2, 0xa0e2
    54b2:	20202083          	lw	ra,514(zero) # 202 <get_switches+0x22>
    54b6:	2020                	.insn	2, 0x2020
    54b8:	2020                	.insn	2, 0x2020
    54ba:	2020                	.insn	2, 0x2020
    54bc:	2020                	.insn	2, 0x2020
    54be:	2020                	.insn	2, 0x2020
    54c0:	2020                	.insn	2, 0x2020
    54c2:	2020                	.insn	2, 0x2020
    54c4:	2020                	.insn	2, 0x2020
    54c6:	2020                	.insn	2, 0x2020
    54c8:	2020                	.insn	2, 0x2020
    54ca:	2020                	.insn	2, 0x2020
    54cc:	2020                	.insn	2, 0x2020
    54ce:	2020                	.insn	2, 0x2020
    54d0:	2020                	.insn	2, 0x2020
    54d2:	2020                	.insn	2, 0x2020
    54d4:	2020                	.insn	2, 0x2020
    54d6:	2020                	.insn	2, 0x2020
    54d8:	2020                	.insn	2, 0x2020
    54da:	000a                	.insn	2, 0x000a
    54dc:	6f59                	.insn	2, 0x6f59
    54de:	2775                	.insn	2, 0x2775
    54e0:	6572                	.insn	2, 0x6572
    54e2:	7420                	.insn	2, 0x7420
    54e4:	74206f6f          	jal	t5,bc26 <__global_pointer+0x761e>
    54e8:	7269                	.insn	2, 0x7269
    54ea:	6465                	.insn	2, 0x6465
    54ec:	7420                	.insn	2, 0x7420
    54ee:	6f63206f          	j	37be4 <__global_pointer+0x335dc>
    54f2:	746e                	.insn	2, 0x746e
    54f4:	6e69                	.insn	2, 0x6e69
    54f6:	6575                	.insn	2, 0x6575
    54f8:	2e2e                	.insn	2, 0x2e2e
    54fa:	202e                	.insn	2, 0x202e
    54fc:	6f59                	.insn	2, 0x6f59
    54fe:	2075                	.insn	2, 0x2075
    5500:	6166                	.insn	2, 0x6166
    5502:	6c6c                	.insn	2, 0x6c6c
    5504:	6120                	.insn	2, 0x6120
    5506:	65656c73          	csrrsi	s8,hviprio1h,10
    550a:	2070                	.insn	2, 0x2070
    550c:	7461                	.insn	2, 0x7461
    550e:	7920                	.insn	2, 0x7920
    5510:	2072756f          	jal	a0,2cf16 <__global_pointer+0x2890e>
    5514:	6564                	.insn	2, 0x6564
    5516:	0a2e6b73          	csrrsi	s6,0xa2,28
    551a:	0000                	.insn	2, 0x
    551c:	6f59                	.insn	2, 0x6f59
    551e:	2775                	.insn	2, 0x2775
    5520:	6572                	.insn	2, 0x6572
    5522:	6820                	.insn	2, 0x6820
    5524:	7461                	.insn	2, 0x7461
    5526:	6465                	.insn	2, 0x6465
    5528:	6220                	.insn	2, 0x6220
    552a:	2079                	.insn	2, 0x2079
    552c:	6c61                	.insn	2, 0x6c61
    552e:	206c                	.insn	2, 0x206c
    5530:	7920666f          	jal	a2,bcc2 <__global_pointer+0x76ba>
    5534:	2072756f          	jal	a0,2cf3a <__global_pointer+0x28932>
    5538:	6c6c6f63          	bltu	s8,t1,5c16 <__global_pointer+0x160e>
    553c:	6165                	.insn	2, 0x6165
    553e:	73657567          	.insn	4, 0x73657567
    5542:	2e2e                	.insn	2, 0x2e2e
    5544:	202e                	.insn	2, 0x202e
    5546:	6f59                	.insn	2, 0x6f59
    5548:	2075                	.insn	2, 0x2075
    554a:	20746567          	.insn	4, 0x20746567
    554e:	6966                	.insn	2, 0x6966
    5550:	6572                	.insn	2, 0x6572
    5552:	2164                	.insn	2, 0x2164
    5554:	000a                	.insn	2, 0x000a
    5556:	0000                	.insn	2, 0x
    5558:	6f59                	.insn	2, 0x6f59
    555a:	2775                	.insn	2, 0x2775
    555c:	6572                	.insn	2, 0x6572
    555e:	6220                	.insn	2, 0x6220
    5560:	6f72                	.insn	2, 0x6f72
    5562:	2e2e656b          	.insn	4, 0x2e2e656b
    5566:	202e                	.insn	2, 0x202e
    5568:	0a2e                	.insn	2, 0x0a2e
    556a:	0000                	.insn	2, 0x
    556c:	6542                	.insn	2, 0x6542
    556e:	7474                	.insn	2, 0x7474
    5570:	7265                	.insn	2, 0x7265
    5572:	6c20                	.insn	2, 0x6c20
    5574:	6375                	.insn	2, 0x6375
    5576:	656e206b          	.insn	4, 0x656e206b
    557a:	7478                	.insn	2, 0x7478
    557c:	7420                	.insn	2, 0x7420
    557e:	6d69                	.insn	2, 0x6d69
    5580:	2e65                	.insn	2, 0x2e65
    5582:	2e2e                	.insn	2, 0x2e2e
    5584:	212e                	.insn	2, 0x212e
    5586:	000a                	.insn	2, 0x000a
    5588:	a0e2                	.insn	2, 0xa0e2
    558a:	e280                	.insn	2, 0xe280
    558c:	80a0                	.insn	2, 0x80a0
    558e:	a0e2                	.insn	2, 0xa0e2
    5590:	e280                	.insn	2, 0xe280
    5592:	80a0                	.insn	2, 0x80a0
    5594:	a0e2                	.insn	2, 0xa0e2
    5596:	e280                	.insn	2, 0xe280
    5598:	80a0                	.insn	2, 0x80a0
    559a:	a0e2                	.insn	2, 0xa0e2
    559c:	e280                	.insn	2, 0xe280
    559e:	80a0                	.insn	2, 0x80a0
    55a0:	a0e2                	.insn	2, 0xa0e2
    55a2:	e280                	.insn	2, 0xe280
    55a4:	80a0                	.insn	2, 0x80a0
    55a6:	a0e2                	.insn	2, 0xa0e2
    55a8:	e280                	.insn	2, 0xe280
    55aa:	80a0                	.insn	2, 0x80a0
    55ac:	a0e2                	.insn	2, 0xa0e2
    55ae:	e280                	.insn	2, 0xe280
    55b0:	80a0                	.insn	2, 0x80a0
    55b2:	a0e2                	.insn	2, 0xa0e2
    55b4:	e280                	.insn	2, 0xe280
    55b6:	80a0                	.insn	2, 0x80a0
    55b8:	a0e2                	.insn	2, 0xa0e2
    55ba:	e280                	.insn	2, 0xe280
    55bc:	80a0                	.insn	2, 0x80a0
    55be:	a0e2                	.insn	2, 0xa0e2
    55c0:	e280                	.insn	2, 0xe280
    55c2:	80a0                	.insn	2, 0x80a0
    55c4:	a0e2                	.insn	2, 0xa0e2
    55c6:	e280                	.insn	2, 0xe280
    55c8:	80a0                	.insn	2, 0x80a0
    55ca:	a0e2                	.insn	2, 0xa0e2
    55cc:	e280                	.insn	2, 0xe280
    55ce:	80a0                	.insn	2, 0x80a0
    55d0:	a0e2                	.insn	2, 0xa0e2
    55d2:	e280                	.insn	2, 0xe280
    55d4:	80a0                	.insn	2, 0x80a0
    55d6:	a0e2                	.insn	2, 0xa0e2
    55d8:	e280                	.insn	2, 0xe280
    55da:	80a0                	.insn	2, 0x80a0
    55dc:	a0e2                	.insn	2, 0xa0e2
    55de:	e280                	.insn	2, 0xe280
    55e0:	80a0                	.insn	2, 0x80a0
    55e2:	a0e2                	.insn	2, 0xa0e2
    55e4:	e280                	.insn	2, 0xe280
    55e6:	80a0                	.insn	2, 0x80a0
    55e8:	a0e2                	.insn	2, 0xa0e2
    55ea:	e280                	.insn	2, 0xe280
    55ec:	80a0                	.insn	2, 0x80a0
    55ee:	a0e2                	.insn	2, 0xa0e2
    55f0:	e280                	.insn	2, 0xe280
    55f2:	a3e280a3          	sb	t5,-1503(t0)
    55f6:	e2a0                	.insn	2, 0xe2a0
    55f8:	80a1                	.insn	2, 0x80a1
    55fa:	a0e2                	.insn	2, 0xa0e2
    55fc:	0a80                	.insn	2, 0x0a80
    55fe:	0000                	.insn	2, 0x
    5600:	a0e2                	.insn	2, 0xa0e2
    5602:	e280                	.insn	2, 0xe280
    5604:	80a0                	.insn	2, 0x80a0
    5606:	a0e2                	.insn	2, 0xa0e2
    5608:	e280                	.insn	2, 0xe280
    560a:	80a0                	.insn	2, 0x80a0
    560c:	a0e2                	.insn	2, 0xa0e2
    560e:	e280                	.insn	2, 0xe280
    5610:	80a0                	.insn	2, 0x80a0
    5612:	a0e2                	.insn	2, 0xa0e2
    5614:	e280                	.insn	2, 0xe280
    5616:	80a0                	.insn	2, 0x80a0
    5618:	a0e2                	.insn	2, 0xa0e2
    561a:	e280                	.insn	2, 0xe280
    561c:	80a0                	.insn	2, 0x80a0
    561e:	a0e2                	.insn	2, 0xa0e2
    5620:	e280                	.insn	2, 0xe280
    5622:	80a0                	.insn	2, 0x80a0
    5624:	a0e2                	.insn	2, 0xa0e2
    5626:	e280                	.insn	2, 0xe280
    5628:	80a0                	.insn	2, 0x80a0
    562a:	a0e2                	.insn	2, 0xa0e2
    562c:	e280                	.insn	2, 0xe280
    562e:	80a0                	.insn	2, 0x80a0
    5630:	a0e2                	.insn	2, 0xa0e2
    5632:	e280                	.insn	2, 0xe280
    5634:	80a0                	.insn	2, 0x80a0
    5636:	a0e2                	.insn	2, 0xa0e2
    5638:	e280                	.insn	2, 0xe280
    563a:	80a0                	.insn	2, 0x80a0
    563c:	a0e2                	.insn	2, 0xa0e2
    563e:	e280                	.insn	2, 0xe280
    5640:	80a2                	.insn	2, 0x80a2
    5642:	a3e2                	.insn	2, 0xa3e2
    5644:	e2a4                	.insn	2, 0xe2a4
    5646:	a0e2a4a3          	sw	a4,-1527(t0)
    564a:	e280                	.insn	2, 0xe280
    564c:	80a0                	.insn	2, 0x80a0
    564e:	a0e2                	.insn	2, 0xa0e2
    5650:	e280                	.insn	2, 0xe280
    5652:	80a2                	.insn	2, 0x80a2
    5654:	a3e2                	.insn	2, 0xa3e2
    5656:	e2b4                	.insn	2, 0xe2b4
    5658:	a1e2bfa3          	.insn	4, 0xa1e2bfa3
    565c:	e2b6                	.insn	2, 0xe2b6
    565e:	80a0                	.insn	2, 0x80a0
    5660:	a3e2                	.insn	2, 0xa3e2
    5662:	e2be                	.insn	2, 0xe2be
    5664:	a3e2bfa3          	.insn	4, 0xa3e2bfa3
    5668:	bfa1e2bf e29fa0e2 	.insn	8, 0xe29fa0e2bfa1e2bf
    5670:	9ba0                	.insn	2, 0x9ba0
    5672:	a0e2                	.insn	2, 0xa0e2
    5674:	0a81                	.insn	2, 0x0a81
    5676:	0000                	.insn	2, 0x
    5678:	a0e2                	.insn	2, 0xa0e2
    567a:	e280                	.insn	2, 0xe280
    567c:	80a0                	.insn	2, 0x80a0
    567e:	a0e2                	.insn	2, 0xa0e2
    5680:	e280                	.insn	2, 0xe280
    5682:	80a0                	.insn	2, 0x80a0
    5684:	a0e2                	.insn	2, 0xa0e2
    5686:	e280                	.insn	2, 0xe280
    5688:	80a0                	.insn	2, 0x80a0
    568a:	a3e2                	.insn	2, 0xa3e2
    568c:	e280                	.insn	2, 0xe280
    568e:	a3e280a3          	sb	t5,-1503(t0)
    5692:	e284                	.insn	2, 0xe284
    5694:	a0e280a3          	sb	a4,-1535(t0)
    5698:	e280                	.insn	2, 0xe280
    569a:	80a0                	.insn	2, 0x80a0
    569c:	a0e2                	.insn	2, 0xa0e2
    569e:	e280                	.insn	2, 0xe280
    56a0:	80a0                	.insn	2, 0x80a0
    56a2:	a3e2                	.insn	2, 0xa3e2
    56a4:	e2b6                	.insn	2, 0xe2b6
    56a6:	a3e2b6a3          	.insn	4, 0xa3e2b6a3
    56aa:	e2a6                	.insn	2, 0xe2a6
    56ac:	80a0                	.insn	2, 0x80a0
    56ae:	a0e2                	.insn	2, 0xa0e2
    56b0:	e280                	.insn	2, 0xe280
    56b2:	80a0                	.insn	2, 0x80a0
    56b4:	a0e2                	.insn	2, 0xa0e2
    56b6:	e280                	.insn	2, 0xe280
    56b8:	a3e2bca3          	.insn	4, 0xa3e2bca3
    56bc:	bfa3e2bf e287a1e2 	.insn	8, 0xe287a1e2bfa3e2bf
    56c4:	80a0                	.insn	2, 0x80a0
    56c6:	a3e2                	.insn	2, 0xa3e2
    56c8:	e2a0                	.insn	2, 0xe2a0
    56ca:	a3e2bfa3          	.insn	4, 0xa3e2bfa3
    56ce:	bfa3e2bf e287a0e2 	.insn	8, 0xe287a0e2bfa3e2bf
    56d6:	a3e2b8a3          	.insn	4, 0xa3e2b8a3
    56da:	bfa3e2bf e2a7a3e2 	.insn	8, 0xe2a7a3e2bfa3e2bf
    56e2:	a0e2a4a3          	sw	a4,-1527(t0)
    56e6:	e280                	.insn	2, 0xe280
    56e8:	80a0                	.insn	2, 0x80a0
    56ea:	a0e2                	.insn	2, 0xa0e2
    56ec:	0a80                	.insn	2, 0x0a80
    56ee:	0000                	.insn	2, 0x
    56f0:	a0e2                	.insn	2, 0xa0e2
    56f2:	e280                	.insn	2, 0xe280
    56f4:	80a0                	.insn	2, 0x80a0
    56f6:	a2e2                	.insn	2, 0xa2e2
    56f8:	e280                	.insn	2, 0xe280
    56fa:	a3e2b4a3          	.insn	4, 0xa3e2b4a3
    56fe:	e2be                	.insn	2, 0xe2be
    5700:	a1e2bfa3          	.insn	4, 0xa1e2bfa3
    5704:	bfa0e2bf e2bfa0e2 	.insn	8, 0xe2bfa0e2bfa0e2bf
    570c:	bfa0                	.insn	2, 0xbfa0
    570e:	a0e2                	.insn	2, 0xa0e2
    5710:	80a0e287          	.insn	4, 0x80a0e287
    5714:	a0e2                	.insn	2, 0xa0e2
    5716:	e280                	.insn	2, 0xe280
    5718:	a3e2b8a3          	.insn	4, 0xa3e2b8a3
    571c:	bfa3e2bf e2bfa3e2 	.insn	8, 0xe2bfa3e2bfa3e2bf
    5724:	86a1                	.insn	2, 0x86a1
    5726:	a0e2                	.insn	2, 0xa0e2
    5728:	e280                	.insn	2, 0xe280
    572a:	80a0                	.insn	2, 0x80a0
    572c:	a2e2                	.insn	2, 0xa2e2
    572e:	e2b0                	.insn	2, 0xe2b0
    5730:	a3e2bfa3          	.insn	4, 0xa3e2bfa3
    5734:	bfa3e2bf e2b7a3e2 	.insn	8, 0xe2b7a3e2bfa3e2bf
    573c:	a3e2bca3          	.insn	4, 0xa3e2bca3
    5740:	bfa3e2bf e2bfa3e2 	.insn	8, 0xe2bfa3e2bfa3e2bf
    5748:	bfa1                	.insn	2, 0xbfa1
    574a:	a2e2                	.insn	2, 0xa2e2
    574c:	e280                	.insn	2, 0xe280
    574e:	a3e2bfa3          	.insn	4, 0xa3e2bfa3
    5752:	bfa1e2bf e29fa0e2 	.insn	8, 0xe29fa0e2bfa1e2bf
    575a:	9ba0                	.insn	2, 0x9ba0
    575c:	a0e2                	.insn	2, 0xa0e2
    575e:	e281                	.insn	2, 0xe281
    5760:	80a0                	.insn	2, 0x80a0
    5762:	a0e2                	.insn	2, 0xa0e2
    5764:	0a80                	.insn	2, 0x0a80
    5766:	0000                	.insn	2, 0x
    5768:	a0e2                	.insn	2, 0xa0e2
    576a:	e280                	.insn	2, 0xe280
    576c:	a3e2b4a3          	.insn	4, 0xa3e2b4a3
    5770:	bfa1e2bf e28ba0e2 	.insn	8, 0xe28ba0e2bfa1e2bf
    5778:	81a0                	.insn	2, 0x81a0
    577a:	a0e2                	.insn	2, 0xa0e2
    577c:	e280                	.insn	2, 0xe280
    577e:	80a0                	.insn	2, 0x80a0
    5780:	a0e2                	.insn	2, 0xa0e2
    5782:	e280                	.insn	2, 0xe280
    5784:	80a0                	.insn	2, 0x80a0
    5786:	a0e2                	.insn	2, 0xa0e2
    5788:	e280                	.insn	2, 0xe280
    578a:	80a0                	.insn	2, 0x80a0
    578c:	a2e2                	.insn	2, 0xa2e2
    578e:	e2a0                	.insn	2, 0xe2a0
    5790:	a3e2bfa3          	.insn	4, 0xa3e2bfa3
    5794:	b9a3e2bf e2bfa3e2 	.insn	8, 0xe2bfa3e2b9a3e2bf
    579c:	a3e2bfa3          	.insn	4, 0xa3e2bfa3
    57a0:	bfa3e2bf e2bfa3e2 	.insn	8, 0xe2bfa3e2bfa3e2bf
    57a8:	a1e2bfa3          	.insn	4, 0xa1e2bfa3
    57ac:	bba2e28f          	.insn	4, 0xbba2e28f
    57b0:	a3e2                	.insn	2, 0xa3e2
    57b2:	bfa3e2bf e2bfa2e2 	.insn	8, 0xe2bfa2e2bfa3e2bf
    57ba:	a3e2bfa3          	.insn	4, 0xa3e2bfa3
    57be:	83a0e2bf e2bca3e2 	.insn	8, 0xe2bca3e283a0e2bf
    57c6:	a3e2bfa3          	.insn	4, 0xa3e2bfa3
    57ca:	a4a3e2af          	.insn	4, 0xa4a3e2af
    57ce:	a3e2                	.insn	2, 0xa3e2
    57d0:	e2b4                	.insn	2, 0xe2b4
    57d2:	a3e2b6a3          	.insn	4, 0xa3e2b6a3
    57d6:	a4a1e2bf 0a80a0e2 	.insn	8, 0x0a80a0e2a4a1e2bf
    57de:	0000                	.insn	2, 0x
    57e0:	a3e2                	.insn	2, 0xa3e2
    57e2:	e2bc                	.insn	2, 0xe2bc
    57e4:	a0e2bfa3          	.insn	4, 0xa0e2bfa3
    57e8:	80a0e28f          	.insn	4, 0x80a0e28f
    57ec:	a3e2                	.insn	2, 0xa3e2
    57ee:	e280                	.insn	2, 0xe280
    57f0:	a3e2a0a3          	sw	t5,-1503(t0)
    57f4:	e2a4                	.insn	2, 0xe2a4
    57f6:	a3e2b6a3          	.insn	4, 0xa3e2b6a3
    57fa:	e2be                	.insn	2, 0xe2be
    57fc:	a0e2b7a3          	.insn	4, 0xa0e2b7a3
    5800:	e284                	.insn	2, 0xe284
    5802:	a3e2b0a3          	.insn	4, 0xa3e2b0a3
    5806:	bfa3e2bf e2bfa1e2 	.insn	8, 0xe2bfa1e2bfa3e2bf
    580e:	bfa0                	.insn	2, 0xbfa0
    5810:	a0e2                	.insn	2, 0xa0e2
    5812:	bfa3e2bb          	.insn	4, 0xbfa3e2bb
    5816:	a3e2                	.insn	2, 0xa3e2
    5818:	b8a3e2af          	.insn	4, 0xb8a3e2af
    581c:	a3e2                	.insn	2, 0xa3e2
    581e:	bfa1e2bf e280a0e2 	.insn	8, 0xe280a0e2bfa1e2bf
    5826:	80a0                	.insn	2, 0x80a0
    5828:	a0e2                	.insn	2, 0xa0e2
    582a:	e280                	.insn	2, 0xe280
    582c:	81a0                	.insn	2, 0x81a0
    582e:	a3e2                	.insn	2, 0xa3e2
    5830:	e2be                	.insn	2, 0xe2be
    5832:	a1e2bfa3          	.insn	4, 0xa1e2bfa3
    5836:	a0a2e28f          	.insn	4, 0xa0a2e28f
    583a:	a3e2                	.insn	2, 0xa3e2
    583c:	bfa3e2bf e2bfa0e2 	.insn	8, 0xe2bfa0e2bfa3e2bf
    5844:	9ba0                	.insn	2, 0x9ba0
    5846:	a0e2                	.insn	2, 0xa0e2
    5848:	89a0e28b          	.insn	4, 0x89a0e28b
    584c:	a0e2                	.insn	2, 0xa0e2
    584e:	e280                	.insn	2, 0xe280
    5850:	80a0                	.insn	2, 0x80a0
    5852:	a0e2                	.insn	2, 0xa0e2
    5854:	0a80                	.insn	2, 0x0a80
    5856:	0000                	.insn	2, 0x
    5858:	a3e2                	.insn	2, 0xa3e2
    585a:	bfa3e2bf e2b2a0e2 	.insn	8, 0xe2b2a0e2bfa3e2bf
    5862:	bfa2                	.insn	2, 0xbfa2
    5864:	a3e2                	.insn	2, 0xa3e2
    5866:	bfa3e2bf e2bfa3e2 	.insn	8, 0xe2bfa3e2bfa3e2bf
    586e:	a1e2bfa3          	.insn	4, 0xa1e2bfa3
    5872:	8ba0e2bf e2b0a2e2 	.insn	8, 0xe2b0a2e28ba0e2bf
    587a:	a3e2bfa3          	.insn	4, 0xa3e2bfa3
    587e:	8ba0e2bf e280a0e2 	.insn	8, 0xe280a0e28ba0e2bf
    5886:	80a0                	.insn	2, 0x80a0
    5888:	a0e2                	.insn	2, 0xa0e2
    588a:	e280                	.insn	2, 0xe280
    588c:	bba2                	.insn	2, 0xbba2
    588e:	a3e2                	.insn	2, 0xa3e2
    5890:	bfa3e2bf e2bfa3e2 	.insn	8, 0xe2bfa3e2bfa3e2bf
    5898:	87a0                	.insn	2, 0x87a0
    589a:	a0e2                	.insn	2, 0xa0e2
    589c:	e280                	.insn	2, 0xe280
    589e:	80a0                	.insn	2, 0x80a0
    58a0:	a0e2                	.insn	2, 0xa0e2
    58a2:	e280                	.insn	2, 0xe280
    58a4:	80a0                	.insn	2, 0x80a0
    58a6:	a0e2                	.insn	2, 0xa0e2
    58a8:	e299                	.insn	2, 0xe299
    58aa:	9ba0                	.insn	2, 0x9ba0
    58ac:	a0e2                	.insn	2, 0xa0e2
    58ae:	e280                	.insn	2, 0xe280
    58b0:	80a0                	.insn	2, 0x80a0
    58b2:	a0e2                	.insn	2, 0xa0e2
    58b4:	e289                	.insn	2, 0xe289
    58b6:	81a0                	.insn	2, 0x81a0
    58b8:	a0e2                	.insn	2, 0xa0e2
    58ba:	e280                	.insn	2, 0xe280
    58bc:	80a0                	.insn	2, 0x80a0
    58be:	a0e2                	.insn	2, 0xa0e2
    58c0:	e280                	.insn	2, 0xe280
    58c2:	80a0                	.insn	2, 0x80a0
    58c4:	a0e2                	.insn	2, 0xa0e2
    58c6:	e280                	.insn	2, 0xe280
    58c8:	80a0                	.insn	2, 0x80a0
    58ca:	a0e2                	.insn	2, 0xa0e2
    58cc:	0a80                	.insn	2, 0x0a80
    58ce:	0000                	.insn	2, 0x
    58d0:	a0e2                	.insn	2, 0xa0e2
    58d2:	e2b9                	.insn	2, 0xe2b9
    58d4:	bfa2                	.insn	2, 0xbfa2
    58d6:	a3e2                	.insn	2, 0xa3e2
    58d8:	b6a3e2b7          	lui	t0,0xb6a3e
    58dc:	a3e2                	.insn	2, 0xa3e2
    58de:	bfa3e2bf e2bfa0e2 	.insn	8, 0xe2bfa0e2bfa3e2bf
    58e6:	8ba0                	.insn	2, 0x8ba0
    58e8:	a0e2                	.insn	2, 0xa0e2
    58ea:	e280                	.insn	2, 0xe280
    58ec:	80a0                	.insn	2, 0x80a0
    58ee:	a0e2                	.insn	2, 0xa0e2
    58f0:	e288                	.insn	2, 0xe288
    58f2:	99a0                	.insn	2, 0x99a0
    58f4:	a0e2                	.insn	2, 0xa0e2
    58f6:	80a0e283          	.insn	4, 0x80a0e283
    58fa:	a0e2                	.insn	2, 0xa0e2
    58fc:	e280                	.insn	2, 0xe280
    58fe:	80a0                	.insn	2, 0x80a0
    5900:	a0e2                	.insn	2, 0xa0e2
    5902:	e280                	.insn	2, 0xe280
    5904:	80a0                	.insn	2, 0x80a0
    5906:	a0e2                	.insn	2, 0xa0e2
    5908:	e281                	.insn	2, 0xe281
    590a:	80a0                	.insn	2, 0x80a0
    590c:	a0e2                	.insn	2, 0xa0e2
    590e:	e280                	.insn	2, 0xe280
    5910:	80a0                	.insn	2, 0x80a0
    5912:	a0e2                	.insn	2, 0xa0e2
    5914:	e280                	.insn	2, 0xe280
    5916:	80a0                	.insn	2, 0x80a0
    5918:	a0e2                	.insn	2, 0xa0e2
    591a:	e280                	.insn	2, 0xe280
    591c:	80a0                	.insn	2, 0x80a0
    591e:	a0e2                	.insn	2, 0xa0e2
    5920:	e280                	.insn	2, 0xe280
    5922:	80a0                	.insn	2, 0x80a0
    5924:	a0e2                	.insn	2, 0xa0e2
    5926:	e280                	.insn	2, 0xe280
    5928:	80a0                	.insn	2, 0x80a0
    592a:	a0e2                	.insn	2, 0xa0e2
    592c:	e280                	.insn	2, 0xe280
    592e:	80a0                	.insn	2, 0x80a0
    5930:	a0e2                	.insn	2, 0xa0e2
    5932:	e280                	.insn	2, 0xe280
    5934:	80a0                	.insn	2, 0x80a0
    5936:	a0e2                	.insn	2, 0xa0e2
    5938:	e280                	.insn	2, 0xe280
    593a:	80a0                	.insn	2, 0x80a0
    593c:	a0e2                	.insn	2, 0xa0e2
    593e:	e280                	.insn	2, 0xe280
    5940:	80a0                	.insn	2, 0x80a0
    5942:	a0e2                	.insn	2, 0xa0e2
    5944:	0a80                	.insn	2, 0x0a80
    5946:	0000                	.insn	2, 0x
    5948:	a0e2                	.insn	2, 0xa0e2
    594a:	e280                	.insn	2, 0xe280
    594c:	80a0                	.insn	2, 0x80a0
    594e:	a0e2                	.insn	2, 0xa0e2
    5950:	e288                	.insn	2, 0xe288
    5952:	89a0                	.insn	2, 0x89a0
    5954:	a0e2                	.insn	2, 0xa0e2
    5956:	e281                	.insn	2, 0xe281
    5958:	80a0                	.insn	2, 0x80a0
    595a:	a0e2                	.insn	2, 0xa0e2
    595c:	e280                	.insn	2, 0xe280
    595e:	80a0                	.insn	2, 0x80a0
    5960:	a0e2                	.insn	2, 0xa0e2
    5962:	e280                	.insn	2, 0xe280
    5964:	80a0                	.insn	2, 0x80a0
    5966:	a0e2                	.insn	2, 0xa0e2
    5968:	e280                	.insn	2, 0xe280
    596a:	80a0                	.insn	2, 0x80a0
    596c:	a0e2                	.insn	2, 0xa0e2
    596e:	e280                	.insn	2, 0xe280
    5970:	80a0                	.insn	2, 0x80a0
    5972:	a0e2                	.insn	2, 0xa0e2
    5974:	e280                	.insn	2, 0xe280
    5976:	80a0                	.insn	2, 0x80a0
    5978:	a0e2                	.insn	2, 0xa0e2
    597a:	e280                	.insn	2, 0xe280
    597c:	80a0                	.insn	2, 0x80a0
    597e:	a0e2                	.insn	2, 0xa0e2
    5980:	e280                	.insn	2, 0xe280
    5982:	80a0                	.insn	2, 0x80a0
    5984:	a0e2                	.insn	2, 0xa0e2
    5986:	e280                	.insn	2, 0xe280
    5988:	80a0                	.insn	2, 0x80a0
    598a:	a0e2                	.insn	2, 0xa0e2
    598c:	e280                	.insn	2, 0xe280
    598e:	80a0                	.insn	2, 0x80a0
    5990:	a0e2                	.insn	2, 0xa0e2
    5992:	e280                	.insn	2, 0xe280
    5994:	80a0                	.insn	2, 0x80a0
    5996:	a0e2                	.insn	2, 0xa0e2
    5998:	e280                	.insn	2, 0xe280
    599a:	80a0                	.insn	2, 0x80a0
    599c:	a0e2                	.insn	2, 0xa0e2
    599e:	e280                	.insn	2, 0xe280
    59a0:	80a0                	.insn	2, 0x80a0
    59a2:	a3e2                	.insn	2, 0xa3e2
    59a4:	e280                	.insn	2, 0xe280
    59a6:	a3e2a4a3          	sw	t5,-1495(t0) # b6a3da29 <_stack_end+0xb6934219>
    59aa:	e2a4                	.insn	2, 0xe2a4
    59ac:	a3e2b4a3          	.insn	4, 0xa3e2b4a3
    59b0:	e2b6                	.insn	2, 0xe2b6
    59b2:	a3e2a6a3          	sw	t5,-1491(t0)
    59b6:	e2a4                	.insn	2, 0xe2a4
    59b8:	80a1                	.insn	2, 0x80a1
    59ba:	a0e2                	.insn	2, 0xa0e2
    59bc:	0a80                	.insn	2, 0x0a80
    59be:	0000                	.insn	2, 0x
    59c0:	a0e2                	.insn	2, 0xa0e2
    59c2:	e280                	.insn	2, 0xe280
    59c4:	80a0                	.insn	2, 0x80a0
    59c6:	a0e2                	.insn	2, 0xa0e2
    59c8:	e280                	.insn	2, 0xe280
    59ca:	80a0                	.insn	2, 0x80a0
    59cc:	a0e2                	.insn	2, 0xa0e2
    59ce:	e280                	.insn	2, 0xe280
    59d0:	80a0                	.insn	2, 0x80a0
    59d2:	a0e2                	.insn	2, 0xa0e2
    59d4:	e280                	.insn	2, 0xe280
    59d6:	80a0                	.insn	2, 0x80a0
    59d8:	a0e2                	.insn	2, 0xa0e2
    59da:	e280                	.insn	2, 0xe280
    59dc:	80a0                	.insn	2, 0x80a0
    59de:	a0e2                	.insn	2, 0xa0e2
    59e0:	e280                	.insn	2, 0xe280
    59e2:	80a0                	.insn	2, 0x80a0
    59e4:	a3e2                	.insn	2, 0xa3e2
    59e6:	e280                	.insn	2, 0xe280
    59e8:	80a1                	.insn	2, 0x80a1
    59ea:	a0e2                	.insn	2, 0xa0e2
    59ec:	e280                	.insn	2, 0xe280
    59ee:	80a0                	.insn	2, 0x80a0
    59f0:	a0e2                	.insn	2, 0xa0e2
    59f2:	e280                	.insn	2, 0xe280
    59f4:	80a0                	.insn	2, 0x80a0
    59f6:	a0e2                	.insn	2, 0xa0e2
    59f8:	e280                	.insn	2, 0xe280
    59fa:	80a0                	.insn	2, 0x80a0
    59fc:	a0e2                	.insn	2, 0xa0e2
    59fe:	e280                	.insn	2, 0xe280
    5a00:	a1e2a0a3          	sw	t5,-1535(t0)
    5a04:	b0a2e287          	.insn	4, 0xb0a2e287
    5a08:	a3e2                	.insn	2, 0xa3e2
    5a0a:	e2b6                	.insn	2, 0xe2b6
    5a0c:	a3e2b6a3          	.insn	4, 0xa3e2b6a3
    5a10:	e2be                	.insn	2, 0xe2be
    5a12:	bfa1                	.insn	2, 0xbfa1
    5a14:	a0e2                	.insn	2, 0xa0e2
    5a16:	bfa3e2b7          	lui	t0,0xbfa3e
    5a1a:	a3e2                	.insn	2, 0xa3e2
    5a1c:	bfa3e2bf e29fa1e2 	.insn	8, 0xe29fa1e2bfa3e2bf
    5a24:	9ba0                	.insn	2, 0x9ba0
    5a26:	a3e2                	.insn	2, 0xa3e2
    5a28:	e289                	.insn	2, 0xe289
    5a2a:	a3e2bfa3          	.insn	4, 0xa3e2bfa3
    5a2e:	bfa3e2bf 0a86a0e2 	.insn	8, 0x0a86a0e2bfa3e2bf
    5a36:	0000                	.insn	2, 0x
    5a38:	a0e2                	.insn	2, 0xa0e2
    5a3a:	e280                	.insn	2, 0xe280
    5a3c:	80a0                	.insn	2, 0x80a0
    5a3e:	a0e2                	.insn	2, 0xa0e2
    5a40:	e280                	.insn	2, 0xe280
    5a42:	80a0                	.insn	2, 0x80a0
    5a44:	a0e2                	.insn	2, 0xa0e2
    5a46:	e280                	.insn	2, 0xe280
    5a48:	80a0                	.insn	2, 0x80a0
    5a4a:	a2e2                	.insn	2, 0xa2e2
    5a4c:	e280                	.insn	2, 0xe280
    5a4e:	a3e2a4a3          	sw	t5,-1495(t0) # bfa3da29 <_stack_end+0xbf934219>
    5a52:	e2b6                	.insn	2, 0xe2b6
    5a54:	a3e2bfa3          	.insn	4, 0xa3e2bfa3
    5a58:	8ea1e2bf e2bfa3e2 	.insn	8, 0xe2bfa3e28ea1e2bf
    5a60:	a3e2bfa3          	.insn	4, 0xa3e2bfa3
    5a64:	e2a6                	.insn	2, 0xe2a6
    5a66:	80a0                	.insn	2, 0x80a0
    5a68:	a0e2                	.insn	2, 0xa0e2
    5a6a:	e280                	.insn	2, 0xe280
    5a6c:	80a0                	.insn	2, 0x80a0
    5a6e:	a2e2                	.insn	2, 0xa2e2
    5a70:	e280                	.insn	2, 0xe280
    5a72:	a3e2a4a3          	sw	t5,-1495(t0)
    5a76:	e2be                	.insn	2, 0xe2be
    5a78:	9fa0                	.insn	2, 0x9fa0
    5a7a:	a2e2                	.insn	2, 0xa2e2
    5a7c:	e280                	.insn	2, 0xe280
    5a7e:	a3e2bfa3          	.insn	4, 0xa3e2bfa3
    5a82:	9fa1e2bf e281a3e2 	.insn	8, 0xe281a3e29fa1e2bf
    5a8a:	80a0                	.insn	2, 0x80a0
    5a8c:	a0e2                	.insn	2, 0xa0e2
    5a8e:	e280                	.insn	2, 0xe280
    5a90:	a3e2b8a3          	.insn	4, 0xa3e2b8a3
    5a94:	bfa3e2bf e2a4a3e2 	.insn	8, 0xe2a4a3e2bfa3e2bf
    5a9c:	a3e2bea3          	.insn	4, 0xa3e2bea3
    5aa0:	bfa1e2bf e29ba0e2 	.insn	8, 0xe29ba0e2bfa1e2bf
    5aa8:	81a0                	.insn	2, 0x81a0
    5aaa:	a0e2                	.insn	2, 0xa0e2
    5aac:	0a80                	.insn	2, 0x0a80
    5aae:	0000                	.insn	2, 0x
    5ab0:	a0e2                	.insn	2, 0xa0e2
    5ab2:	e280                	.insn	2, 0xe280
    5ab4:	80a0                	.insn	2, 0x80a0
    5ab6:	a0e2                	.insn	2, 0xa0e2
    5ab8:	e280                	.insn	2, 0xe280
    5aba:	80a0                	.insn	2, 0x80a0
    5abc:	a3e2                	.insn	2, 0xa3e2
    5abe:	e2a0                	.insn	2, 0xe2a0
    5ac0:	a3e2bea3          	.insn	4, 0xa3e2bea3
    5ac4:	bfa1e2bf e29ba0e2 	.insn	8, 0xe29ba0e2bfa1e2bf
    5acc:	89a0                	.insn	2, 0x89a0
    5ace:	a2e2                	.insn	2, 0xa2e2
    5ad0:	a6a3e2bf e298a0e2 	.insn	8, 0xe298a0e2a6a3e2bf
    5ad8:	a3e2bfa3          	.insn	4, 0xa3e2bfa3
    5adc:	86a1e2bf e280a0e2 	.insn	8, 0xe280a0e286a1e2bf
    5ae4:	a0a2                	.insn	2, 0xa0a2
    5ae6:	a3e2                	.insn	2, 0xa3e2
    5ae8:	e2be                	.insn	2, 0xe2be
    5aea:	a0e2bfa3          	.insn	4, 0xa0e2bfa3
    5aee:	80a0e28b          	.insn	4, 0x80a0e28b
    5af2:	a3e2                	.insn	2, 0xa3e2
    5af4:	e2bc                	.insn	2, 0xe2bc
    5af6:	a3e2bfa3          	.insn	4, 0xa3e2bfa3
    5afa:	bfa3e2bf e2bfa0e2 	.insn	8, 0xe2bfa0e2bfa3e2bf
    5b02:	b7a0                	.insn	2, 0xb7a0
    5b04:	a2e2                	.insn	2, 0xa2e2
    5b06:	e2a0                	.insn	2, 0xe2a0
    5b08:	a3e2bfa3          	.insn	4, 0xa3e2bfa3
    5b0c:	bfa3e2bf e2bfa0e2 	.insn	8, 0xe2bfa0e2bfa3e2bf
    5b14:	bba2                	.insn	2, 0xbba2
    5b16:	a3e2                	.insn	2, 0xa3e2
    5b18:	a7a3e2bf e280a0e2 	.insn	8, 0xe280a0e2a7a3e2bf
    5b20:	80a0                	.insn	2, 0x80a0
    5b22:	a0e2                	.insn	2, 0xa0e2
    5b24:	0a80                	.insn	2, 0x0a80
    5b26:	0000                	.insn	2, 0x
    5b28:	a0e2                	.insn	2, 0xa0e2
    5b2a:	e280                	.insn	2, 0xe280
    5b2c:	80a0                	.insn	2, 0x80a0
    5b2e:	a0e2                	.insn	2, 0xa0e2
    5b30:	e280                	.insn	2, 0xe280
    5b32:	a3e2b4a3          	.insn	4, 0xa3e2b4a3
    5b36:	bfa3e2bf e28ba0e2 	.insn	8, 0xe28ba0e2bfa3e2bf
    5b3e:	80a0                	.insn	2, 0x80a0
    5b40:	a0e2                	.insn	2, 0xa0e2
    5b42:	e280                	.insn	2, 0xe280
    5b44:	80a0                	.insn	2, 0x80a0
    5b46:	a2e2                	.insn	2, 0xa2e2
    5b48:	e2b8                	.insn	2, 0xe2b8
    5b4a:	a3e2bfa3          	.insn	4, 0xa3e2bfa3
    5b4e:	b9a2e287          	.insn	4, 0xb9a2e287
    5b52:	a3e2                	.insn	2, 0xa3e2
    5b54:	b7a3e2bf e2b0a3e2 	.insn	8, 0xe2b0a3e2b7a3e2bf
    5b5c:	a3e2bfa3          	.insn	4, 0xa3e2bfa3
    5b60:	83a0e2bf e280a0e2 	.insn	8, 0xe280a0e283a0e2bf
    5b68:	a0a2                	.insn	2, 0xa0a2
    5b6a:	a3e2                	.insn	2, 0xa3e2
    5b6c:	bfa3e2bf e283a2e2 	.insn	8, 0xe283a2e2bfa3e2bf
    5b74:	a3e280a3          	sb	t5,-1503(t0)
    5b78:	e2a4                	.insn	2, 0xe2a4
    5b7a:	a3e2a4a3          	sw	t5,-1495(t0)
    5b7e:	e2be                	.insn	2, 0xe2be
    5b80:	a1e2bfa3          	.insn	4, 0xa1e2bfa3
    5b84:	e29f 80a0 a0e2      	.insn	6, 0xa0e280a0e29f
    5b8a:	e280                	.insn	2, 0xe280
    5b8c:	80a0                	.insn	2, 0x80a0
    5b8e:	a2e2                	.insn	2, 0xa2e2
    5b90:	bfa3e2bb          	.insn	4, 0xbfa3e2bb
    5b94:	a3e2                	.insn	2, 0xa3e2
    5b96:	e286                	.insn	2, 0xe286
    5b98:	80a0                	.insn	2, 0x80a0
    5b9a:	a0e2                	.insn	2, 0xa0e2
    5b9c:	0a80                	.insn	2, 0x0a80
    5b9e:	0000                	.insn	2, 0x
    5ba0:	a0e2                	.insn	2, 0xa0e2
    5ba2:	e280                	.insn	2, 0xe280
    5ba4:	80a0                	.insn	2, 0x80a0
    5ba6:	a0e2                	.insn	2, 0xa0e2
    5ba8:	e280                	.insn	2, 0xe280
    5baa:	a3e2bfa3          	.insn	4, 0xa3e2bfa3
    5bae:	87a1e2bf e280a0e2 	.insn	8, 0xe280a0e287a1e2bf
    5bb6:	80a0                	.insn	2, 0x80a0
    5bb8:	a2e2                	.insn	2, 0xa2e2
    5bba:	e280                	.insn	2, 0xe280
    5bbc:	a3e2b4a3          	.insn	4, 0xa3e2b4a3
    5bc0:	bfa3e2bf e29fa1e2 	.insn	8, 0xe29fa1e2bfa3e2bf
    5bc8:	80a0                	.insn	2, 0x80a0
    5bca:	a3e2                	.insn	2, 0xa3e2
    5bcc:	bfa3e2bf e2bfa3e2 	.insn	8, 0xe2bfa3e2bfa3e2bf
    5bd4:	a0e2bfa3          	.insn	4, 0xa0e2bfa3
    5bd8:	80a0e283          	.insn	4, 0x80a0e283
    5bdc:	a0e2                	.insn	2, 0xa0e2
    5bde:	e280                	.insn	2, 0xe280
    5be0:	a3e2bea3          	.insn	4, 0xa3e2bea3
    5be4:	bfa3e2bf e2bfa1e2 	.insn	8, 0xe2bfa1e2bfa3e2bf
    5bec:	bfa0                	.insn	2, 0xbfa0
    5bee:	a0e2                	.insn	2, 0xa0e2
    5bf0:	9ba2e29b          	.insn	4, 0x9ba2e29b
    5bf4:	a3e2                	.insn	2, 0xa3e2
    5bf6:	9fa1e2bf e280a0e2 	.insn	8, 0xe280a0e29fa1e2bf
    5bfe:	80a0                	.insn	2, 0x80a0
    5c00:	a0e2                	.insn	2, 0xa0e2
    5c02:	e280                	.insn	2, 0xe280
    5c04:	80a0                	.insn	2, 0x80a0
    5c06:	a0e2                	.insn	2, 0xa0e2
    5c08:	e280                	.insn	2, 0xe280
    5c0a:	bba0                	.insn	2, 0xbba0
    5c0c:	a0e2                	.insn	2, 0xa0e2
    5c0e:	80a0e2bf 0a80a0e2 	.insn	8, 0x0a80a0e280a0e2bf
    5c16:	0000                	.insn	2, 0x
    5c18:	a0e2                	.insn	2, 0xa0e2
    5c1a:	e280                	.insn	2, 0xe280
    5c1c:	80a0                	.insn	2, 0x80a0
    5c1e:	a0e2                	.insn	2, 0xa0e2
    5c20:	e280                	.insn	2, 0xe280
    5c22:	b9a0                	.insn	2, 0xb9a0
    5c24:	a3e2                	.insn	2, 0xa3e2
    5c26:	bfa3e2bf e2b6a3e2 	.insn	8, 0xe2b6a3e2bfa3e2bf
    5c2e:	a3e2bea3          	.insn	4, 0xa3e2bea3
    5c32:	bfa3e2bf e2bfa3e2 	.insn	8, 0xe2bfa3e2bfa3e2bf
    5c3a:	9fa0                	.insn	2, 0x9fa0
    5c3c:	a0e2                	.insn	2, 0xa0e2
    5c3e:	e281                	.insn	2, 0xe281
    5c40:	80a0                	.insn	2, 0x80a0
    5c42:	a0e2                	.insn	2, 0xa0e2
    5c44:	e2b8                	.insn	2, 0xe2b8
    5c46:	bfa2                	.insn	2, 0xbfa2
    5c48:	a3e2                	.insn	2, 0xa3e2
    5c4a:	87a0e2bf e280a0e2 	.insn	8, 0xe280a0e287a0e2bf
    5c52:	80a0                	.insn	2, 0x80a0
    5c54:	a0e2                	.insn	2, 0xa0e2
    5c56:	e280                	.insn	2, 0xe280
    5c58:	9ba0                	.insn	2, 0x9ba0
    5c5a:	a0e2                	.insn	2, 0xa0e2
    5c5c:	81a0e29b          	.insn	4, 0x81a0e29b
    5c60:	a0e2                	.insn	2, 0xa0e2
    5c62:	e280                	.insn	2, 0xe280
    5c64:	80a0                	.insn	2, 0x80a0
    5c66:	a0e2                	.insn	2, 0xa0e2
    5c68:	e280                	.insn	2, 0xe280
    5c6a:	80a0                	.insn	2, 0x80a0
    5c6c:	a0e2                	.insn	2, 0xa0e2
    5c6e:	e280                	.insn	2, 0xe280
    5c70:	81a0                	.insn	2, 0x81a0
    5c72:	a0e2                	.insn	2, 0xa0e2
    5c74:	e280                	.insn	2, 0xe280
    5c76:	80a0                	.insn	2, 0x80a0
    5c78:	a0e2                	.insn	2, 0xa0e2
    5c7a:	e280                	.insn	2, 0xe280
    5c7c:	80a0                	.insn	2, 0x80a0
    5c7e:	a0e2                	.insn	2, 0xa0e2
    5c80:	e280                	.insn	2, 0xe280
    5c82:	80a0                	.insn	2, 0x80a0
    5c84:	a0e2                	.insn	2, 0xa0e2
    5c86:	e280                	.insn	2, 0xe280
    5c88:	80a0                	.insn	2, 0x80a0
    5c8a:	a0e2                	.insn	2, 0xa0e2
    5c8c:	0a80                	.insn	2, 0x0a80
    5c8e:	0000                	.insn	2, 0x
    5c90:	a0e2                	.insn	2, 0xa0e2
    5c92:	e280                	.insn	2, 0xe280
    5c94:	80a0                	.insn	2, 0x80a0
    5c96:	a0e2                	.insn	2, 0xa0e2
    5c98:	e280                	.insn	2, 0xe280
    5c9a:	80a0                	.insn	2, 0x80a0
    5c9c:	a0e2                	.insn	2, 0xa0e2
    5c9e:	e288                	.insn	2, 0xe288
    5ca0:	99a0                	.insn	2, 0x99a0
    5ca2:	a0e2                	.insn	2, 0xa0e2
    5ca4:	9ba0e29b          	.insn	4, 0x9ba0e29b
    5ca8:	a0e2                	.insn	2, 0xa0e2
    5caa:	8ba0e29b          	.insn	4, 0x8ba0e29b
    5cae:	a0e2                	.insn	2, 0xa0e2
    5cb0:	e281                	.insn	2, 0xe281
    5cb2:	80a0                	.insn	2, 0x80a0
    5cb4:	a0e2                	.insn	2, 0xa0e2
    5cb6:	e280                	.insn	2, 0xe280
    5cb8:	80a0                	.insn	2, 0x80a0
    5cba:	a0e2                	.insn	2, 0xa0e2
    5cbc:	e280                	.insn	2, 0xe280
    5cbe:	80a0                	.insn	2, 0x80a0
    5cc0:	a0e2                	.insn	2, 0xa0e2
    5cc2:	e280                	.insn	2, 0xe280
    5cc4:	80a0                	.insn	2, 0x80a0
    5cc6:	a0e2                	.insn	2, 0xa0e2
    5cc8:	e280                	.insn	2, 0xe280
    5cca:	80a0                	.insn	2, 0x80a0
    5ccc:	a0e2                	.insn	2, 0xa0e2
    5cce:	e280                	.insn	2, 0xe280
    5cd0:	80a0                	.insn	2, 0x80a0
    5cd2:	a0e2                	.insn	2, 0xa0e2
    5cd4:	e280                	.insn	2, 0xe280
    5cd6:	80a0                	.insn	2, 0x80a0
    5cd8:	a0e2                	.insn	2, 0xa0e2
    5cda:	e280                	.insn	2, 0xe280
    5cdc:	80a0                	.insn	2, 0x80a0
    5cde:	a0e2                	.insn	2, 0xa0e2
    5ce0:	e280                	.insn	2, 0xe280
    5ce2:	80a0                	.insn	2, 0x80a0
    5ce4:	a0e2                	.insn	2, 0xa0e2
    5ce6:	e280                	.insn	2, 0xe280
    5ce8:	80a0                	.insn	2, 0x80a0
    5cea:	a0e2                	.insn	2, 0xa0e2
    5cec:	e280                	.insn	2, 0xe280
    5cee:	80a0                	.insn	2, 0x80a0
    5cf0:	a0e2                	.insn	2, 0xa0e2
    5cf2:	e280                	.insn	2, 0xe280
    5cf4:	80a0                	.insn	2, 0x80a0
    5cf6:	a0e2                	.insn	2, 0xa0e2
    5cf8:	e280                	.insn	2, 0xe280
    5cfa:	80a0                	.insn	2, 0x80a0
    5cfc:	a0e2                	.insn	2, 0xa0e2
    5cfe:	e280                	.insn	2, 0xe280
    5d00:	80a0                	.insn	2, 0x80a0
    5d02:	a0e2                	.insn	2, 0xa0e2
    5d04:	0a80                	.insn	2, 0x0a80
    5d06:	0000                	.insn	2, 0x
    5d08:	6954                	.insn	2, 0x6954
    5d0a:	656d                	.insn	2, 0x656d
    5d0c:	7420                	.insn	2, 0x7420
    5d0e:	7264206f          	j	48434 <__global_pointer+0x43e2c>
    5d12:	7669                	.insn	2, 0x7669
    5d14:	2065                	.insn	2, 0x2065
    5d16:	6f74                	.insn	2, 0x6f74
    5d18:	7720                	.insn	2, 0x7720
    5d1a:	0a6b726f          	jal	tp,bcdc0 <__global_pointer+0xb87b8>
    5d1e:	6c46                	.insn	2, 0x6c46
    5d20:	7069                	.insn	2, 0x7069
    5d22:	5320                	.insn	2, 0x5320
    5d24:	20394957          	.insn	4, 0x20394957
    5d28:	6f74                	.insn	2, 0x6f74
    5d2a:	7420                	.insn	2, 0x7420
    5d2c:	7275                	.insn	2, 0x7275
    5d2e:	206e                	.insn	2, 0x206e
    5d30:	656c                	.insn	2, 0x656c
    5d32:	7466                	.insn	2, 0x7466
    5d34:	6120                	.insn	2, 0x6120
    5d36:	646e                	.insn	2, 0x646e
    5d38:	5320                	.insn	2, 0x5320
    5d3a:	20304957          	.insn	4, 0x20304957
    5d3e:	6f74                	.insn	2, 0x6f74
    5d40:	7420                	.insn	2, 0x7420
    5d42:	7275                	.insn	2, 0x7275
    5d44:	206e                	.insn	2, 0x206e
    5d46:	6972                	.insn	2, 0x6972
    5d48:	2e746867          	.insn	4, 0x2e746867
    5d4c:	410a                	.insn	2, 0x410a
    5d4e:	6f76                	.insn	2, 0x6f76
    5d50:	6469                	.insn	2, 0x6469
    5d52:	7420                	.insn	2, 0x7420
    5d54:	6568                	.insn	2, 0x6568
    5d56:	6320                	.insn	2, 0x6320
    5d58:	7261                	.insn	2, 0x7261
    5d5a:	000a2e73          	csrrs	t3,ustatus,s4
    5d5e:	0000                	.insn	2, 0x
    5d60:	6f59                	.insn	2, 0x6f59
    5d62:	2075                	.insn	2, 0x2075
    5d64:	7261                	.insn	2, 0x7261
    5d66:	2065                	.insn	2, 0x2065
    5d68:	616c                	.insn	2, 0x616c
    5d6a:	6574                	.insn	2, 0x6574
    5d6c:	6620                	.insn	2, 0x6620
    5d6e:	7720726f          	jal	tp,d4e0 <__global_pointer+0x8ed8>
    5d72:	2c6b726f          	jal	tp,bd038 <__global_pointer+0xb8a30>
    5d76:	7320                	.insn	2, 0x7320
    5d78:	6f79206f          	j	98c6e <__global_pointer+0x94666>
    5d7c:	2075                	.insn	2, 0x2075
    5d7e:	6168                	.insn	2, 0x6168
    5d80:	6576                	.insn	2, 0x6576
    5d82:	7420                	.insn	2, 0x7420
    5d84:	7264206f          	j	484aa <__global_pointer+0x43ea2>
    5d88:	7669                	.insn	2, 0x7669
    5d8a:	2065                	.insn	2, 0x2065
    5d8c:	7865                	.insn	2, 0x7865
    5d8e:	7274                	.insn	2, 0x7274
    5d90:	2061                	.insn	2, 0x2061
    5d92:	6166                	.insn	2, 0x6166
    5d94:	21217473          	csrrci	s0,0x212,2
    5d98:	0021                	.insn	2, 0x0021
    5d9a:	0000                	.insn	2, 0x
    5d9c:	6f59                	.insn	2, 0x6f59
    5d9e:	2075                	.insn	2, 0x2075
    5da0:	73617263          	bgeu	sp,s6,64c4 <__global_pointer+0x1ebc>
    5da4:	6568                	.insn	2, 0x6568
    5da6:	2064                	.insn	2, 0x2064
    5da8:	0000                	.insn	2, 0x
    5daa:	0000                	.insn	2, 0x
    5dac:	7420                	.insn	2, 0x7420
    5dae:	6d69                	.insn	2, 0x6d69
    5db0:	7365                	.insn	2, 0x7365
    5db2:	6120                	.insn	2, 0x6120
    5db4:	646e                	.insn	2, 0x646e
    5db6:	6520                	.insn	2, 0x6520
    5db8:	6361                	.insn	2, 0x6361
    5dba:	2068                	.insn	2, 0x2068
    5dbc:	73617263          	bgeu	sp,s6,64e0 <__global_pointer+0x1ed8>
    5dc0:	2068                	.insn	2, 0x2068
    5dc2:	74736f63          	bltu	t1,t2,6520 <__global_pointer+0x1f18>
    5dc6:	6465                	.insn	2, 0x6465
    5dc8:	3120                	.insn	2, 0x3120
    5dca:	3030                	.insn	2, 0x3030
    5dcc:	6320                	.insn	2, 0x6320
    5dce:	7275                	.insn	2, 0x7275
    5dd0:	6572                	.insn	2, 0x6572
    5dd2:	636e                	.insn	2, 0x636e
    5dd4:	0a79                	.insn	2, 0x0a79
    5dd6:	6f48                	.insn	2, 0x6f48
    5dd8:	6570                	.insn	2, 0x6570
    5dda:	7920                	.insn	2, 0x7920
    5ddc:	6820756f          	jal	a0,d45e <__global_pointer+0x8e56>
    5de0:	6461                	.insn	2, 0x6461
    5de2:	6520                	.insn	2, 0x6520
    5de4:	6f6e                	.insn	2, 0x6f6e
    5de6:	6775                	.insn	2, 0x6775
    5de8:	2068                	.insn	2, 0x2068
    5dea:	2f3a                	.insn	2, 0x2f3a
    5dec:	0000                	.insn	2, 0x
    5dee:	0000                	.insn	2, 0x
    5df0:	6f59                	.insn	2, 0x6f59
    5df2:	2075                	.insn	2, 0x2075
    5df4:	6e616c67          	.insn	4, 0x6e616c67
    5df8:	61206563          	bltu	zero,s2,6402 <__global_pointer+0x1dfa>
    5dfc:	2074                	.insn	2, 0x2074
    5dfe:	6874                	.insn	2, 0x6874
    5e00:	2065                	.insn	2, 0x2065
    5e02:	636f6c63          	bltu	t5,s6,643a <__global_pointer+0x1e32>
    5e06:	4c202e6b          	.insn	4, 0x4c202e6b
    5e0a:	6e75                	.insn	2, 0x6e75
    5e0c:	68206863          	bltu	zero,sp,649c <__global_pointer+0x1e94>
    5e10:	2072756f          	jal	a0,2d816 <__global_pointer+0x2920e>
    5e14:	7369                	.insn	2, 0x7369
    5e16:	6120                	.insn	2, 0x6120
    5e18:	7070                	.insn	2, 0x7070
    5e1a:	6f72                	.insn	2, 0x6f72
    5e1c:	6361                	.insn	2, 0x6361
    5e1e:	6968                	.insn	2, 0x6968
    5e20:	676e                	.insn	2, 0x676e
    5e22:	0a2e                	.insn	2, 0x0a2e
    5e24:	0000                	.insn	2, 0x
    5e26:	0000                	.insn	2, 0x
    5e28:	6f59                	.insn	2, 0x6f59
    5e2a:	7275                	.insn	2, 0x7275
    5e2c:	7320                	.insn	2, 0x7320
    5e2e:	6f74                	.insn	2, 0x6f74
    5e30:	616d                	.insn	2, 0x616d
    5e32:	69206863          	bltu	zero,s2,64c2 <__global_pointer+0x1eba>
    5e36:	72672073          	csrs	mhpmevent6h,a4
    5e3a:	696c776f          	jal	a4,cd4d0 <__global_pointer+0xc8ec8>
    5e3e:	676e                	.insn	2, 0x676e
    5e40:	202e                	.insn	2, 0x202e
    5e42:	6954                	.insn	2, 0x6954
    5e44:	656d                	.insn	2, 0x656d
    5e46:	7420                	.insn	2, 0x7420
    5e48:	6566206f          	j	6849e <__global_pointer+0x63e96>
    5e4c:	7361                	.insn	2, 0x7361
    5e4e:	2074                	.insn	2, 0x2074
    5e50:	6f28                	.insn	2, 0x6f28
    5e52:	2072                	.insn	2, 0x2072
    5e54:	66667573          	csrrci	a0,0x666,12
    5e58:	7265                	.insn	2, 0x7265
    5e5a:	2e29                	.insn	2, 0x2e29
    5e5c:	000a                	.insn	2, 0x000a
    5e5e:	0000                	.insn	2, 0x
    5e60:	6f59                	.insn	2, 0x6f59
    5e62:	2075                	.insn	2, 0x2075
    5e64:	6568                	.insn	2, 0x6568
    5e66:	6461                	.insn	2, 0x6461
    5e68:	7420                	.insn	2, 0x7420
    5e6a:	6874206f          	j	48cf0 <__global_pointer+0x446e8>
    5e6e:	2065                	.insn	2, 0x2065
    5e70:	65666163          	bltu	a2,s6,64b2 <__global_pointer+0x1eaa>
    5e74:	6574                	.insn	2, 0x6574
    5e76:	6972                	.insn	2, 0x6972
    5e78:	0a61                	.insn	2, 0x0a61
    5e7a:	0000                	.insn	2, 0x
    5e7c:	2e31                	.insn	2, 0x2e31
    5e7e:	5320                	.insn	2, 0x5320
    5e80:	6c61                	.insn	2, 0x6c61
    5e82:	6461                	.insn	2, 0x6461
    5e84:	000a                	.insn	2, 0x000a
    5e86:	0000                	.insn	2, 0x
    5e88:	2e32                	.insn	2, 0x2e32
    5e8a:	4220                	.insn	2, 0x4220
    5e8c:	7275                	.insn	2, 0x7275
    5e8e:	0a726567          	.insn	4, 0x0a726567
    5e92:	0000                	.insn	2, 0x
    5e94:	53202e33          	.insn	4, 0x53202e33
    5e98:	7375                	.insn	2, 0x7375
    5e9a:	6968                	.insn	2, 0x6968
    5e9c:	000a                	.insn	2, 0x000a
    5e9e:	0000                	.insn	2, 0x
    5ea0:	6f59                	.insn	2, 0x6f59
    5ea2:	2075                	.insn	2, 0x2075
    5ea4:	656b6177          	.insn	4, 0x656b6177
    5ea8:	7520                	.insn	2, 0x7520
    5eaa:	2c70                	.insn	2, 0x2c70
    5eac:	6220                	.insn	2, 0x6220
    5eae:	7475                	.insn	2, 0x7475
    5eb0:	7420                	.insn	2, 0x7420
    5eb2:	6568                	.insn	2, 0x6568
    5eb4:	6120                	.insn	2, 0x6120
    5eb6:	616c                	.insn	2, 0x616c
    5eb8:	6d72                	.insn	2, 0x6d72
    5eba:	6820                	.insn	2, 0x6820
    5ebc:	7361                	.insn	2, 0x7361
    5ebe:	276e                	.insn	2, 0x276e
    5ec0:	2074                	.insn	2, 0x2074
    5ec2:	7572                	.insn	2, 0x7572
    5ec4:	676e                	.insn	2, 0x676e
    5ec6:	7920                	.insn	2, 0x7920
    5ec8:	7465                	.insn	2, 0x7465
    5eca:	80e2                	.insn	2, 0x80e2
    5ecc:	20a6                	.insn	2, 0x20a6
    5ece:	202c684f          	.insn	4, 0x202c684f
    5ed2:	65657773          	csrrci	a4,hviprio1h,10
    5ed6:	2074                	.insn	2, 0x2074
    5ed8:	6c62                	.insn	2, 0x6c62
    5eda:	7369                	.insn	2, 0x7369
    5edc:	000a2e73          	csrrs	t3,ustatus,s4
    5ee0:	6c46                	.insn	2, 0x6c46
    5ee2:	7069                	.insn	2, 0x7069
    5ee4:	7420                	.insn	2, 0x7420
    5ee6:	6568                	.insn	2, 0x6568
    5ee8:	7320                	.insn	2, 0x7320
    5eea:	63746977          	.insn	4, 0x63746977
    5eee:	6568                	.insn	2, 0x6568
    5ef0:	6f742073          	csrs	0x6f7,s0
    5ef4:	6320                	.insn	2, 0x6320
    5ef6:	6f68                	.insn	2, 0x6f68
    5ef8:	3a65736f          	jal	t1,5d29e <__global_pointer+0x58c96>
    5efc:	000a                	.insn	2, 0x000a
    5efe:	0000                	.insn	2, 0x
    5f00:	20305753          	.insn	4, 0x20305753
    5f04:	86e2                	.insn	2, 0x86e2
    5f06:	2092                	.insn	2, 0x2092
    5f08:	736f6c43          	.insn	4, 0x736f6c43
    5f0c:	2065                	.insn	2, 0x2065
    5f0e:	6f79                	.insn	2, 0x6f79
    5f10:	7275                	.insn	2, 0x7275
    5f12:	6520                	.insn	2, 0x6520
    5f14:	6579                	.insn	2, 0x6579
    5f16:	67612073          	csrs	0x676,sp
    5f1a:	6961                	.insn	2, 0x6961
    5f1c:	206e                	.insn	2, 0x206e
    5f1e:	e228                	.insn	2, 0xe228
    5f20:	9c80                	.insn	2, 0x9c80
    5f22:	2035                	.insn	2, 0x2035
    5f24:	6f6d                	.insn	2, 0x6f6d
    5f26:	6572                	.insn	2, 0x6572
    5f28:	6d20                	.insn	2, 0x6d20
    5f2a:	6e69                	.insn	2, 0x6e69
    5f2c:	7475                	.insn	2, 0x7475
    5f2e:	7365                	.insn	2, 0x7365
    5f30:	80e2                	.insn	2, 0x80e2
    5f32:	e2a6                	.insn	2, 0xe2a6
    5f34:	9d80                	.insn	2, 0x9d80
    5f36:	80e2                	.insn	2, 0x80e2
    5f38:	6694                	.insn	2, 0x6694
    5f3a:	6d61                	.insn	2, 0x6d61
    5f3c:	2073756f          	jal	a0,3d942 <__global_pointer+0x3933a>
    5f40:	616c                	.insn	2, 0x616c
    5f42:	77207473          	csrrci	s0,0x772,0
    5f46:	7364726f          	jal	tp,4d67c <__global_pointer+0x49074>
    5f4a:	292e                	.insn	2, 0x292e
    5f4c:	000a                	.insn	2, 0x000a
    5f4e:	0000                	.insn	2, 0x
    5f50:	20315753          	.insn	4, 0x20315753
    5f54:	86e2                	.insn	2, 0x86e2
    5f56:	2092                	.insn	2, 0x2092
    5f58:	6f59                	.insn	2, 0x6f59
    5f5a:	7275                	.insn	2, 0x7275
    5f5c:	7320                	.insn	2, 0x7320
    5f5e:	206c756f          	jal	a0,cd164 <__global_pointer+0xc8b5c>
    5f62:	65726373          	csrrsi	t1,hviprio2h,4
    5f66:	6d61                	.insn	2, 0x6d61
    5f68:	62202c73          	csrr	s8,0x622
    5f6c:	7475                	.insn	2, 0x7475
    5f6e:	7920                	.insn	2, 0x7920
    5f70:	2072756f          	jal	a0,2d976 <__global_pointer+0x2936e>
    5f74:	6f62                	.insn	2, 0x6f62
    5f76:	7964                	.insn	2, 0x7964
    5f78:	6f20                	.insn	2, 0x6f20
    5f7a:	6562                	.insn	2, 0x6562
    5f7c:	7379                	.insn	2, 0x7379
    5f7e:	0a2e                	.insn	2, 0x0a2e
    5f80:	0000                	.insn	2, 0x
    5f82:	0000                	.insn	2, 0x
    5f84:	7250                	.insn	2, 0x7250
    5f86:	7365                	.insn	2, 0x7365
    5f88:	68742073          	csrs	0x687,s0
    5f8c:	2065                	.insn	2, 0x2065
    5f8e:	7562                	.insn	2, 0x7562
    5f90:	7474                	.insn	2, 0x7474
    5f92:	74206e6f          	jal	t3,c6d4 <__global_pointer+0x80cc>
    5f96:	6f63206f          	j	3868c <__global_pointer+0x34084>
    5f9a:	666e                	.insn	2, 0x666e
    5f9c:	7269                	.insn	2, 0x7269
    5f9e:	206d                	.insn	2, 0x206d
    5fa0:	6f79                	.insn	2, 0x6f79
    5fa2:	7275                	.insn	2, 0x7275
    5fa4:	6320                	.insn	2, 0x6320
    5fa6:	6f68                	.insn	2, 0x6f68
    5fa8:	6369                	.insn	2, 0x6369
    5faa:	2e65                	.insn	2, 0x2e65
    5fac:	2e2e                	.insn	2, 0x2e2e
    5fae:	000a                	.insn	2, 0x000a
    5fb0:	2020                	.insn	2, 0x2020
    5fb2:	2828                	.insn	2, 0x2828
    5fb4:	2020                	.insn	2, 0x2020
    5fb6:	5f28                	.insn	2, 0x5f28
    5fb8:	495f 5f5f 2029      	.insn	6, 0x20295f5f495f
    5fbe:	2920                	.insn	2, 0x2920
    5fc0:	0a29                	.insn	2, 0x0a29
    5fc2:	0000                	.insn	2, 0x
    5fc4:	2020                	.insn	2, 0x2020
    5fc6:	2020                	.insn	2, 0x2020
    5fc8:	272e                	.insn	2, 0x272e
    5fca:	2e5f 2e2e 2e2e      	.insn	6, 0x2e2e2e2e2e5f
    5fd0:	275f 0a2e 0000      	.insn	6, 0x0a2e275f
    5fd6:	0000                	.insn	2, 0x
    5fd8:	2020                	.insn	2, 0x2020
    5fda:	2f20                	.insn	2, 0x2f20
    5fdc:	2f20                	.insn	2, 0x2f20
    5fde:	2e20                	.insn	2, 0x2e20
    5fe0:	3231                	.insn	2, 0x3231
    5fe2:	2e20                	.insn	2, 0x2e20
    5fe4:	5c20                	.insn	2, 0x5c20
    5fe6:	5c20                	.insn	2, 0x5c20
    5fe8:	000a                	.insn	2, 0x000a
    5fea:	0000                	.insn	2, 0x
    5fec:	2020                	.insn	2, 0x2020
    5fee:	207c                	.insn	2, 0x207c
    5ff0:	207c                	.insn	2, 0x207c
    5ff2:	7c202027          	.insn	4, 0x7c202027
    5ff6:	2020                	.insn	2, 0x2020
    5ff8:	207c2027          	.insn	4, 0x207c2027
    5ffc:	0a7c                	.insn	2, 0x0a7c
    5ffe:	0000                	.insn	2, 0x
    6000:	2020                	.insn	2, 0x2020
    6002:	207c                	.insn	2, 0x207c
    6004:	207c                	.insn	2, 0x207c
    6006:	2039                	.insn	2, 0x2039
    6008:	2f20                	.insn	2, 0x2f20
    600a:	2020                	.insn	2, 0x2020
    600c:	207c2033          	.insn	4, 0x207c2033
    6010:	0a7c                	.insn	2, 0x0a7c
    6012:	0000                	.insn	2, 0x
    6014:	2020                	.insn	2, 0x2020
    6016:	5c20                	.insn	2, 0x5c20
    6018:	5c20                	.insn	2, 0x5c20
    601a:	2720                	.insn	2, 0x2720
    601c:	362e                	.insn	2, 0x362e
    601e:	272e                	.insn	2, 0x272e
    6020:	2f20                	.insn	2, 0x2f20
    6022:	2f20                	.insn	2, 0x2f20
    6024:	000a                	.insn	2, 0x000a
    6026:	0000                	.insn	2, 0x
    6028:	2020                	.insn	2, 0x2020
    602a:	2020                	.insn	2, 0x2020
    602c:	2d602e27          	.insn	4, 0x2d602e27
    6030:	2e2e                	.insn	2, 0x2e2e
    6032:	2d2e                	.insn	2, 0x2d2e
    6034:	0a272e27          	.insn	4, 0x0a272e27
    6038:	0000                	.insn	2, 0x
    603a:	0000                	.insn	2, 0x
    603c:	2020                	.insn	2, 0x2020
    603e:	2020                	.insn	2, 0x2020
    6040:	2d2d272f          	.insn	4, 0x2d2d272f
    6044:	2d20                	.insn	2, 0x2d20
    6046:	272d                	.insn	2, 0x272d
    6048:	0a5c                	.insn	2, 0x0a5c
    604a:	0000                	.insn	2, 0x
    604c:	2020                	.insn	2, 0x2020
    604e:	2020                	.insn	2, 0x2020
    6050:	2260                	.insn	2, 0x2260
    6052:	2222                	.insn	2, 0x2222
    6054:	2222                	.insn	2, 0x2222
    6056:	2222                	.insn	2, 0x2222
    6058:	2222                	.insn	2, 0x2222
    605a:	0a60                	.insn	2, 0x0a60
    605c:	0000                	.insn	2, 0x
    605e:	0000                	.insn	2, 0x
    6060:	6f59                	.insn	2, 0x6f59
    6062:	2075                	.insn	2, 0x2075
    6064:	6f6f6e73          	csrrsi	t3,0x6f6,30
    6068:	657a                	.insn	2, 0x657a
    606a:	2064                	.insn	2, 0x2064
    606c:	6f74                	.insn	2, 0x6f74
    606e:	756d206f          	j	d87c4 <__global_pointer+0xd41bc>
    6072:	2e2e6863          	bltu	t3,sp,6362 <__global_pointer+0x1d5a>
    6076:	202e                	.insn	2, 0x202e
    6078:	6f59                	.insn	2, 0x6f59
    607a:	2075                	.insn	2, 0x2075
    607c:	7572                	.insn	2, 0x7572
    607e:	6f206873          	csrrsi	a6,0x6f2,0
    6082:	7475                	.insn	2, 0x7475
    6084:	6f20                	.insn	2, 0x6f20
    6086:	2066                	.insn	2, 0x2066
    6088:	6874                	.insn	2, 0x6874
    608a:	2065                	.insn	2, 0x2065
    608c:	6562                	.insn	2, 0x6562
    608e:	2064                	.insn	2, 0x2064
    6090:	6566                	.insn	2, 0x6566
    6092:	6c65                	.insn	2, 0x6c65
    6094:	6e69                	.insn	2, 0x6e69
    6096:	74732067          	.insn	4, 0x74732067
    609a:	6572                	.insn	2, 0x6572
    609c:	64657373          	csrrci	t1,hviprio1,10
    60a0:	0a2e                	.insn	2, 0x0a2e
    60a2:	0000                	.insn	2, 0x
    60a4:	6f59                	.insn	2, 0x6f59
    60a6:	2075                	.insn	2, 0x2075
    60a8:	656b6177          	.insn	4, 0x656b6177
    60ac:	7520                	.insn	2, 0x7520
    60ae:	2070                	.insn	2, 0x2070
    60b0:	756a                	.insn	2, 0x756a
    60b2:	62207473          	csrrci	s0,0x622,0
    60b6:	6665                	.insn	2, 0x6665
    60b8:	2065726f          	jal	tp,5d2be <__global_pointer+0x58cb6>
    60bc:	6874                	.insn	2, 0x6874
    60be:	2065                	.insn	2, 0x2065
    60c0:	6c61                	.insn	2, 0x6c61
    60c2:	7261                	.insn	2, 0x7261
    60c4:	206d                	.insn	2, 0x206d
    60c6:	6972                	.insn	2, 0x6972
    60c8:	676e                	.insn	2, 0x676e
    60ca:	57202e73          	csrr	t3,0x572
    60ce:	202c776f          	jal	a4,cd2d0 <__global_pointer+0xc8cc8>
    60d2:	616d                	.insn	2, 0x616d
    60d4:	6279                	.insn	2, 0x6279
    60d6:	2065                	.insn	2, 0x2065
    60d8:	6f79                	.insn	2, 0x6f79
    60da:	e275                	.insn	2, 0xe275
    60dc:	9980                	.insn	2, 0x9980
    60de:	6572                	.insn	2, 0x6572
    60e0:	6120                	.insn	2, 0x6120
    60e2:	6720                	.insn	2, 0x6720
    60e4:	6e65                	.insn	2, 0x6e65
    60e6:	7569                	.insn	2, 0x7569
    60e8:	f0203f73          	csrrc	t5,0xf02,zero
    60ec:	a79f 0aa0 0000      	.insn	6, 0x0aa0a79f
    60f2:	0000                	.insn	2, 0x
    60f4:	6841                	.insn	2, 0x6841
    60f6:	7320                	.insn	2, 0x7320
    60f8:	6968                	.insn	2, 0x6968
    60fa:	2c74                	.insn	2, 0x2c74
    60fc:	6820                	.insn	2, 0x6820
    60fe:	7265                	.insn	2, 0x7265
    6100:	2065                	.insn	2, 0x2065
    6102:	67206577          	.insn	4, 0x67206577
    6106:	6761206f          	j	1877c <__global_pointer+0x14174>
    610a:	6961                	.insn	2, 0x6961
    610c:	2e6e                	.insn	2, 0x2e6e
    610e:	2e2e                	.insn	2, 0x2e2e
    6110:	000a                	.insn	2, 0x000a
    6112:	0000                	.insn	2, 0x
    6114:	68746957          	.insn	4, 0x68746957
    6118:	6820                	.insn	2, 0x6820
    611a:	6165                	.insn	2, 0x6165
    611c:	7976                	.insn	2, 0x7976
    611e:	7320                	.insn	2, 0x7320
    6120:	6574                	.insn	2, 0x6574
    6122:	7370                	.insn	2, 0x7370
    6124:	202c                	.insn	2, 0x202c
    6126:	6f79                	.insn	2, 0x6f79
    6128:	2075                	.insn	2, 0x2075
    612a:	776f6c73          	csrrsi	s8,0x776,30
    612e:	796c                	.insn	2, 0x796c
    6130:	6120                	.insn	2, 0x6120
    6132:	7070                	.insn	2, 0x7070
    6134:	6f72                	.insn	2, 0x6f72
    6136:	6361                	.insn	2, 0x6361
    6138:	2068                	.insn	2, 0x2068
    613a:	6874                	.insn	2, 0x6874
    613c:	2065                	.insn	2, 0x2065
    613e:	64726177          	.insn	4, 0x64726177
    6142:	6f72                	.insn	2, 0x6f72
    6144:	6562                	.insn	2, 0x6562
    6146:	2e2e                	.insn	2, 0x2e2e
    6148:	0a2e                	.insn	2, 0x0a2e
    614a:	0000                	.insn	2, 0x
    614c:	6146                	.insn	2, 0x6146
    614e:	636e                	.insn	2, 0x636e
    6150:	6979                	.insn	2, 0x6979
    6152:	676e                	.insn	2, 0x676e
    6154:	7920                	.insn	2, 0x7920
    6156:	7372756f          	jal	a0,2e08c <__global_pointer+0x29a84>
    615a:	6c65                	.insn	2, 0x6c65
    615c:	2c66                	.insn	2, 0x2c66
    615e:	7720                	.insn	2, 0x7720
    6160:	6168                	.insn	2, 0x6168
    6162:	2074                	.insn	2, 0x2074
    6164:	6c6c6977          	.insn	4, 0x6c6c6977
    6168:	7920                	.insn	2, 0x7920
    616a:	7720756f          	jal	a0,d8dc <__global_pointer+0x92d4>
    616e:	6165                	.insn	2, 0x6165
    6170:	2072                	.insn	2, 0x2072
    6172:	6f74                	.insn	2, 0x6f74
    6174:	6164                	.insn	2, 0x6164
    6176:	3f79                	.insn	2, 0x3f79
    6178:	000a                	.insn	2, 0x000a
    617a:	0000                	.insn	2, 0x
    617c:	2e31                	.insn	2, 0x2e31
    617e:	4620                	.insn	2, 0x4620
    6180:	6e61                	.insn	2, 0x6e61
    6182:	73207963          	bgeu	zero,s2,68b4 <__global_pointer+0x22ac>
    6186:	6975                	.insn	2, 0x6975
    6188:	2074                	.insn	2, 0x2074
    618a:	2026                	.insn	2, 0x2026
    618c:	6566                	.insn	2, 0x6566
    618e:	6f64                	.insn	2, 0x6f64
    6190:	6172                	.insn	2, 0x6172
    6192:	2820                	.insn	2, 0x2820
    6194:	6f59                	.insn	2, 0x6f59
    6196:	2075                	.insn	2, 0x2075
    6198:	6f6c                	.insn	2, 0x6f6c
    619a:	6c206b6f          	jal	s6,c85c <__global_pointer+0x8254>
    619e:	6b69                	.insn	2, 0x6b69
    61a0:	2065                	.insn	2, 0x2065
    61a2:	2061                	.insn	2, 0x2061
    61a4:	3931                	.insn	2, 0x3931
    61a6:	3034                	.insn	2, 0x3034
    61a8:	65642073          	csrs	hviprio1h,s0
    61ac:	6574                	.insn	2, 0x6574
    61ae:	76697463          	bgeu	s2,t1,6916 <__global_pointer+0x230e>
    61b2:	2e65                	.insn	2, 0x2e65
    61b4:	2e2e                	.insn	2, 0x2e2e
    61b6:	6f20                	.insn	2, 0x6f20
    61b8:	2072                	.insn	2, 0x2072
    61ba:	2061                	.insn	2, 0x2061
    61bc:	616d                	.insn	2, 0x616d
    61be:	6966                	.insn	2, 0x6966
    61c0:	2061                	.insn	2, 0x2061
    61c2:	6e6f6f67          	.insn	4, 0x6e6f6f67
    61c6:	292e                	.insn	2, 0x292e
    61c8:	000a                	.insn	2, 0x000a
    61ca:	0000                	.insn	2, 0x
    61cc:	2e32                	.insn	2, 0x2e32
    61ce:	5320                	.insn	2, 0x5320
    61d0:	74616577          	.insn	4, 0x74616577
    61d4:	6170                	.insn	2, 0x6170
    61d6:	746e                	.insn	2, 0x746e
    61d8:	20262073          	csrs	0x202,a2
    61dc:	6f68                	.insn	2, 0x6f68
    61de:	6569646f          	jal	s0,9c834 <__global_pointer+0x9822c>
    61e2:	2820                	.insn	2, 0x2820
    61e4:	2041                	.insn	2, 0x2041
    61e6:	626d7973          	csrrci	s2,0x626,26
    61ea:	6f206c6f          	jal	s8,c8dc <__global_pointer+0x82d4>
    61ee:	2066                	.insn	2, 0x2066
    61f0:	6c75                	.insn	2, 0x6c75
    61f2:	6974                	.insn	2, 0x6974
    61f4:	616d                	.insn	2, 0x616d
    61f6:	6574                	.insn	2, 0x6574
    61f8:	6320                	.insn	2, 0x6320
    61fa:	6f666d6f          	jal	s10,6c8f0 <__global_pointer+0x682e8>
    61fe:	7472                	.insn	2, 0x7472
    6200:	202e                	.insn	2, 0x202e
    6202:	6720724f          	.insn	4, 0x6720724f
    6206:	7669                	.insn	2, 0x7669
    6208:	6e69                	.insn	2, 0x6e69
    620a:	70752067          	.insn	4, 0x70752067
    620e:	292e                	.insn	2, 0x292e
    6210:	000a                	.insn	2, 0x000a
    6212:	0000                	.insn	2, 0x
    6214:	53202e33          	.insn	4, 0x53202e33
    6218:	6968                	.insn	2, 0x6968
    621a:	7472                	.insn	2, 0x7472
    621c:	2620                	.insn	2, 0x2620
    621e:	6a20                	.insn	2, 0x6a20
    6220:	6165                	.insn	2, 0x6165
    6222:	736e                	.insn	2, 0x736e
    6224:	2820                	.insn	2, 0x2820
    6226:	6f4e                	.insn	2, 0x6f4e
    6228:	6620                	.insn	2, 0x6620
    622a:	6972                	.insn	2, 0x6972
    622c:	6c6c                	.insn	2, 0x6c6c
    622e:	61202c73          	csrr	s8,0x612
    6232:	646e                	.insn	2, 0x646e
    6234:	7720                	.insn	2, 0x7720
    6236:	6968                	.insn	2, 0x6968
    6238:	656c7473          	csrrci	s0,hviprio1h,24
    623c:	0a202973          	csrr	s2,0xa2
    6240:	0000                	.insn	2, 0x
    6242:	0000                	.insn	2, 0x
    6244:	2020                	.insn	2, 0x2020
    6246:	2020                	.insn	2, 0x2020
    6248:	2020                	.insn	2, 0x2020
    624a:	2020                	.insn	2, 0x2020
    624c:	5f5f 5f5f 5f5f      	.insn	6, 0x5f5f5f5f5f5f
    6252:	5f5f 5f5f 5f5f      	.insn	6, 0x5f5f5f5f5f5f
    6258:	5f5f 5f5f 5f5f      	.insn	6, 0x5f5f5f5f5f5f
    625e:	5f5f 5f5f 5f5f      	.insn	6, 0x5f5f5f5f5f5f
    6264:	0a5f 0000 2020      	.insn	6, 0x202000000a5f
    626a:	2020                	.insn	2, 0x2020
    626c:	2020                	.insn	2, 0x2020
    626e:	2820                	.insn	2, 0x2820
    6270:	202c                	.insn	2, 0x202c
    6272:	5f5f 5f5f 5f5f      	.insn	6, 0x5f5f5f5f5f5f
    6278:	5f5f 5f5f 5f5f      	.insn	6, 0x5f5f5f5f5f5f
    627e:	5f5f 5f5f 5f5f      	.insn	6, 0x5f5f5f5f5f5f
    6284:	5f5f 5f5f 2920      	.insn	6, 0x29205f5f5f5f
    628a:	000a                	.insn	2, 0x000a
    628c:	2020                	.insn	2, 0x2020
    628e:	2020                	.insn	2, 0x2020
    6290:	2020                	.insn	2, 0x2020
    6292:	7c20                	.insn	2, 0x7c20
    6294:	7c20                	.insn	2, 0x7c20
    6296:	2020                	.insn	2, 0x2020
    6298:	2020                	.insn	2, 0x2020
    629a:	2020                	.insn	2, 0x2020
    629c:	2020                	.insn	2, 0x2020
    629e:	2020                	.insn	2, 0x2020
    62a0:	2020                	.insn	2, 0x2020
    62a2:	2020                	.insn	2, 0x2020
    62a4:	2020                	.insn	2, 0x2020
    62a6:	2020                	.insn	2, 0x2020
    62a8:	2020                	.insn	2, 0x2020
    62aa:	2020                	.insn	2, 0x2020
    62ac:	7c7c                	.insn	2, 0x7c7c
    62ae:	000a                	.insn	2, 0x000a
    62b0:	2020                	.insn	2, 0x2020
    62b2:	2020                	.insn	2, 0x2020
    62b4:	2020                	.insn	2, 0x2020
    62b6:	7c20                	.insn	2, 0x7c20
    62b8:	7c20                	.insn	2, 0x7c20
    62ba:	2020                	.insn	2, 0x2020
    62bc:	2020                	.insn	2, 0x2020
    62be:	2020                	.insn	2, 0x2020
    62c0:	2020                	.insn	2, 0x2020
    62c2:	2020                	.insn	2, 0x2020
    62c4:	4040                	.insn	2, 0x4040
    62c6:	4040                	.insn	2, 0x4040
    62c8:	2020                	.insn	2, 0x2020
    62ca:	2020                	.insn	2, 0x2020
    62cc:	2020                	.insn	2, 0x2020
    62ce:	2020                	.insn	2, 0x2020
    62d0:	7c7c                	.insn	2, 0x7c7c
    62d2:	2020                	.insn	2, 0x2020
    62d4:	2020                	.insn	2, 0x2020
    62d6:	2020                	.insn	2, 0x2020
    62d8:	2020                	.insn	2, 0x2020
    62da:	2020                	.insn	2, 0x2020
    62dc:	2020                	.insn	2, 0x2020
    62de:	4040                	.insn	2, 0x4040
    62e0:	4040                	.insn	2, 0x4040
    62e2:	000a                	.insn	2, 0x000a
    62e4:	2020                	.insn	2, 0x2020
    62e6:	2020                	.insn	2, 0x2020
    62e8:	2020                	.insn	2, 0x2020
    62ea:	7c20                	.insn	2, 0x7c20
    62ec:	7c20                	.insn	2, 0x7c20
    62ee:	2020                	.insn	2, 0x2020
    62f0:	2020                	.insn	2, 0x2020
    62f2:	2020                	.insn	2, 0x2020
    62f4:	2020                	.insn	2, 0x2020
    62f6:	4040                	.insn	2, 0x4040
    62f8:	4040                	.insn	2, 0x4040
    62fa:	4040                	.insn	2, 0x4040
    62fc:	2040                	.insn	2, 0x2040
    62fe:	2020                	.insn	2, 0x2020
    6300:	2020                	.insn	2, 0x2020
    6302:	2020                	.insn	2, 0x2020
    6304:	7c7c                	.insn	2, 0x7c7c
    6306:	2020                	.insn	2, 0x2020
    6308:	2020                	.insn	2, 0x2020
    630a:	2020                	.insn	2, 0x2020
    630c:	2020                	.insn	2, 0x2020
    630e:	2020                	.insn	2, 0x2020
    6310:	4040                	.insn	2, 0x4040
    6312:	4040                	.insn	2, 0x4040
    6314:	4040                	.insn	2, 0x4040
    6316:	0a40                	.insn	2, 0x0a40
    6318:	0000                	.insn	2, 0x
    631a:	0000                	.insn	2, 0x
    631c:	2020                	.insn	2, 0x2020
    631e:	2020                	.insn	2, 0x2020
    6320:	2020                	.insn	2, 0x2020
    6322:	7c20                	.insn	2, 0x7c20
    6324:	7c20                	.insn	2, 0x7c20
    6326:	2020                	.insn	2, 0x2020
    6328:	2020                	.insn	2, 0x2020
    632a:	2020                	.insn	2, 0x2020
    632c:	2020                	.insn	2, 0x2020
    632e:	4020                	.insn	2, 0x4020
    6330:	2040                	.insn	2, 0x2040
    6332:	202d                	.insn	2, 0x202d
    6334:	202d                	.insn	2, 0x202d
    6336:	2020                	.insn	2, 0x2020
    6338:	2020                	.insn	2, 0x2020
    633a:	2020                	.insn	2, 0x2020
    633c:	7c7c                	.insn	2, 0x7c7c
    633e:	2020                	.insn	2, 0x2020
    6340:	2020                	.insn	2, 0x2020
    6342:	2020                	.insn	2, 0x2020
    6344:	2020                	.insn	2, 0x2020
    6346:	2020                	.insn	2, 0x2020
    6348:	202d                	.insn	2, 0x202d
    634a:	4040                	.insn	2, 0x4040
    634c:	4040                	.insn	2, 0x4040
    634e:	000a                	.insn	2, 0x000a
    6350:	2020                	.insn	2, 0x2020
    6352:	2020                	.insn	2, 0x2020
    6354:	2020                	.insn	2, 0x2020
    6356:	7c20                	.insn	2, 0x7c20
    6358:	7c20                	.insn	2, 0x7c20
    635a:	2020                	.insn	2, 0x2020
    635c:	2020                	.insn	2, 0x2020
    635e:	2020                	.insn	2, 0x2020
    6360:	2020                	.insn	2, 0x2020
    6362:	2020                	.insn	2, 0x2020
    6364:	2040                	.insn	2, 0x2040
    6366:	6320                	.insn	2, 0x6320
    6368:	2020202f          	.insn	4, 0x2020202f
    636c:	2020                	.insn	2, 0x2020
    636e:	2020                	.insn	2, 0x2020
    6370:	7c7c                	.insn	2, 0x7c7c
    6372:	2020                	.insn	2, 0x2020
    6374:	2020                	.insn	2, 0x2020
    6376:	2020                	.insn	2, 0x2020
    6378:	2020                	.insn	2, 0x2020
    637a:	2720                	.insn	2, 0x2720
    637c:	205f 4040 0a40      	.insn	6, 0x0a404040205f
    6382:	0000                	.insn	2, 0x
    6384:	2020                	.insn	2, 0x2020
    6386:	2020                	.insn	2, 0x2020
    6388:	2020                	.insn	2, 0x2020
    638a:	7c20                	.insn	2, 0x7c20
    638c:	7c20                	.insn	2, 0x7c20
    638e:	2020                	.insn	2, 0x2020
    6390:	2020                	.insn	2, 0x2020
    6392:	2020                	.insn	2, 0x2020
    6394:	2020                	.insn	2, 0x2020
    6396:	405f 207c 5f7c      	.insn	6, 0x5f7c207c405f
    639c:	2020                	.insn	2, 0x2020
    639e:	2020                	.insn	2, 0x2020
    63a0:	2020                	.insn	2, 0x2020
    63a2:	2020                	.insn	2, 0x2020
    63a4:	7c7c                	.insn	2, 0x7c7c
    63a6:	2020                	.insn	2, 0x2020
    63a8:	2020                	.insn	2, 0x2020
    63aa:	2020                	.insn	2, 0x2020
    63ac:	2020                	.insn	2, 0x2020
    63ae:	5f20                	.insn	2, 0x5f20
    63b0:	5c5f 2040 405c      	.insn	6, 0x405c20405c5f
    63b6:	000a                	.insn	2, 0x000a
    63b8:	2020                	.insn	2, 0x2020
    63ba:	2020                	.insn	2, 0x2020
    63bc:	2020                	.insn	2, 0x2020
    63be:	7c20                	.insn	2, 0x7c20
    63c0:	7c20                	.insn	2, 0x7c20
    63c2:	2020                	.insn	2, 0x2020
    63c4:	2020                	.insn	2, 0x2020
    63c6:	2020                	.insn	2, 0x2020
    63c8:	2820                	.insn	2, 0x2820
    63ca:	5c20                	.insn	2, 0x5c20
    63cc:	2920                	.insn	2, 0x2920
    63ce:	205c5f2f          	.insn	4, 0x205c5f2f
    63d2:	20205f2f          	.insn	4, 0x20205f2f
    63d6:	7c7c                	.insn	2, 0x7c7c
    63d8:	2020                	.insn	2, 0x2020
    63da:	5c5f 205c 2820      	.insn	6, 0x2820205c5c5f
    63e0:	2029202f          	.insn	4, 0x2029202f
    63e4:	5c40                	.insn	2, 0x5c40
    63e6:	2f5f 0a29 0000      	.insn	6, 0x0a292f5f
    63ec:	2020                	.insn	2, 0x2020
    63ee:	2020                	.insn	2, 0x2020
    63f0:	2020                	.insn	2, 0x2020
    63f2:	7c20                	.insn	2, 0x7c20
    63f4:	7c20                	.insn	2, 0x7c20
    63f6:	2020                	.insn	2, 0x2020
    63f8:	2020                	.insn	2, 0x2020
    63fa:	2020                	.insn	2, 0x2020
    63fc:	2020                	.insn	2, 0x2020
    63fe:	205c                	.insn	2, 0x205c
    6400:	7c5c                	.insn	2, 0x7c5c
    6402:	2029                	.insn	2, 0x2029
    6404:	295c202f          	.insn	4, 0x295c202f
    6408:	7c20                	.insn	2, 0x7c20
    640a:	207c                	.insn	2, 0x207c
    640c:	2020                	.insn	2, 0x2020
    640e:	287c                	.insn	2, 0x287c
    6410:	5f5f 202f 202f      	.insn	6, 0x202f202f5f5f
    6416:	2020                	.insn	2, 0x2020
    6418:	2020                	.insn	2, 0x2020
    641a:	000a7c2f          	.insn	4, 0x000a7c2f
    641e:	0000                	.insn	2, 0x
    6420:	2020                	.insn	2, 0x2020
    6422:	2020                	.insn	2, 0x2020
    6424:	2020                	.insn	2, 0x2020
    6426:	7c20                	.insn	2, 0x7c20
    6428:	7c20                	.insn	2, 0x7c20
    642a:	2020                	.insn	2, 0x2020
    642c:	2020                	.insn	2, 0x2020
    642e:	2020                	.insn	2, 0x2020
    6430:	2020                	.insn	2, 0x2020
    6432:	5c7c                	.insn	2, 0x5c7c
    6434:	2f5f 2820 2d20      	.insn	6, 0x2d2028202f5f
    643a:	2020202f          	.insn	4, 0x2020202f
    643e:	7c20                	.insn	2, 0x7c20
    6440:	207c                	.insn	2, 0x207c
    6442:	2020                	.insn	2, 0x2020
    6444:	5c20                	.insn	2, 0x5c20
    6446:	5f5f 2f5f 2d20      	.insn	6, 0x2d202f5f5f5f
    644c:	2d2d                	.insn	2, 0x2d2d
    644e:	2f2d                	.insn	2, 0x2f2d
    6450:	7c5f 000a 6f59      	.insn	6, 0x6f59000a7c5f
    6456:	2075                	.insn	2, 0x2075
    6458:	6f6c                	.insn	2, 0x6f6c
    645a:	64206b6f          	jal	s6,ca9c <__global_pointer+0x8494>
    645e:	7061                	.insn	2, 0x7061
    6460:	6570                	.insn	2, 0x6570
    6462:	2072                	.insn	2, 0x2072
    6464:	6e69                	.insn	2, 0x6e69
    6466:	7920                	.insn	2, 0x7920
    6468:	2072756f          	jal	a0,2de6e <__global_pointer+0x29866>
    646c:	74697573          	csrrci	a0,0x746,18
    6470:	6120                	.insn	2, 0x6120
    6472:	646e                	.insn	2, 0x646e
    6474:	6620                	.insn	2, 0x6620
    6476:	6465                	.insn	2, 0x6465
    6478:	2161726f          	jal	tp,1d68e <__global_pointer+0x19086>
    647c:	000a                	.insn	2, 0x000a
    647e:	0000                	.insn	2, 0x
    6480:	6f59                	.insn	2, 0x6f59
    6482:	2075                	.insn	2, 0x2075
    6484:	6566                	.insn	2, 0x6566
    6486:	6c65                	.insn	2, 0x6c65
    6488:	6320                	.insn	2, 0x6320
    648a:	79666d6f          	jal	s10,6cc20 <__global_pointer+0x68618>
    648e:	6920                	.insn	2, 0x6920
    6490:	206e                	.insn	2, 0x206e
    6492:	6f79                	.insn	2, 0x6f79
    6494:	7275                	.insn	2, 0x7275
    6496:	7320                	.insn	2, 0x7320
    6498:	74616577          	.insn	4, 0x74616577
    649c:	6170                	.insn	2, 0x6170
    649e:	746e                	.insn	2, 0x746e
    64a0:	6e612073          	csrs	0x6e6,sp
    64a4:	2064                	.insn	2, 0x2064
    64a6:	61657773          	csrrci	a4,0x616,10
    64aa:	7374                	.insn	2, 0x7374
    64ac:	6968                	.insn	2, 0x6968
    64ae:	7472                	.insn	2, 0x7472
    64b0:	0a2e                	.insn	2, 0x0a2e
    64b2:	0000                	.insn	2, 0x
    64b4:	6854                	.insn	2, 0x6854
    64b6:	2065                	.insn	2, 0x2065
    64b8:	7571                	.insn	2, 0x7571
    64ba:	6569                	.insn	2, 0x6569
    64bc:	2074                	.insn	2, 0x2074
    64be:	7571                	.insn	2, 0x7571
    64c0:	7469                	.insn	2, 0x7469
    64c2:	6574                	.insn	2, 0x6574
    64c4:	7372                	.insn	2, 0x7372
    64c6:	7520                	.insn	2, 0x7520
    64c8:	696e                	.insn	2, 0x696e
    64ca:	6f66                	.insn	2, 0x6f66
    64cc:	6d72                	.insn	2, 0x6d72
    64ce:	6920                	.insn	2, 0x6920
    64d0:	646e                	.insn	2, 0x646e
    64d2:	6565                	.insn	2, 0x6565
    64d4:	2e64                	.insn	2, 0x2e64
    64d6:	2e2e                	.insn	2, 0x2e2e
    64d8:	000a                	.insn	2, 0x000a
    64da:	0000                	.insn	2, 0x
    64dc:	6f59                	.insn	2, 0x6f59
    64de:	2075                	.insn	2, 0x2075
    64e0:	7261                	.insn	2, 0x7261
    64e2:	2065                	.insn	2, 0x2065
    64e4:	6570                	.insn	2, 0x6570
    64e6:	6672                	.insn	2, 0x6672
    64e8:	6365                	.insn	2, 0x6365
    64ea:	6c74                	.insn	2, 0x6c74
    64ec:	2079                	.insn	2, 0x2079
    64ee:	6e75                	.insn	2, 0x6e75
    64f0:	6572                	.insn	2, 0x6572
    64f2:	616d                	.insn	2, 0x616d
    64f4:	6b72                	.insn	2, 0x6b72
    64f6:	6261                	.insn	2, 0x6261
    64f8:	656c                	.insn	2, 0x656c
    64fa:	202e                	.insn	2, 0x202e
    64fc:	694c                	.insn	2, 0x694c
    64fe:	6120656b          	.insn	4, 0x6120656b
    6502:	6320                	.insn	2, 0x6320
    6504:	6f70726f          	jal	tp,e3fa <__global_pointer+0x9df2>
    6508:	6172                	.insn	2, 0x6172
    650a:	6574                	.insn	2, 0x6574
    650c:	6720                	.insn	2, 0x6720
    650e:	6f68                	.insn	2, 0x6f68
    6510:	0a2e7473          	csrrci	s0,0xa2,28
    6514:	0000                	.insn	2, 0x
    6516:	0000                	.insn	2, 0x
    6518:	6f59                	.insn	2, 0x6f59
    651a:	2075                	.insn	2, 0x2075
    651c:	6f6e                	.insn	2, 0x6f6e
    651e:	2064                	.insn	2, 0x2064
    6520:	7461                	.insn	2, 0x7461
    6522:	7920                	.insn	2, 0x7920
    6524:	2072756f          	jal	a0,2df2a <__global_pointer+0x29922>
    6528:	6572                	.insn	2, 0x6572
    652a:	6c66                	.insn	2, 0x6c66
    652c:	6365                	.insn	2, 0x6365
    652e:	6974                	.insn	2, 0x6974
    6530:	202c6e6f          	jal	t3,cc732 <__global_pointer+0xc812a>
    6534:	7361                	.insn	2, 0x7361
    6536:	6920                	.insn	2, 0x6920
    6538:	2066                	.insn	2, 0x2066
    653a:	6c616573          	csrrsi	a0,0x6c6,2
    653e:	6e69                	.insn	2, 0x6e69
    6540:	20612067          	.insn	4, 0x20612067
    6544:	656c6973          	csrrsi	s2,hviprio1h,24
    6548:	746e                	.insn	2, 0x746e
    654a:	7020                	.insn	2, 0x7020
    654c:	6361                	.insn	2, 0x6361
    654e:	2074                	.insn	2, 0x2074
    6550:	68746977          	.insn	4, 0x68746977
    6554:	7420                	.insn	2, 0x7420
    6556:	6568                	.insn	2, 0x6568
    6558:	7520                	.insn	2, 0x7520
    655a:	696e                	.insn	2, 0x696e
    655c:	6576                	.insn	2, 0x6576
    655e:	7372                	.insn	2, 0x7372
    6560:	2e65                	.insn	2, 0x2e65
    6562:	000a                	.insn	2, 0x000a
    6564:	6854                	.insn	2, 0x6854
    6566:	7369                	.insn	2, 0x7369
    6568:	6920                	.insn	2, 0x6920
    656a:	68742073          	csrs	0x687,s0
    656e:	2065                	.insn	2, 0x2065
    6570:	6674756f          	jal	a0,4e3d6 <__global_pointer+0x49dce>
    6574:	7469                	.insn	2, 0x7469
    6576:	6f20                	.insn	2, 0x6f20
    6578:	2066                	.insn	2, 0x2066
    657a:	656d6f73          	csrrsi	t5,hviprio1h,26
    657e:	20656e6f          	jal	t3,5c784 <__global_pointer+0x5817c>
    6582:	206f6877          	.insn	4, 0x206f6877
    6586:	656d                	.insn	2, 0x656d
    6588:	6e61                	.insn	2, 0x6e61
    658a:	75622073          	csrs	0x756,tp
    658e:	656e6973          	csrrsi	s2,hviprio1h,28
    6592:	2e2e7373          	csrrci	t1,0x2e2,28
    6596:	202e                	.insn	2, 0x202e
    6598:	6120726f          	jal	tp,dbaa <__global_pointer+0x95a2>
    659c:	2074                	.insn	2, 0x2074
    659e:	656c                	.insn	2, 0x656c
    65a0:	7361                	.insn	2, 0x7361
    65a2:	2c74                	.insn	2, 0x2c74
    65a4:	7320                	.insn	2, 0x7320
    65a6:	6f656d6f          	jal	s10,5cc9c <__global_pointer+0x58694>
    65aa:	656e                	.insn	2, 0x656e
    65ac:	7720                	.insn	2, 0x7720
    65ae:	6f68                	.insn	2, 0x6f68
    65b0:	7220                	.insn	2, 0x7220
    65b2:	6d65                	.insn	2, 0x6d65
    65b4:	6d65                	.insn	2, 0x6d65
    65b6:	6562                	.insn	2, 0x6562
    65b8:	6572                	.insn	2, 0x6572
    65ba:	2064                	.insn	2, 0x2064
    65bc:	6f74                	.insn	2, 0x6f74
    65be:	7020                	.insn	2, 0x7020
    65c0:	7475                	.insn	2, 0x7475
    65c2:	6f20                	.insn	2, 0x6f20
    65c4:	206e                	.insn	2, 0x206e
    65c6:	6170                	.insn	2, 0x6170
    65c8:	746e                	.insn	2, 0x746e
    65ca:	6f742073          	csrs	0x6f7,s0
    65ce:	6164                	.insn	2, 0x6164
    65d0:	2e79                	.insn	2, 0x2e79
    65d2:	000a                	.insn	2, 0x000a
    65d4:	68746957          	.insn	4, 0x68746957
    65d8:	6120                	.insn	2, 0x6120
    65da:	6e20                	.insn	2, 0x6e20
    65dc:	7765                	.insn	2, 0x7765
    65de:	6f66                	.insn	2, 0x6f66
    65e0:	6e75                	.insn	2, 0x6e75
    65e2:	2064                	.insn	2, 0x2064
    65e4:	736e6573          	csrrsi	a0,mhpmevent22h,28
    65e8:	2065                	.insn	2, 0x2065
    65ea:	6320666f          	jal	a2,cc1c <__global_pointer+0x8614>
    65ee:	69666e6f          	jal	t3,6cc84 <__global_pointer+0x6867c>
    65f2:	6564                	.insn	2, 0x6564
    65f4:	636e                	.insn	2, 0x636e
    65f6:	2065                	.insn	2, 0x2065
    65f8:	6f28                	.insn	2, 0x6f28
    65fa:	2072                	.insn	2, 0x2072
    65fc:	696d                	.insn	2, 0x696d
    65fe:	646c                	.insn	2, 0x646c
    6600:	7220                	.insn	2, 0x7220
    6602:	6765                	.insn	2, 0x6765
    6604:	6572                	.insn	2, 0x6572
    6606:	2974                	.insn	2, 0x2974
    6608:	202c                	.insn	2, 0x202c
    660a:	6f79                	.insn	2, 0x6f79
    660c:	2075                	.insn	2, 0x2075
    660e:	75727473          	csrrci	s0,0x757,4
    6612:	2074                	.insn	2, 0x2074
    6614:	6f74                	.insn	2, 0x6f74
    6616:	64726177          	.insn	4, 0x64726177
    661a:	68742073          	csrs	0x687,s0
    661e:	2065                	.insn	2, 0x2065
    6620:	6374696b          	.insn	4, 0x6374696b
    6624:	6568                	.insn	2, 0x6568
    6626:	2e6e                	.insn	2, 0x2e6e
    6628:	000a                	.insn	2, 0x000a
    662a:	0000                	.insn	2, 0x
    662c:	74616857          	.insn	4, 0x74616857
    6630:	7720                	.insn	2, 0x7720
    6632:	6c69                	.insn	2, 0x6c69
    6634:	206c                	.insn	2, 0x206c
    6636:	69746173          	csrrsi	sp,0x697,8
    663a:	7461                	.insn	2, 0x7461
    663c:	2065                	.insn	2, 0x2065
    663e:	796d                	.insn	2, 0x796d
    6640:	6820                	.insn	2, 0x6820
    6642:	6e75                	.insn	2, 0x6e75
    6644:	20726567          	.insn	4, 0x20726567
    6648:	6f66                	.insn	2, 0x6f66
    664a:	2072                	.insn	2, 0x2072
    664c:	6f74                	.insn	2, 0x6f74
    664e:	6164                	.insn	2, 0x6164
    6650:	3f79                	.insn	2, 0x3f79
    6652:	000a                	.insn	2, 0x000a
    6654:	2e31                	.insn	2, 0x2e31
    6656:	4320                	.insn	2, 0x4320
    6658:	6566666f          	jal	a2,6ccae <__global_pointer+0x686a6>
    665c:	2065                	.insn	2, 0x2065
    665e:	2026                	.insn	2, 0x2026
    6660:	6f54                	.insn	2, 0x6f54
    6662:	7361                	.insn	2, 0x7361
    6664:	2074                	.insn	2, 0x2074
    6666:	4328                	.insn	2, 0x4328
    6668:	616c                	.insn	2, 0x616c
    666a:	63697373          	csrrci	t1,0x636,18
    666e:	202e                	.insn	2, 0x202e
    6670:	6552                	.insn	2, 0x6552
    6672:	696c                	.insn	2, 0x696c
    6674:	6261                	.insn	2, 0x6261
    6676:	656c                	.insn	2, 0x656c
    6678:	202e                	.insn	2, 0x202e
    667a:	6f4e                	.insn	2, 0x6f4e
    667c:	7220                	.insn	2, 0x7220
    667e:	7369                	.insn	2, 0x7369
    6680:	202c736b          	.insn	4, 0x202c736b
    6684:	6f6e                	.insn	2, 0x6f6e
    6686:	7320                	.insn	2, 0x7320
    6688:	7275                	.insn	2, 0x7275
    668a:	7270                	.insn	2, 0x7270
    668c:	7369                	.insn	2, 0x7369
    668e:	7365                	.insn	2, 0x7365
    6690:	292e                	.insn	2, 0x292e
    6692:	000a                	.insn	2, 0x000a
    6694:	2e32                	.insn	2, 0x2e32
    6696:	4220                	.insn	2, 0x4220
    6698:	6572                	.insn	2, 0x6572
    669a:	6b61                	.insn	2, 0x6b61
    669c:	6166                	.insn	2, 0x6166
    669e:	65207473          	csrrci	s0,0x652,0
    66a2:	206e                	.insn	2, 0x206e
    66a4:	7266                	.insn	2, 0x7266
    66a6:	6e61                	.insn	2, 0x6e61
    66a8:	73696163          	bltu	s2,s6,6dca <__global_pointer+0x27c2>
    66ac:	2820                	.insn	2, 0x2820
    66ae:	2041                	.insn	2, 0x2041
    66b0:	696f7263          	bgeu	t5,s6,6d34 <__global_pointer+0x272c>
    66b4:	6e617373          	csrrci	t1,0x6e6,2
    66b8:	2c74                	.insn	2, 0x2c74
    66ba:	6120                	.insn	2, 0x6120
    66bc:	6320                	.insn	2, 0x6320
    66be:	6769                	.insn	2, 0x6769
    66c0:	7261                	.insn	2, 0x7261
    66c2:	7465                	.insn	2, 0x7465
    66c4:	6574                	.insn	2, 0x6574
    66c6:	202c                	.insn	2, 0x202c
    66c8:	6e61                	.insn	2, 0x6e61
    66ca:	2064                	.insn	2, 0x2064
    66cc:	6564                	.insn	2, 0x6564
    66ce:	7065                	.insn	2, 0x7065
    66d0:	6520                	.insn	2, 0x6520
    66d2:	6978                	.insn	2, 0x6978
    66d4:	6e657473          	csrrci	s0,0x6e6,10
    66d8:	6974                	.insn	2, 0x6974
    66da:	6c61                	.insn	2, 0x6c61
    66dc:	6420                	.insn	2, 0x6420
    66de:	6572                	.insn	2, 0x6572
    66e0:	6461                	.insn	2, 0x6461
    66e2:	292e                	.insn	2, 0x292e
    66e4:	000a                	.insn	2, 0x000a
    66e6:	0000                	.insn	2, 0x
    66e8:	4c202e33          	.insn	4, 0x4c202e33
    66ec:	6665                	.insn	2, 0x6665
    66ee:	6f74                	.insn	2, 0x6f74
    66f0:	6576                	.insn	2, 0x6576
    66f2:	2072                	.insn	2, 0x2072
    66f4:	6950                	.insn	2, 0x6950
    66f6:	7a7a                	.insn	2, 0x7a7a
    66f8:	2061                	.insn	2, 0x2061
    66fa:	5428                	.insn	2, 0x5428
    66fc:	6568                	.insn	2, 0x6568
    66fe:	6720                	.insn	2, 0x6720
    6700:	6572                	.insn	2, 0x6572
    6702:	7361                	.insn	2, 0x7361
    6704:	2079                	.insn	2, 0x2079
    6706:	646f6f67          	.insn	4, 0x646f6f67
    670a:	656e                	.insn	2, 0x656e
    670c:	202c7373          	csrrci	t1,0x202,24
    6710:	6e61                	.insn	2, 0x6e61
    6712:	2064                	.insn	2, 0x2064
    6714:	6e61                	.insn	2, 0x6e61
    6716:	7420                	.insn	2, 0x7420
    6718:	6568                	.insn	2, 0x6568
    671a:	6520                	.insn	2, 0x6520
    671c:	662d6f63          	bltu	s10,sp,6d9a <__global_pointer+0x2792>
    6720:	6972                	.insn	2, 0x6972
    6722:	6e65                	.insn	2, 0x6e65
    6724:	6c64                	.insn	2, 0x6c64
    6726:	2079                	.insn	2, 0x2079
    6728:	696f6863          	bltu	t5,s6,6db8 <__global_pointer+0x27b0>
    672c:	292e6563          	bltu	t3,s2,69b6 <__global_pointer+0x23ae>
    6730:	000a                	.insn	2, 0x000a
    6732:	0000                	.insn	2, 0x
    6734:	a0e2                	.insn	2, 0xa0e2
    6736:	e280                	.insn	2, 0xe280
    6738:	80a0                	.insn	2, 0x80a0
    673a:	a0e2                	.insn	2, 0xa0e2
    673c:	e280                	.insn	2, 0xe280
    673e:	80a0                	.insn	2, 0x80a0
    6740:	a0e2                	.insn	2, 0xa0e2
    6742:	e280                	.insn	2, 0xe280
    6744:	80a0                	.insn	2, 0x80a0
    6746:	a0e2                	.insn	2, 0xa0e2
    6748:	e280                	.insn	2, 0xe280
    674a:	80a0                	.insn	2, 0x80a0
    674c:	a3e2                	.insn	2, 0xa3e2
    674e:	e2a0                	.insn	2, 0xe2a0
    6750:	a3e2a4a3          	sw	t5,-1495(t0)
    6754:	e2a4                	.insn	2, 0xe2a4
    6756:	a3e2a4a3          	sw	t5,-1495(t0)
    675a:	e2a4                	.insn	2, 0xe2a4
    675c:	a3e2a4a3          	sw	t5,-1495(t0)
    6760:	e2a4                	.insn	2, 0xe2a4
    6762:	a3e2a4a3          	sw	t5,-1495(t0)
    6766:	e2a4                	.insn	2, 0xe2a4
    6768:	a3e2a4a3          	sw	t5,-1495(t0)
    676c:	e2a4                	.insn	2, 0xe2a4
    676e:	a3e2a4a3          	sw	t5,-1495(t0)
    6772:	e2a4                	.insn	2, 0xe2a4
    6774:	a0e284a3          	sb	a4,-1527(t0)
    6778:	e280                	.insn	2, 0xe280
    677a:	80a0                	.insn	2, 0x80a0
    677c:	a0e2                	.insn	2, 0xa0e2
    677e:	e280                	.insn	2, 0xe280
    6780:	80a0                	.insn	2, 0x80a0
    6782:	a0e2                	.insn	2, 0xa0e2
    6784:	e280                	.insn	2, 0xe280
    6786:	80a0                	.insn	2, 0x80a0
    6788:	a0e2                	.insn	2, 0xa0e2
    678a:	e280                	.insn	2, 0xe280
    678c:	80a0                	.insn	2, 0x80a0
    678e:	000a                	.insn	2, 0x000a
    6790:	a0e2                	.insn	2, 0xa0e2
    6792:	e280                	.insn	2, 0xe280
    6794:	80a0                	.insn	2, 0x80a0
    6796:	a0e2                	.insn	2, 0xa0e2
    6798:	e280                	.insn	2, 0xe280
    679a:	80a0                	.insn	2, 0x80a0
    679c:	a0e2                	.insn	2, 0xa0e2
    679e:	e280                	.insn	2, 0xe280
    67a0:	80a0                	.insn	2, 0x80a0
    67a2:	a0e2                	.insn	2, 0xa0e2
    67a4:	e280                	.insn	2, 0xe280
    67a6:	80a0                	.insn	2, 0x80a0
    67a8:	a3e2                	.insn	2, 0xa3e2
    67aa:	bfa1e2bf e2bfa3e2 	.insn	8, 0xe2bfa3e2bfa1e2bf
    67b2:	a3e2bfa3          	.insn	4, 0xa3e2bfa3
    67b6:	bfa3e2bf e2bfa3e2 	.insn	8, 0xe2bfa3e2bfa3e2bf
    67be:	a3e2bfa3          	.insn	4, 0xa3e2bfa3
    67c2:	bfa3e2bf e2bfa3e2 	.insn	8, 0xe2bfa3e2bfa3e2bf
    67ca:	a3e2bfa3          	.insn	4, 0xa3e2bfa3
    67ce:	bfa3e2bf e280a0e2 	.insn	8, 0xe280a0e2bfa3e2bf
    67d6:	80a0                	.insn	2, 0x80a0
    67d8:	a0e2                	.insn	2, 0xa0e2
    67da:	e280                	.insn	2, 0xe280
    67dc:	80a0                	.insn	2, 0x80a0
    67de:	a0e2                	.insn	2, 0xa0e2
    67e0:	e280                	.insn	2, 0xe280
    67e2:	80a0                	.insn	2, 0x80a0
    67e4:	a0e2                	.insn	2, 0xa0e2
    67e6:	e280                	.insn	2, 0xe280
    67e8:	80a0                	.insn	2, 0x80a0
    67ea:	000a                	.insn	2, 0x000a
    67ec:	a0e2                	.insn	2, 0xa0e2
    67ee:	e280                	.insn	2, 0xe280
    67f0:	80a0                	.insn	2, 0x80a0
    67f2:	a0e2                	.insn	2, 0xa0e2
    67f4:	e280                	.insn	2, 0xe280
    67f6:	80a0                	.insn	2, 0x80a0
    67f8:	a0e2                	.insn	2, 0xa0e2
    67fa:	e280                	.insn	2, 0xe280
    67fc:	80a0                	.insn	2, 0x80a0
    67fe:	a0e2                	.insn	2, 0xa0e2
    6800:	e280                	.insn	2, 0xe280
    6802:	80a0                	.insn	2, 0x80a0
    6804:	a3e2                	.insn	2, 0xa3e2
    6806:	87a1e2bf e2bfa3e2 	.insn	8, 0xe2bfa3e287a1e2bf
    680e:	a3e2bfa3          	.insn	4, 0xa3e2bfa3
    6812:	bfa3e2bf e2bfa3e2 	.insn	8, 0xe2bfa3e2bfa3e2bf
    681a:	a3e2bfa3          	.insn	4, 0xa3e2bfa3
    681e:	bfa3e2bf e2bfa3e2 	.insn	8, 0xe2bfa3e2bfa3e2bf
    6826:	a3e2bfa3          	.insn	4, 0xa3e2bfa3
    682a:	bfa3e2bf e280a0e2 	.insn	8, 0xe280a0e2bfa3e2bf
    6832:	80a0                	.insn	2, 0x80a0
    6834:	a0e2                	.insn	2, 0xa0e2
    6836:	e280                	.insn	2, 0xe280
    6838:	80a0                	.insn	2, 0x80a0
    683a:	a0e2                	.insn	2, 0xa0e2
    683c:	e280                	.insn	2, 0xe280
    683e:	80a0                	.insn	2, 0x80a0
    6840:	a0e2                	.insn	2, 0xa0e2
    6842:	e280                	.insn	2, 0xe280
    6844:	80a0                	.insn	2, 0x80a0
    6846:	000a                	.insn	2, 0x000a
    6848:	a0e2                	.insn	2, 0xa0e2
    684a:	e280                	.insn	2, 0xe280
    684c:	80a0                	.insn	2, 0x80a0
    684e:	a0e2                	.insn	2, 0xa0e2
    6850:	e280                	.insn	2, 0xe280
    6852:	80a0                	.insn	2, 0x80a0
    6854:	a0e2                	.insn	2, 0xa0e2
    6856:	e280                	.insn	2, 0xe280
    6858:	80a0                	.insn	2, 0x80a0
    685a:	a0e2                	.insn	2, 0xa0e2
    685c:	e280                	.insn	2, 0xe280
    685e:	80a0                	.insn	2, 0x80a0
    6860:	a3e2                	.insn	2, 0xa3e2
    6862:	83a1e2bf e2bfa3e2 	.insn	8, 0xe2bfa3e283a1e2bf
    686a:	a3e2bfa3          	.insn	4, 0xa3e2bfa3
    686e:	bfa3e2bf e2bfa3e2 	.insn	8, 0xe2bfa3e2bfa3e2bf
    6876:	a3e2bfa3          	.insn	4, 0xa3e2bfa3
    687a:	bfa3e2bf e2bfa3e2 	.insn	8, 0xe2bfa3e2bfa3e2bf
    6882:	a3e2bfa3          	.insn	4, 0xa3e2bfa3
    6886:	bfa3e2bf e280a0e2 	.insn	8, 0xe280a0e2bfa3e2bf
    688e:	80a0                	.insn	2, 0x80a0
    6890:	a0e2                	.insn	2, 0xa0e2
    6892:	e280                	.insn	2, 0xe280
    6894:	80a0                	.insn	2, 0x80a0
    6896:	a0e2                	.insn	2, 0xa0e2
    6898:	e280                	.insn	2, 0xe280
    689a:	80a0                	.insn	2, 0x80a0
    689c:	a0e2                	.insn	2, 0xa0e2
    689e:	e280                	.insn	2, 0xe280
    68a0:	80a0                	.insn	2, 0x80a0
    68a2:	000a                	.insn	2, 0x000a
    68a4:	a0e2                	.insn	2, 0xa0e2
    68a6:	e280                	.insn	2, 0xe280
    68a8:	80a0                	.insn	2, 0x80a0
    68aa:	a0e2                	.insn	2, 0xa0e2
    68ac:	e280                	.insn	2, 0xe280
    68ae:	80a0                	.insn	2, 0x80a0
    68b0:	a0e2                	.insn	2, 0xa0e2
    68b2:	e280                	.insn	2, 0xe280
    68b4:	80a0                	.insn	2, 0x80a0
    68b6:	a0e2                	.insn	2, 0xa0e2
    68b8:	e280                	.insn	2, 0xe280
    68ba:	80a0                	.insn	2, 0x80a0
    68bc:	a0e2                	.insn	2, 0xa0e2
    68be:	9ba0e29b          	.insn	4, 0x9ba0e29b
    68c2:	a0e2                	.insn	2, 0xa0e2
    68c4:	9ba0e29b          	.insn	4, 0x9ba0e29b
    68c8:	a0e2                	.insn	2, 0xa0e2
    68ca:	9ba0e29b          	.insn	4, 0x9ba0e29b
    68ce:	a0e2                	.insn	2, 0xa0e2
    68d0:	9ba0e29b          	.insn	4, 0x9ba0e29b
    68d4:	a0e2                	.insn	2, 0xa0e2
    68d6:	9ba0e29b          	.insn	4, 0x9ba0e29b
    68da:	a0e2                	.insn	2, 0xa0e2
    68dc:	9ba0e29b          	.insn	4, 0x9ba0e29b
    68e0:	a0e2                	.insn	2, 0xa0e2
    68e2:	9ba0e29b          	.insn	4, 0x9ba0e29b
    68e6:	a0e2                	.insn	2, 0xa0e2
    68e8:	e280                	.insn	2, 0xe280
    68ea:	80a0                	.insn	2, 0x80a0
    68ec:	a0e2                	.insn	2, 0xa0e2
    68ee:	e280                	.insn	2, 0xe280
    68f0:	80a0                	.insn	2, 0x80a0
    68f2:	a0e2                	.insn	2, 0xa0e2
    68f4:	e280                	.insn	2, 0xe280
    68f6:	80a0                	.insn	2, 0x80a0
    68f8:	a0e2                	.insn	2, 0xa0e2
    68fa:	e280                	.insn	2, 0xe280
    68fc:	80a0                	.insn	2, 0x80a0
    68fe:	000a                	.insn	2, 0x000a
    6900:	a0e2                	.insn	2, 0xa0e2
    6902:	e280                	.insn	2, 0xe280
    6904:	80a0                	.insn	2, 0x80a0
    6906:	a0e2                	.insn	2, 0xa0e2
    6908:	e280                	.insn	2, 0xe280
    690a:	80a0                	.insn	2, 0x80a0
    690c:	a0e2                	.insn	2, 0xa0e2
    690e:	e280                	.insn	2, 0xe280
    6910:	80a0                	.insn	2, 0x80a0
    6912:	a0e2                	.insn	2, 0xa0e2
    6914:	e280                	.insn	2, 0xe280
    6916:	80a0                	.insn	2, 0x80a0
    6918:	a3e2                	.insn	2, 0xa3e2
    691a:	9ba0e2bf e2bfa3e2 	.insn	8, 0xe2bfa3e29ba0e2bf
    6922:	a3e2bfa3          	.insn	4, 0xa3e2bfa3
    6926:	bfa3e2bf e2bfa3e2 	.insn	8, 0xe2bfa3e2bfa3e2bf
    692e:	a3e2bfa3          	.insn	4, 0xa3e2bfa3
    6932:	bfa3e2bf e2bfa3e2 	.insn	8, 0xe2bfa3e2bfa3e2bf
    693a:	a3e2bfa3          	.insn	4, 0xa3e2bfa3
    693e:	bfa3e2bf e280a0e2 	.insn	8, 0xe280a0e2bfa3e2bf
    6946:	80a0                	.insn	2, 0x80a0
    6948:	a0e2                	.insn	2, 0xa0e2
    694a:	e280                	.insn	2, 0xe280
    694c:	80a0                	.insn	2, 0x80a0
    694e:	a0e2                	.insn	2, 0xa0e2
    6950:	e280                	.insn	2, 0xe280
    6952:	80a0                	.insn	2, 0x80a0
    6954:	a0e2                	.insn	2, 0xa0e2
    6956:	e280                	.insn	2, 0xe280
    6958:	80a0                	.insn	2, 0x80a0
    695a:	000a                	.insn	2, 0x000a
    695c:	a0e2                	.insn	2, 0xa0e2
    695e:	e280                	.insn	2, 0xe280
    6960:	80a0                	.insn	2, 0x80a0
    6962:	a0e2                	.insn	2, 0xa0e2
    6964:	e280                	.insn	2, 0xe280
    6966:	80a0                	.insn	2, 0x80a0
    6968:	a0e2                	.insn	2, 0xa0e2
    696a:	e280                	.insn	2, 0xe280
    696c:	80a0                	.insn	2, 0x80a0
    696e:	a0e2                	.insn	2, 0xa0e2
    6970:	e280                	.insn	2, 0xe280
    6972:	80a0                	.insn	2, 0x80a0
    6974:	a3e2                	.insn	2, 0xa3e2
    6976:	80a1e2bf e2bfa3e2 	.insn	8, 0xe2bfa3e280a1e2bf
    697e:	a3e2bfa3          	.insn	4, 0xa3e2bfa3
    6982:	bfa3e2bf e2bfa3e2 	.insn	8, 0xe2bfa3e2bfa3e2bf
    698a:	a3e2bfa3          	.insn	4, 0xa3e2bfa3
    698e:	bfa3e2bf e2bfa3e2 	.insn	8, 0xe2bfa3e2bfa3e2bf
    6996:	a3e2bfa3          	.insn	4, 0xa3e2bfa3
    699a:	bfa3e2bf e280a0e2 	.insn	8, 0xe280a0e2bfa3e2bf
    69a2:	80a0                	.insn	2, 0x80a0
    69a4:	a0e2                	.insn	2, 0xa0e2
    69a6:	e280                	.insn	2, 0xe280
    69a8:	80a0                	.insn	2, 0x80a0
    69aa:	a0e2                	.insn	2, 0xa0e2
    69ac:	e280                	.insn	2, 0xe280
    69ae:	80a0                	.insn	2, 0x80a0
    69b0:	a0e2                	.insn	2, 0xa0e2
    69b2:	e280                	.insn	2, 0xe280
    69b4:	80a0                	.insn	2, 0x80a0
    69b6:	000a                	.insn	2, 0x000a
    69b8:	a0e2                	.insn	2, 0xa0e2
    69ba:	e280                	.insn	2, 0xe280
    69bc:	80a0                	.insn	2, 0x80a0
    69be:	a0e2                	.insn	2, 0xa0e2
    69c0:	e280                	.insn	2, 0xe280
    69c2:	80a0                	.insn	2, 0x80a0
    69c4:	a0e2                	.insn	2, 0xa0e2
    69c6:	e280                	.insn	2, 0xe280
    69c8:	80a0                	.insn	2, 0x80a0
    69ca:	a0e2                	.insn	2, 0xa0e2
    69cc:	e280                	.insn	2, 0xe280
    69ce:	80a0                	.insn	2, 0x80a0
    69d0:	a3e2                	.insn	2, 0xa3e2
    69d2:	87a3e2bf e2bfa3e2 	.insn	8, 0xe2bfa3e287a3e2bf
    69da:	a3e2bfa3          	.insn	4, 0xa3e2bfa3
    69de:	bfa3e2bf e2bfa3e2 	.insn	8, 0xe2bfa3e2bfa3e2bf
    69e6:	a3e2bfa3          	.insn	4, 0xa3e2bfa3
    69ea:	bfa3e2bf e2bfa3e2 	.insn	8, 0xe2bfa3e2bfa3e2bf
    69f2:	a3e2bfa3          	.insn	4, 0xa3e2bfa3
    69f6:	bfa3e2bf e280a0e2 	.insn	8, 0xe280a0e2bfa3e2bf
    69fe:	80a0                	.insn	2, 0x80a0
    6a00:	a0e2                	.insn	2, 0xa0e2
    6a02:	e280                	.insn	2, 0xe280
    6a04:	80a0                	.insn	2, 0x80a0
    6a06:	a0e2                	.insn	2, 0xa0e2
    6a08:	e280                	.insn	2, 0xe280
    6a0a:	80a0                	.insn	2, 0x80a0
    6a0c:	a0e2                	.insn	2, 0xa0e2
    6a0e:	e280                	.insn	2, 0xe280
    6a10:	80a0                	.insn	2, 0x80a0
    6a12:	000a                	.insn	2, 0x000a
    6a14:	6f59                	.insn	2, 0x6f59
    6a16:	2075                	.insn	2, 0x2075
    6a18:	6566                	.insn	2, 0x6566
    6a1a:	6c65                	.insn	2, 0x6c65
    6a1c:	6520                	.insn	2, 0x6520
    6a1e:	656e                	.insn	2, 0x656e
    6a20:	6772                	.insn	2, 0x6772
    6a22:	7a69                	.insn	2, 0x7a69
    6a24:	6465                	.insn	2, 0x6465
    6a26:	6120                	.insn	2, 0x6120
    6a28:	7466                	.insn	2, 0x7466
    6a2a:	7265                	.insn	2, 0x7265
    6a2c:	7920                	.insn	2, 0x7920
    6a2e:	2072756f          	jal	a0,2e434 <__global_pointer+0x29e2c>
    6a32:	66666f63          	bltu	a2,t1,70b0 <__global_pointer+0x2aa8>
    6a36:	6565                	.insn	2, 0x6565
    6a38:	6120                	.insn	2, 0x6120
    6a3a:	646e                	.insn	2, 0x646e
    6a3c:	7420                	.insn	2, 0x7420
    6a3e:	7473616f          	jal	sp,3d984 <__global_pointer+0x3937c>
    6a42:	0a21                	.insn	2, 0x0a21
    6a44:	0000                	.insn	2, 0x
    6a46:	0000                	.insn	2, 0x
    6a48:	6f59                	.insn	2, 0x6f59
    6a4a:	2075                	.insn	2, 0x2075
    6a4c:	6f206f67          	.insn	4, 0x6f206f67
    6a50:	7475                	.insn	2, 0x7475
    6a52:	7420                	.insn	2, 0x7420
    6a54:	6568                	.insn	2, 0x6568
    6a56:	6220                	.insn	2, 0x6220
    6a58:	6c61                	.insn	2, 0x6c61
    6a5a:	796e6f63          	bltu	t3,s6,71f8 <__global_pointer+0x2bf0>
    6a5e:	6120                	.insn	2, 0x6120
    6a60:	646e                	.insn	2, 0x646e
    6a62:	6c20                	.insn	2, 0x6c20
    6a64:	6769                	.insn	2, 0x6769
    6a66:	7468                	.insn	2, 0x7468
    6a68:	7520                	.insn	2, 0x7520
    6a6a:	2070                	.insn	2, 0x2070
    6a6c:	2061                	.insn	2, 0x2061
    6a6e:	67676963          	bltu	a4,s6,70e0 <__global_pointer+0x2ad8>
    6a72:	7261                	.insn	2, 0x7261
    6a74:	7465                	.insn	2, 0x7465
    6a76:	2165                	.insn	2, 0x2165
    6a78:	000a                	.insn	2, 0x000a
    6a7a:	0000                	.insn	2, 0x
    6a7c:	7645                	.insn	2, 0x7645
    6a7e:	6e65                	.insn	2, 0x6e65
    6a80:	6120                	.insn	2, 0x6120
    6a82:	6220                	.insn	2, 0x6220
    6a84:	6461                	.insn	2, 0x6461
    6a86:	7020                	.insn	2, 0x7020
    6a88:	7a69                	.insn	2, 0x7a69
    6a8a:	617a                	.insn	2, 0x617a
    6a8c:	6920                	.insn	2, 0x6920
    6a8e:	74732073          	csrs	0x747,t1
    6a92:	6c69                	.insn	2, 0x6c69
    6a94:	206c                	.insn	2, 0x206c
    6a96:	2061                	.insn	2, 0x2061
    6a98:	646f6f67          	.insn	4, 0x646f6f67
    6a9c:	7020                	.insn	2, 0x7020
    6a9e:	7a69                	.insn	2, 0x7a69
    6aa0:	617a                	.insn	2, 0x617a
    6aa2:	0a21                	.insn	2, 0x0a21
    6aa4:	0000                	.insn	2, 0x
    6aa6:	0000                	.insn	2, 0x
    6aa8:	6f59                	.insn	2, 0x6f59
    6aaa:	2075                	.insn	2, 0x2075
    6aac:	73696177          	.insn	4, 0x73696177
    6ab0:	6274                	.insn	2, 0x6274
    6ab2:	6e61                	.insn	2, 0x6e61
    6ab4:	2064                	.insn	2, 0x2064
    6ab6:	7369                	.insn	2, 0x7369
    6ab8:	7320                	.insn	2, 0x7320
    6aba:	6174                	.insn	2, 0x6174
    6abc:	7472                	.insn	2, 0x7472
    6abe:	6e69                	.insn	2, 0x6e69
    6ac0:	6f742067          	.insn	4, 0x6f742067
    6ac4:	6620                	.insn	2, 0x6620
    6ac6:	6565                	.insn	2, 0x6565
    6ac8:	206c                	.insn	2, 0x206c
    6aca:	696c                	.insn	2, 0x696c
    6acc:	7474                	.insn	2, 0x7474
    6ace:	656c                	.insn	2, 0x656c
    6ad0:	7420                	.insn	2, 0x7420
    6ad2:	6769                	.insn	2, 0x6769
    6ad4:	7468                	.insn	2, 0x7468
    6ad6:	2e2e                	.insn	2, 0x2e2e
    6ad8:	0a2e                	.insn	2, 0x0a2e
    6ada:	0000                	.insn	2, 0x
    6adc:	6f59                	.insn	2, 0x6f59
    6ade:	2075                	.insn	2, 0x2075
    6ae0:	6f64                	.insn	2, 0x6f64
    6ae2:	6275                	.insn	2, 0x6275
    6ae4:	656c                	.insn	2, 0x656c
    6ae6:	632d                	.insn	2, 0x632d
    6ae8:	6568                	.insn	2, 0x6568
    6aea:	74206b63          	bltu	zero,sp,7240 <__global_pointer+0x2c38>
    6aee:	6168                	.insn	2, 0x6168
    6af0:	2074                	.insn	2, 0x2074
    6af2:	6874                	.insn	2, 0x6874
    6af4:	2065                	.insn	2, 0x2065
    6af6:	6e65766f          	jal	a2,5e1dc <__global_pointer+0x59bd4>
    6afa:	6920                	.insn	2, 0x6920
    6afc:	75742073          	csrs	0x757,s0
    6b00:	6e72                	.insn	2, 0x6e72
    6b02:	6465                	.insn	2, 0x6465
    6b04:	6f20                	.insn	2, 0x6f20
    6b06:	6666                	.insn	2, 0x6666
    6b08:	2820                	.insn	2, 0x2820
    6b0a:	6562                	.insn	2, 0x6562
    6b0c:	73756163          	bltu	a0,s7,722e <__global_pointer+0x2c26>
    6b10:	2065                	.insn	2, 0x2065
    6b12:	7274                	.insn	2, 0x7274
    6b14:	7561                	.insn	2, 0x7561
    6b16:	616d                	.insn	2, 0x616d
    6b18:	2c29                	.insn	2, 0x2c29
    6b1a:	6120                	.insn	2, 0x6120
    6b1c:	646e                	.insn	2, 0x646e
    6b1e:	6820                	.insn	2, 0x6820
    6b20:	6165                	.insn	2, 0x6165
    6b22:	2064                	.insn	2, 0x2064
    6b24:	2e74756f          	jal	a0,4e60a <__global_pointer+0x4a002>
    6b28:	000a                	.insn	2, 0x000a
    6b2a:	0000                	.insn	2, 0x
    6b2c:	6854                	.insn	2, 0x6854
    6b2e:	2065                	.insn	2, 0x2065
    6b30:	79746963          	bltu	s0,s7,72c2 <__global_pointer+0x2cba>
    6b34:	7320                	.insn	2, 0x7320
    6b36:	7274                	.insn	2, 0x7274
    6b38:	6565                	.insn	2, 0x6565
    6b3a:	7374                	.insn	2, 0x7374
    6b3c:	6120                	.insn	2, 0x6120
    6b3e:	74696177          	.insn	4, 0x74696177
    6b42:	7920                	.insn	2, 0x7920
    6b44:	80e2756f          	jal	a0,fff2db52 <_stack_end+0xffe24342>
    6b48:	20a6                	.insn	2, 0x20a6
    6b4a:	6e61                	.insn	2, 0x6e61
    6b4c:	2064                	.insn	2, 0x2064
    6b4e:	64206f73          	csrrsi	t5,0x642,0
    6b52:	2073656f          	jal	a0,3d558 <__global_pointer+0x38f50>
    6b56:	6f79                	.insn	2, 0x6f79
    6b58:	7275                	.insn	2, 0x7275
    6b5a:	6f20                	.insn	2, 0x6f20
    6b5c:	6666                	.insn	2, 0x6666
    6b5e:	6369                	.insn	2, 0x6369
    6b60:	2065                	.insn	2, 0x2065
    6b62:	656e                	.insn	2, 0x656e
    6b64:	656d                	.insn	2, 0x656d
    6b66:	2e736973          	csrrsi	s2,0x2e7,6
    6b6a:	000a                	.insn	2, 0x000a
    6b6c:	2020                	.insn	2, 0x2020
    6b6e:	2020                	.insn	2, 0x2020
    6b70:	2020                	.insn	2, 0x2020
    6b72:	2020202f          	.insn	4, 0x2020202f
    6b76:	2020                	.insn	2, 0x2020
    6b78:	5c20                	.insn	2, 0x5c20
    6b7a:	0000                	.insn	2, 0x
    6b7c:	2020                	.insn	2, 0x2020
    6b7e:	2020                	.insn	2, 0x2020
    6b80:	2820                	.insn	2, 0x2820
    6b82:	5f5f 5f5f 5c2f      	.insn	6, 0x5c2f5f5f5f5f
    6b88:	2020                	.insn	2, 0x2020
    6b8a:	0029                	.insn	2, 0x0029
    6b8c:	2020                	.insn	2, 0x2020
    6b8e:	2020                	.insn	2, 0x2020
    6b90:	2020                	.insn	2, 0x2020
    6b92:	5f7c                	.insn	2, 0x5f7c
    6b94:	5f5f 2020 3f55      	.insn	6, 0x3f5520205f5f
    6b9a:	5f28                	.insn	2, 0x5f28
    6b9c:	5f5f 005f 2020      	.insn	6, 0x2020005f5f5f
    6ba2:	2020                	.insn	2, 0x2020
    6ba4:	2020                	.insn	2, 0x2020
    6ba6:	5c5f 2e4c 2020      	.insn	6, 0x20202e4c5c5f
    6bac:	7c20                	.insn	2, 0x7c20
    6bae:	2020                	.insn	2, 0x2020
    6bb0:	2020                	.insn	2, 0x2020
    6bb2:	2020                	.insn	2, 0x2020
    6bb4:	205c                	.insn	2, 0x205c
    6bb6:	2020                	.insn	2, 0x2020
    6bb8:	2020                	.insn	2, 0x2020
    6bba:	5f5f 005f 0000      	.insn	6, 0x005f5f5f
    6bc0:	2020                	.insn	2, 0x2020
    6bc2:	2020                	.insn	2, 0x2020
    6bc4:	222f202f          	.insn	4, 0x222f202f
    6bc8:	2222                	.insn	2, 0x2222
    6bca:	205c                	.insn	2, 0x205c
    6bcc:	272d2e2f          	.insn	4, 0x272d2e2f
    6bd0:	2020                	.insn	2, 0x2020
    6bd2:	2020                	.insn	2, 0x2020
    6bd4:	7c20                	.insn	2, 0x7c20
    6bd6:	2020                	.insn	2, 0x2020
    6bd8:	7c20                	.insn	2, 0x7c20
    6bda:	205c                	.insn	2, 0x205c
    6bdc:	7c20                	.insn	2, 0x7c20
    6bde:	0000                	.insn	2, 0x
    6be0:	2020                	.insn	2, 0x2020
    6be2:	2820                	.insn	2, 0x2820
    6be4:	2f20                	.insn	2, 0x2f20
    6be6:	2020                	.insn	2, 0x2020
    6be8:	2f5f 2075 2020      	.insn	6, 0x202020752f5f
    6bee:	2020                	.insn	2, 0x2020
    6bf0:	207c                	.insn	2, 0x207c
    6bf2:	2020                	.insn	2, 0x2020
    6bf4:	5c20                	.insn	2, 0x5c20
    6bf6:	5f5f 7c5f 295f      	.insn	6, 0x295f7c5f5f5f
    6bfc:	7c5f 0000 2020      	.insn	6, 0x202000007c5f
    6c02:	2020                	.insn	2, 0x2020
    6c04:	7c5c                	.insn	2, 0x7c5c
    6c06:	2020                	.insn	2, 0x2020
    6c08:	5c5c                	.insn	2, 0x5c5c
    6c0a:	2020                	.insn	2, 0x2020
    6c0c:	2020                	.insn	2, 0x2020
    6c0e:	2020                	.insn	2, 0x2020
    6c10:	2020202f          	.insn	4, 0x2020202f
    6c14:	5f5c202f          	.insn	4, 0x5f5c202f
    6c18:	5f28                	.insn	2, 0x5f28
    6c1a:	5f5f 5f20 295f      	.insn	6, 0x295f5f205f5f
    6c20:	0000                	.insn	2, 0x
    6c22:	0000                	.insn	2, 0x
    6c24:	2020                	.insn	2, 0x2020
    6c26:	2020                	.insn	2, 0x2020
    6c28:	7c20                	.insn	2, 0x7c20
    6c2a:	2020                	.insn	2, 0x2020
    6c2c:	5c20                	.insn	2, 0x5c20
    6c2e:	205c                	.insn	2, 0x205c
    6c30:	2020                	.insn	2, 0x2020
    6c32:	2f20                	.insn	2, 0x2f20
    6c34:	2020                	.insn	2, 0x2020
    6c36:	2f20                	.insn	2, 0x2f20
    6c38:	2020                	.insn	2, 0x2020
    6c3a:	207c                	.insn	2, 0x207c
    6c3c:	7c20                	.insn	2, 0x7c20
    6c3e:	2020                	.insn	2, 0x2020
    6c40:	2020                	.insn	2, 0x2020
    6c42:	007c                	.insn	2, 0x007c
    6c44:	2020                	.insn	2, 0x2020
    6c46:	2020                	.insn	2, 0x2020
    6c48:	7c20                	.insn	2, 0x7c20
    6c4a:	2020                	.insn	2, 0x2020
    6c4c:	2020                	.insn	2, 0x2020
    6c4e:	2029                	.insn	2, 0x2029
    6c50:	5f20                	.insn	2, 0x5f20
    6c52:	2020202f          	.insn	4, 0x2020202f
    6c56:	2020202f          	.insn	4, 0x2020202f
    6c5a:	2029                	.insn	2, 0x2029
    6c5c:	7c20                	.insn	2, 0x7c20
    6c5e:	2020                	.insn	2, 0x2020
    6c60:	2020                	.insn	2, 0x2020
    6c62:	007c                	.insn	2, 0x007c
    6c64:	2020                	.insn	2, 0x2020
    6c66:	2020                	.insn	2, 0x2020
    6c68:	5f20                	.insn	2, 0x5f20
    6c6a:	5f5c                	.insn	2, 0x5f5c
    6c6c:	2f5f 2d2e 2027      	.insn	6, 0x20272d2e2f5f
    6c72:	2020                	.insn	2, 0x2020
    6c74:	2f20                	.insn	2, 0x2f20
    6c76:	5f5f 285f 2020      	.insn	6, 0x2020285f5f5f
    6c7c:	7c20                	.insn	2, 0x7c20
    6c7e:	2020                	.insn	2, 0x2020
    6c80:	2020                	.insn	2, 0x2020
    6c82:	007c                	.insn	2, 0x007c
    6c84:	2020                	.insn	2, 0x2020
    6c86:	2f5f 2020 5f5f      	.insn	6, 0x5f5f20202f5f
    6c8c:	5f5f 5f5f 5f5f      	.insn	6, 0x5f5f5f5f5f5f
    6c92:	5f5f 202f 2020      	.insn	6, 0x2020202f5f5f
    6c98:	2020                	.insn	2, 0x2020
    6c9a:	205c                	.insn	2, 0x205c
    6c9c:	7c20                	.insn	2, 0x7c20
    6c9e:	2020                	.insn	2, 0x2020
    6ca0:	2020                	.insn	2, 0x2020
    6ca2:	007c                	.insn	2, 0x007c
    6ca4:	2f20                	.insn	2, 0x2f20
    6ca6:	2f20202f          	.insn	4, 0x2f20202f
    6caa:	2020                	.insn	2, 0x2020
    6cac:	2028                	.insn	2, 0x2028
    6cae:	2020                	.insn	2, 0x2020
    6cb0:	2020                	.insn	2, 0x2020
    6cb2:	2020                	.insn	2, 0x2020
    6cb4:	2020                	.insn	2, 0x2020
    6cb6:	2020                	.insn	2, 0x2020
    6cb8:	2020                	.insn	2, 0x2020
    6cba:	2920                	.insn	2, 0x2920
    6cbc:	7c20                	.insn	2, 0x7c20
    6cbe:	2020                	.insn	2, 0x2020
    6cc0:	2020                	.insn	2, 0x2020
    6cc2:	007c                	.insn	2, 0x007c
    6cc4:	2028                	.insn	2, 0x2028
    6cc6:	5f5c                	.insn	2, 0x5f5c
    6cc8:	7c5f 5f5f 5c5f      	.insn	6, 0x5c5f5f5f7c5f
    6cce:	2020                	.insn	2, 0x2020
    6cd0:	2020                	.insn	2, 0x2020
    6cd2:	5f5c                	.insn	2, 0x5f5c
    6cd4:	5f5f 5f5f 205f      	.insn	6, 0x205f5f5f5f5f
    6cda:	7c5f5f2f          	.insn	4, 0x7c5f5f2f
    6cde:	5f5f 5f5f 007c      	.insn	6, 0x007c5f5f5f5f
    6ce4:	5c20                	.insn	2, 0x5c20
    6ce6:	2020                	.insn	2, 0x2020
    6ce8:	2020                	.insn	2, 0x2020
    6cea:	5f28                	.insn	2, 0x5f28
    6cec:	5f5f 205c 2020      	.insn	6, 0x2020205c5f5f
    6cf2:	5f7c                	.insn	2, 0x5f7c
    6cf4:	5f5f 5f5f 295f      	.insn	6, 0x295f5f5f5f5f
    6cfa:	2f5f 0000 0000      	.insn	6, 0x2f5f
    6d00:	2020                	.insn	2, 0x2020
    6d02:	205c                	.insn	2, 0x205c
    6d04:	2020                	.insn	2, 0x2020
    6d06:	5c7c                	.insn	2, 0x5c7c
    6d08:	2020                	.insn	2, 0x2020
    6d0a:	5c20                	.insn	2, 0x5c20
    6d0c:	2020                	.insn	2, 0x2020
    6d0e:	205c                	.insn	2, 0x205c
    6d10:	2020                	.insn	2, 0x2020
    6d12:	2020                	.insn	2, 0x2020
    6d14:	0000002f          	.insn	4, 0x002f
    6d18:	2020                	.insn	2, 0x2020
    6d1a:	5c20                	.insn	2, 0x5c20
    6d1c:	2020                	.insn	2, 0x2020
    6d1e:	207c                	.insn	2, 0x207c
    6d20:	5f5c                	.insn	2, 0x5f5c
    6d22:	205f 2029 2920      	.insn	6, 0x29202029205f
    6d28:	5f5f 2f5f 0000      	.insn	6, 0x2f5f5f5f
    6d2e:	0000                	.insn	2, 0x
    6d30:	2020                	.insn	2, 0x2020
    6d32:	2020                	.insn	2, 0x2020
    6d34:	205c                	.insn	2, 0x205c
    6d36:	5c20                	.insn	2, 0x5c20
    6d38:	2020                	.insn	2, 0x2020
    6d3a:	2f29                	.insn	2, 0x2f29
    6d3c:	2020                	.insn	2, 0x2020
    6d3e:	285f5f2f          	.insn	4, 0x285f5f2f
    6d42:	0000                	.insn	2, 0x
    6d44:	5f5f 205f 207c      	.insn	6, 0x207c205f5f5f
    6d4a:	2f20                	.insn	2, 0x2f20
    6d4c:	2f5f 5f2f 5f5f      	.insn	6, 0x5f5f5f2f2f5f
    6d52:	207c                	.insn	2, 0x207c
    6d54:	2020                	.insn	2, 0x2020
    6d56:	5f5c                	.insn	2, 0x5f5c
    6d58:	5f5f 5f5f 5f5f      	.insn	6, 0x5f5f5f5f5f5f
    6d5e:	5f5f 0000 0000      	.insn	6, 0x5f5f
    6d64:	2020                	.insn	2, 0x2020
    6d66:	2f5f 2020 2028      	.insn	6, 0x202820202f5f
    6d6c:	554f202f          	.insn	4, 0x554f202f
    6d70:	7575                	.insn	2, 0x7575
    6d72:	2075                	.insn	2, 0x2075
    6d74:	2020                	.insn	2, 0x2020
    6d76:	5c20                	.insn	2, 0x5c20
    6d78:	0000                	.insn	2, 0x
    6d7a:	0000                	.insn	2, 0x
    6d7c:	6020                	.insn	2, 0x6020
    6d7e:	2d2d                	.insn	2, 0x2d2d
    6d80:	2d2d                	.insn	2, 0x2d2d
    6d82:	5f5f2827          	.insn	4, 0x5f5f2827
    6d86:	5f5f 5f5f 5f5f      	.insn	6, 0x5f5f5f5f5f5f
    6d8c:	5f5f 5f5f 0029      	.insn	6, 0x00295f5f5f5f
    6d92:	0000                	.insn	2, 0x
    6d94:	6f59                	.insn	2, 0x6f59
    6d96:	2075                	.insn	2, 0x2075
    6d98:	6566                	.insn	2, 0x6566
    6d9a:	6c65                	.insn	2, 0x6c65
    6d9c:	7420                	.insn	2, 0x7420
    6d9e:	6568                	.insn	2, 0x6568
    6da0:	7520                	.insn	2, 0x7520
    6da2:	6772                	.insn	2, 0x6772
    6da4:	2065                	.insn	2, 0x2065
    6da6:	6f74                	.insn	2, 0x6f74
    6da8:	6720                	.insn	2, 0x6720
    6daa:	6f74206f          	j	49ca0 <__global_pointer+0x45698>
    6dae:	7420                	.insn	2, 0x7420
    6db0:	6568                	.insn	2, 0x6568
    6db2:	7420                	.insn	2, 0x7420
    6db4:	656c696f          	jal	s2,cd40a <__global_pointer+0xc8e02>
    6db8:	2e74                	.insn	2, 0x2e74
    6dba:	000a                	.insn	2, 0x000a
    6dbc:	74616857          	.insn	4, 0x74616857
    6dc0:	7720                	.insn	2, 0x7720
    6dc2:	6c69                	.insn	2, 0x6c69
    6dc4:	206c                	.insn	2, 0x206c
    6dc6:	6f79                	.insn	2, 0x6f79
    6dc8:	2075                	.insn	2, 0x2075
    6dca:	6f64                	.insn	2, 0x6f64
    6dcc:	00000a3f 47202e31 	.insn	8, 0x47202e3100000a3f
    6dd4:	6f74206f          	j	49cca <__global_pointer+0x456c2>
    6dd8:	7420                	.insn	2, 0x7420
    6dda:	6568                	.insn	2, 0x6568
    6ddc:	6e20                	.insn	2, 0x6e20
    6dde:	6165                	.insn	2, 0x6165
    6de0:	6572                	.insn	2, 0x6572
    6de2:	74207473          	csrrci	s0,0x742,0
    6de6:	656c696f          	jal	s2,cd43c <__global_pointer+0xc8e34>
    6dea:	2074                	.insn	2, 0x2074
    6dec:	5128                	.insn	2, 0x5128
    6dee:	6975                	.insn	2, 0x6975
    6df0:	202c6b63          	bltu	s8,sp,7006 <__global_pointer+0x29fe>
    6df4:	6165                	.insn	2, 0x6165
    6df6:	61207973          	csrrci	s2,0x612,0
    6dfa:	646e                	.insn	2, 0x646e
    6dfc:	6f20                	.insn	2, 0x6f20
    6dfe:	7466                	.insn	2, 0x7466
    6e00:	6e65                	.insn	2, 0x6e65
    6e02:	6e20                	.insn	2, 0x6e20
    6e04:	7361                	.insn	2, 0x7361
    6e06:	7974                	.insn	2, 0x7974
    6e08:	0a29                	.insn	2, 0x0a29
    6e0a:	0000                	.insn	2, 0x
    6e0c:	2e32                	.insn	2, 0x2e32
    6e0e:	4720                	.insn	2, 0x4720
    6e10:	6f74206f          	j	49d06 <__global_pointer+0x456fe>
    6e14:	7920                	.insn	2, 0x7920
    6e16:	2072756f          	jal	a0,2e81c <__global_pointer+0x2a214>
    6e1a:	7270                	.insn	2, 0x7270
    6e1c:	6665                	.insn	2, 0x6665
    6e1e:	7265                	.insn	2, 0x7265
    6e20:	6572                	.insn	2, 0x6572
    6e22:	2064                	.insn	2, 0x2064
    6e24:	6f74                	.insn	2, 0x6f74
    6e26:	6c69                	.insn	2, 0x6c69
    6e28:	7465                	.insn	2, 0x7465
    6e2a:	6420                	.insn	2, 0x6420
    6e2c:	736e776f          	jal	a4,ee562 <__global_pointer+0xe9f5a>
    6e30:	6174                	.insn	2, 0x6174
    6e32:	7269                	.insn	2, 0x7269
    6e34:	4d282073          	csrs	0x4d2,a6
    6e38:	7961                	.insn	2, 0x7961
    6e3a:	6562                	.insn	2, 0x6562
    6e3c:	7920                	.insn	2, 0x7920
    6e3e:	2072756f          	jal	a0,2e844 <__global_pointer+0x2a23c>
    6e42:	6562                	.insn	2, 0x6562
    6e44:	65697473          	csrrci	s0,hviprio1h,18
    6e48:	6920                	.insn	2, 0x6920
    6e4a:	68742073          	csrs	0x687,s0
    6e4e:	7265                	.insn	2, 0x7265
    6e50:	2965                	.insn	2, 0x2965
    6e52:	0a20                	.insn	2, 0x0a20
    6e54:	0000                	.insn	2, 0x
    6e56:	0000                	.insn	2, 0x
    6e58:	47202e33          	.insn	4, 0x47202e33
    6e5c:	6f74206f          	j	49d52 <__global_pointer+0x4574a>
    6e60:	7420                	.insn	2, 0x7420
    6e62:	6568                	.insn	2, 0x6568
    6e64:	7320                	.insn	2, 0x7320
    6e66:	6365                	.insn	2, 0x6365
    6e68:	6572                	.insn	2, 0x6572
    6e6a:	2074                	.insn	2, 0x2074
    6e6c:	6f74                	.insn	2, 0x6f74
    6e6e:	6c69                	.insn	2, 0x6c69
    6e70:	7465                	.insn	2, 0x7465
    6e72:	2820                	.insn	2, 0x2820
    6e74:	6f59                	.insn	2, 0x6f59
    6e76:	2075                	.insn	2, 0x2075
    6e78:	776f6e6b          	.insn	4, 0x776f6e6b
    6e7c:	7420                	.insn	2, 0x7420
    6e7e:	6568                	.insn	2, 0x6568
    6e80:	6f20                	.insn	2, 0x6f20
    6e82:	656e                	.insn	2, 0x656e
    6e84:	7520                	.insn	2, 0x7520
    6e86:	2072                	.insn	2, 0x2072
    6e88:	6562                	.insn	2, 0x6562
    6e8a:	65697473          	csrrci	s0,hviprio1h,18
    6e8e:	7420                	.insn	2, 0x7420
    6e90:	20646c6f          	jal	s8,4d096 <__global_pointer+0x48a8e>
    6e94:	6261                	.insn	2, 0x6261
    6e96:	2974756f          	jal	a0,4e92c <__global_pointer+0x4a324>
    6e9a:	000a                	.insn	2, 0x000a
    6e9c:	6d617243          	.insn	4, 0x6d617243
    6ea0:	6570                	.insn	2, 0x6570
    6ea2:	2064                	.insn	2, 0x2064
    6ea4:	6e61                	.insn	2, 0x6e61
    6ea6:	2064                	.insn	2, 0x2064
    6ea8:	6c656d73          	csrrsi	s10,0x6c6,10
    6eac:	796c                	.insn	2, 0x796c
    6eae:	202c                	.insn	2, 0x202c
    6eb0:	7562                	.insn	2, 0x7562
    6eb2:	2074                	.insn	2, 0x2074
    6eb4:	7469                	.insn	2, 0x7469
    6eb6:	6720                	.insn	2, 0x6720
    6eb8:	7465                	.insn	2, 0x7465
    6eba:	68742073          	csrs	0x687,s0
    6ebe:	2065                	.insn	2, 0x2065
    6ec0:	6f6a                	.insn	2, 0x6f6a
    6ec2:	2062                	.insn	2, 0x2062
    6ec4:	6f64                	.insn	2, 0x6f64
    6ec6:	656e                	.insn	2, 0x656e
    6ec8:	202e                	.insn	2, 0x202e
    6eca:	9ff0                	.insn	2, 0x9ff0
    6ecc:	a2a4                	.insn	2, 0xa2a4
    6ece:	000a                	.insn	2, 0x000a
    6ed0:	6854                	.insn	2, 0x6854
    6ed2:	2065                	.insn	2, 0x2065
    6ed4:	6f74                	.insn	2, 0x6f74
    6ed6:	6c69                	.insn	2, 0x6c69
    6ed8:	7465                	.insn	2, 0x7465
    6eda:	7020                	.insn	2, 0x7020
    6edc:	7061                	.insn	2, 0x7061
    6ede:	7265                	.insn	2, 0x7265
    6ee0:	6920                	.insn	2, 0x6920
    6ee2:	68742073          	csrs	0x687,s0
    6ee6:	6e69                	.insn	2, 0x6e69
    6ee8:	656e                	.insn	2, 0x656e
    6eea:	2072                	.insn	2, 0x2072
    6eec:	6874                	.insn	2, 0x6874
    6eee:	6e61                	.insn	2, 0x6e61
    6ef0:	6120                	.insn	2, 0x6120
    6ef2:	6d20                	.insn	2, 0x6d20
    6ef4:	6369                	.insn	2, 0x6369
    6ef6:	6f72                	.insn	2, 0x6f72
    6ef8:	2e6e                	.insn	2, 0x2e6e
    6efa:	2e2e                	.insn	2, 0x2e2e
    6efc:	61656843          	.insn	4, 0x61656843
    6f00:	2070                	.insn	2, 0x2070
    6f02:	6162                	.insn	2, 0x6162
    6f04:	72617473          	csrrci	s0,mhpmevent6h,2
    6f08:	7364                	.insn	2, 0x7364
    6f0a:	0a21                	.insn	2, 0x0a21
    6f0c:	0000                	.insn	2, 0x
    6f0e:	0000                	.insn	2, 0x
    6f10:	6f59                	.insn	2, 0x6f59
    6f12:	2075                	.insn	2, 0x2075
    6f14:	6874                	.insn	2, 0x6874
    6f16:	6e69                	.insn	2, 0x6e69
    6f18:	6f79206b          	.insn	4, 0x6f79206b
    6f1c:	2075                	.insn	2, 0x2075
    6f1e:	6566                	.insn	2, 0x6566
    6f20:	746c                	.insn	2, 0x746c
    6f22:	7520                	.insn	2, 0x7520
    6f24:	2072                	.insn	2, 0x2072
    6f26:	6966                	.insn	2, 0x6966
    6f28:	676e                	.insn	2, 0x676e
    6f2a:	7265                	.insn	2, 0x7265
    6f2c:	6720                	.insn	2, 0x6720
    6f2e:	6874206f          	j	49db4 <__global_pointer+0x457ac>
    6f32:	6f72                	.insn	2, 0x6f72
    6f34:	6775                	.insn	2, 0x6775
    6f36:	2068                	.insn	2, 0x2068
    6f38:	6874                	.insn	2, 0x6874
    6f3a:	2065                	.insn	2, 0x2065
    6f3c:	6170                	.insn	2, 0x6170
    6f3e:	6570                	.insn	2, 0x6570
    6f40:	2072                	.insn	2, 0x2072
    6f42:	7564                	.insn	2, 0x7564
    6f44:	6972                	.insn	2, 0x6972
    6f46:	676e                	.insn	2, 0x676e
    6f48:	6120                	.insn	2, 0x6120
    6f4a:	7720                	.insn	2, 0x7720
    6f4c:	7069                	.insn	2, 0x7069
    6f4e:	2e65                	.insn	2, 0x2e65
    6f50:	f020                	.insn	2, 0xf020
    6f52:	989f 0ab1 0020      	.insn	6, 0x00200ab1989f
    6f58:	6f59                	.insn	2, 0x6f59
    6f5a:	2075                	.insn	2, 0x2075
    6f5c:	6568                	.insn	2, 0x6568
    6f5e:	6461                	.insn	2, 0x6461
    6f60:	7420                	.insn	2, 0x7420
    6f62:	6874206f          	j	49de8 <__global_pointer+0x457e0>
    6f66:	2065                	.insn	2, 0x2065
    6f68:	6f74                	.insn	2, 0x6f74
    6f6a:	6c69                	.insn	2, 0x6c69
    6f6c:	7465                	.insn	2, 0x7465
    6f6e:	6420                	.insn	2, 0x6420
    6f70:	736e776f          	jal	a4,ee6a6 <__global_pointer+0xea09e>
    6f74:	6174                	.insn	2, 0x6174
    6f76:	7269                	.insn	2, 0x7269
    6f78:	000a2e73          	csrrs	t3,ustatus,s4
    6f7c:	6f59                	.insn	2, 0x6f59
    6f7e:	2075                	.insn	2, 0x2075
    6f80:	20656573          	csrrsi	a0,0x206,10
    6f84:	6f79                	.insn	2, 0x6f79
    6f86:	7275                	.insn	2, 0x7275
    6f88:	6e20                	.insn	2, 0x6e20
    6f8a:	6d65                	.insn	2, 0x6d65
    6f8c:	7365                	.insn	2, 0x7365
    6f8e:	7369                	.insn	2, 0x7369
    6f90:	6920                	.insn	2, 0x6920
    6f92:	206e                	.insn	2, 0x206e
    6f94:	6874                	.insn	2, 0x6874
    6f96:	2065                	.insn	2, 0x2065
    6f98:	6964                	.insn	2, 0x6964
    6f9a:	6e617473          	csrrci	s0,0x6e6,2
    6f9e:	2e2e6563          	bltu	t3,sp,7288 <__global_pointer+0x2c80>
    6fa2:	0a2e                	.insn	2, 0x0a2e
    6fa4:	0000                	.insn	2, 0x
    6fa6:	0000                	.insn	2, 0x
    6fa8:	7548                	.insn	2, 0x7548
    6faa:	2c68                	.insn	2, 0x2c68
    6fac:	7320                	.insn	2, 0x7320
    6fae:	6565                	.insn	2, 0x6565
    6fb0:	736d                	.insn	2, 0x736d
    6fb2:	6c20                	.insn	2, 0x6c20
    6fb4:	6b69                	.insn	2, 0x6b69
    6fb6:	2065                	.insn	2, 0x2065
    6fb8:	656d6f73          	csrrsi	t5,hviprio1h,26
    6fbc:	20656e6f          	jal	t3,5d1c2 <__global_pointer+0x58bba>
    6fc0:	6c6f7473          	csrrci	s0,0x6c6,30
    6fc4:	2065                	.insn	2, 0x2065
    6fc6:	6968                	.insn	2, 0x6968
    6fc8:	756c2073          	csrs	0x756,s8
    6fcc:	636e                	.insn	2, 0x636e
    6fce:	2e68                	.insn	2, 0x2e68
    6fd0:	000a                	.insn	2, 0x000a
    6fd2:	0000                	.insn	2, 0x
    6fd4:	6946                	.insn	2, 0x6946
    6fd6:	616e                	.insn	2, 0x616e
    6fd8:	6c6c                	.insn	2, 0x6c6c
    6fda:	2079                	.insn	2, 0x2079
    6fdc:	656d6f73          	csrrsi	t5,hviprio1h,26
    6fe0:	6720                	.insn	2, 0x6720
    6fe2:	20646f6f          	jal	t5,4d1e8 <__global_pointer+0x48be0>
    6fe6:	656e                	.insn	2, 0x656e
    6fe8:	20217377          	.insn	4, 0x20217377
    6fec:	9ff0                	.insn	2, 0x9ff0
    6fee:	8898                	.insn	2, 0x8898
    6ff0:	000a                	.insn	2, 0x000a
    6ff2:	0000                	.insn	2, 0x
    6ff4:	6f59                	.insn	2, 0x6f59
    6ff6:	2075                	.insn	2, 0x2075
    6ff8:	6568                	.insn	2, 0x6568
    6ffa:	6461                	.insn	2, 0x6461
    6ffc:	7420                	.insn	2, 0x7420
    6ffe:	6874206f          	j	49e84 <__global_pointer+0x4587c>
    7002:	2065                	.insn	2, 0x2065
    7004:	72636573          	csrrsi	a0,mhpmevent6h,6
    7008:	7465                	.insn	2, 0x7465
    700a:	7420                	.insn	2, 0x7420
    700c:	656c696f          	jal	s2,cd662 <__global_pointer+0xc905a>
    7010:	2e74                	.insn	2, 0x2e74
    7012:	2e2e                	.insn	2, 0x2e2e
    7014:	000a                	.insn	2, 0x000a
    7016:	0000                	.insn	2, 0x
    7018:	74616857          	.insn	4, 0x74616857
    701c:	7720                	.insn	2, 0x7720
    701e:	7361                	.insn	2, 0x7361
    7020:	7420                	.insn	2, 0x7420
    7022:	6568                	.insn	2, 0x6568
    7024:	6320                	.insn	2, 0x6320
    7026:	2065646f          	jal	s0,5d22c <__global_pointer+0x58c24>
    702a:	6761                	.insn	2, 0x6761
    702c:	6961                	.insn	2, 0x6961
    702e:	2e6e                	.insn	2, 0x2e6e
    7030:	2e2e                	.insn	2, 0x2e2e
    7032:	9ff0203f 0a2094a4 	.insn	8, 0x0a2094a49ff0203f
    703a:	0000                	.insn	2, 0x
    703c:	2068684f          	.insn	4, 0x2068684f
    7040:	6579                	.insn	2, 0x6579
    7042:	6861                	.insn	2, 0x6861
    7044:	202c                	.insn	2, 0x202c
    7046:	7469                	.insn	2, 0x7469
    7048:	7720                	.insn	2, 0x7720
    704a:	7361                	.insn	2, 0x7361
    704c:	3120                	.insn	2, 0x3120
    704e:	3332                	.insn	2, 0x3332
    7050:	0a34                	.insn	2, 0x0a34
    7052:	0000                	.insn	2, 0x
    7054:	6f59                	.insn	2, 0x6f59
    7056:	2075                	.insn	2, 0x2075
    7058:	6e65                	.insn	2, 0x6e65
    705a:	6574                	.insn	2, 0x6574
    705c:	2072                	.insn	2, 0x2072
    705e:	6874                	.insn	2, 0x6874
    7060:	2065                	.insn	2, 0x2065
    7062:	72636573          	csrrsi	a0,mhpmevent6h,6
    7066:	7465                	.insn	2, 0x7465
    7068:	7420                	.insn	2, 0x7420
    706a:	656c696f          	jal	s2,cd6c0 <__global_pointer+0xc90b8>
    706e:	2074                	.insn	2, 0x2074
    7070:	6e61                	.insn	2, 0x6e61
    7072:	2064                	.insn	2, 0x2064
    7074:	7469                	.insn	2, 0x7469
    7076:	6c207327          	.insn	4, 0x6c207327
    707a:	6b69                	.insn	2, 0x6b69
    707c:	2065                	.insn	2, 0x2065
    707e:	2061                	.insn	2, 0x2061
    7080:	20617073          	csrci	0x206,2
    7084:	6e69                	.insn	2, 0x6e69
    7086:	7420                	.insn	2, 0x7420
    7088:	6568                	.insn	2, 0x6568
    708a:	6572                	.insn	2, 0x6572
    708c:	0a21                	.insn	2, 0x0a21
    708e:	0000                	.insn	2, 0x
    7090:	6f59                	.insn	2, 0x6f59
    7092:	2075                	.insn	2, 0x2075
    7094:	6566                	.insn	2, 0x6566
    7096:	6c65                	.insn	2, 0x6c65
    7098:	7220                	.insn	2, 0x7220
    709a:	6665                	.insn	2, 0x6665
    709c:	6572                	.insn	2, 0x6572
    709e:	64656873          	csrrsi	a6,hviprio1,10
    70a2:	6120                	.insn	2, 0x6120
    70a4:	646e                	.insn	2, 0x646e
    70a6:	6920                	.insn	2, 0x6920
    70a8:	206e                	.insn	2, 0x206e
    70aa:	6165                	.insn	2, 0x6165
    70ac:	0a2e6573          	csrrsi	a0,0xa2,28
    70b0:	0000                	.insn	2, 0x
    70b2:	0000                	.insn	2, 0x
    70b4:	614d                	.insn	2, 0x614d
    70b6:	6279                	.insn	2, 0x6279
    70b8:	2065                	.insn	2, 0x2065
    70ba:	2069                	.insn	2, 0x2069
    70bc:	756f6873          	csrrsi	a6,0x756,30
    70c0:	646c                	.insn	2, 0x646c
    70c2:	276e                	.insn	2, 0x276e
    70c4:	2074                	.insn	2, 0x2074
    70c6:	6168                	.insn	2, 0x6168
    70c8:	6576                	.insn	2, 0x6576
    70ca:	6520                	.insn	2, 0x6520
    70cc:	7461                	.insn	2, 0x7461
    70ce:	6e65                	.insn	2, 0x6e65
    70d0:	7420                	.insn	2, 0x7420
    70d2:	6168                	.insn	2, 0x6168
    70d4:	2074                	.insn	2, 0x2074
    70d6:	6970                	.insn	2, 0x6970
    70d8:	7a7a                	.insn	2, 0x7a7a
    70da:	2e61                	.insn	2, 0x2e61
    70dc:	000a                	.insn	2, 0x000a
    70de:	0000                	.insn	2, 0x
    70e0:	6854                	.insn	2, 0x6854
    70e2:	2065                	.insn	2, 0x2065
    70e4:	736f6867          	.insn	4, 0x736f6867
    70e8:	2074                	.insn	2, 0x2074
    70ea:	7420666f          	jal	a2,d82c <__global_pointer+0x9224>
    70ee:	6568                	.insn	2, 0x6568
    70f0:	6420                	.insn	2, 0x6420
    70f2:	6c62756f          	jal	a0,2e7b8 <__global_pointer+0x2a1b0>
    70f6:	2065                	.insn	2, 0x2065
    70f8:	66757473          	csrrci	s0,0x667,10
    70fc:	6566                	.insn	2, 0x6566
    70fe:	2064                	.insn	2, 0x2064
    7100:	73757263          	bgeu	a0,s7,7824 <__global_pointer+0x321c>
    7104:	2074                	.insn	2, 0x2074
    7106:	5858                	.insn	2, 0x5858
    7108:	204c                	.insn	2, 0x204c
    710a:	7274                	.insn	2, 0x7274
    710c:	7069                	.insn	2, 0x7069
    710e:	656c                	.insn	2, 0x656c
    7110:	6320                	.insn	2, 0x6320
    7112:	6568                	.insn	2, 0x6568
    7114:	7365                	.insn	2, 0x7365
    7116:	2065                	.insn	2, 0x2065
    7118:	6570                	.insn	2, 0x6570
    711a:	7070                	.insn	2, 0x7070
    711c:	7265                	.insn	2, 0x7265
    711e:	20696e6f          	jal	t3,9d324 <__global_pointer+0x98d1c>
    7122:	73756173          	csrrsi	sp,mhpmevent23h,10
    7126:	6761                	.insn	2, 0x6761
    7128:	2065                	.insn	2, 0x2065
    712a:	6970                	.insn	2, 0x6970
    712c:	7a7a                	.insn	2, 0x7a7a
    712e:	2061                	.insn	2, 0x2061
    7130:	7369                	.insn	2, 0x7369
    7132:	6320                	.insn	2, 0x6320
    7134:	6e696d6f          	jal	s10,9d81a <__global_pointer+0x99212>
    7138:	2e2e2e67          	.insn	4, 0x2e2e2e67
    713c:	002e                	.insn	2, 0x002e
    713e:	0000                	.insn	2, 0x
    7140:	4242                	.insn	2, 0x4242
    7142:	5242                	.insn	2, 0x5242
    7144:	5252                	.insn	2, 0x5252
    7146:	5252                	.insn	2, 0x5252
    7148:	5252                	.insn	2, 0x5252
    714a:	5252                	.insn	2, 0x5252
    714c:	5252                	.insn	2, 0x5252
    714e:	2154                	.insn	2, 0x2154
    7150:	2021                	.insn	2, 0x2021
    7152:	9ff0                	.insn	2, 0x9ff0
    7154:	a892                	.insn	2, 0xa892
    7156:	9ff0                	.insn	2, 0x9ff0
    7158:	a592                	.insn	2, 0xa592
    715a:	000a                	.insn	2, 0x000a
    715c:	6f59                	.insn	2, 0x6f59
    715e:	2075                	.insn	2, 0x2075
    7160:	6166                	.insn	2, 0x6166
    7162:	7472                	.insn	2, 0x7472
    7164:	6465                	.insn	2, 0x6465
    7166:	6c20                	.insn	2, 0x6c20
    7168:	6c64756f          	jal	a0,4e82e <__global_pointer+0x4a226>
    716c:	2079                	.insn	2, 0x2079
    716e:	6e61                	.insn	2, 0x6e61
    7170:	2064                	.insn	2, 0x2064
    7172:	7665                	.insn	2, 0x7665
    7174:	7265                	.insn	2, 0x7265
    7176:	6f79                	.insn	2, 0x6f79
    7178:	656e                	.insn	2, 0x656e
    717a:	7420                	.insn	2, 0x7420
    717c:	7275                	.insn	2, 0x7275
    717e:	656e                	.insn	2, 0x656e
    7180:	2064                	.insn	2, 0x2064
    7182:	6f74                	.insn	2, 0x6f74
    7184:	6c20                	.insn	2, 0x6c20
    7186:	206b6f6f          	jal	t5,bd38c <__global_pointer+0xb8d84>
    718a:	7461                	.insn	2, 0x7461
    718c:	7920                	.insn	2, 0x7920
    718e:	2e2e756f          	jal	a0,ee470 <__global_pointer+0xe9e68>
    7192:	0a2e                	.insn	2, 0x0a2e
    7194:	0000                	.insn	2, 0x
    7196:	0000                	.insn	2, 0x
    7198:	6f59                	.insn	2, 0x6f59
    719a:	2075                	.insn	2, 0x2075
    719c:	6566                	.insn	2, 0x6566
    719e:	6c65                	.insn	2, 0x6c65
    71a0:	6520                	.insn	2, 0x6520
    71a2:	626d                	.insn	2, 0x626d
    71a4:	7261                	.insn	2, 0x7261
    71a6:	6172                	.insn	2, 0x6172
    71a8:	64657373          	csrrci	t1,hviprio1,10
    71ac:	0a2e                	.insn	2, 0x0a2e
    71ae:	0000                	.insn	2, 0x
    71b0:	6e20684f          	.insn	4, 0x6e20684f
    71b4:	2e2e2e6f          	jal	t3,e9496 <__global_pointer+0xe4e8e>
    71b8:	7920                	.insn	2, 0x7920
    71ba:	2072756f          	jal	a0,2ebc0 <__global_pointer+0x2a5b8>
    71be:	6966666f          	jal	a2,6d854 <__global_pointer+0x6924c>
    71c2:	63206563          	bltu	zero,s2,77ec <__global_pointer+0x31e4>
    71c6:	7572                	.insn	2, 0x7572
    71c8:	69206873          	csrrsi	a6,0x692,0
    71cc:	65682073          	csrs	hviprio1h,a6
    71d0:	6572                	.insn	2, 0x6572
    71d2:	7420                	.insn	2, 0x7420
    71d4:	0a2e6f6f          	jal	t5,ed276 <__global_pointer+0xe8c6e>
    71d8:	0000                	.insn	2, 0x
    71da:	0000                	.insn	2, 0x
    71dc:	6854                	.insn	2, 0x6854
    71de:	7965                	.insn	2, 0x7965
    71e0:	6720                	.insn	2, 0x6720
    71e2:	7669                	.insn	2, 0x7669
    71e4:	2065                	.insn	2, 0x2065
    71e6:	6f79                	.insn	2, 0x6f79
    71e8:	2075                	.insn	2, 0x2075
    71ea:	2061                	.insn	2, 0x2061
    71ec:	6f68                	.insn	2, 0x6f68
    71ee:	7272                	.insn	2, 0x7272
    71f0:	6669                	.insn	2, 0x6669
    71f2:	6569                	.insn	2, 0x6569
    71f4:	2064                	.insn	2, 0x2064
    71f6:	6f6c                	.insn	2, 0x6f6c
    71f8:	62206b6f          	jal	s6,d81a <__global_pointer+0x9212>
    71fc:	6665                	.insn	2, 0x6665
    71fe:	2065726f          	jal	tp,5e404 <__global_pointer+0x59dfc>
    7202:	656e                	.insn	2, 0x656e
    7204:	7672                	.insn	2, 0x7672
    7206:	6c73756f          	jal	a0,3f0cc <__global_pointer+0x3aac4>
    720a:	2079                	.insn	2, 0x2079
    720c:	63756863          	bltu	a0,s7,783c <__global_pointer+0x3234>
    7210:	6e696c6b          	.insn	4, 0x6e696c6b
    7214:	000a2e67          	.insn	4, 0x000a2e67
    7218:	6f59                	.insn	2, 0x6f59
    721a:	2075                	.insn	2, 0x2075
    721c:	746e6177          	.insn	4, 0x746e6177
    7220:	7420                	.insn	2, 0x7420
    7222:	6964206f          	j	498b8 <__global_pointer+0x452b0>
    7226:	70706173          	csrrsi	sp,0x707,0
    722a:	6165                	.insn	2, 0x6165
    722c:	2072                	.insn	2, 0x2072
    722e:	6e69                	.insn	2, 0x6e69
    7230:	6f74                	.insn	2, 0x6f74
    7232:	7420                	.insn	2, 0x7420
    7234:	6568                	.insn	2, 0x6568
    7236:	6620                	.insn	2, 0x6620
    7238:	6f6c                	.insn	2, 0x6f6c
    723a:	0a2e726f          	jal	tp,ee2dc <__global_pointer+0xe9cd4>
    723e:	0000                	.insn	2, 0x
    7240:	6f59                	.insn	2, 0x6f59
    7242:	2075                	.insn	2, 0x2075
    7244:	7261                	.insn	2, 0x7261
    7246:	6972                	.insn	2, 0x6972
    7248:	6576                	.insn	2, 0x6576
    724a:	6120                	.insn	2, 0x6120
    724c:	2074                	.insn	2, 0x2074
    724e:	6f79                	.insn	2, 0x6f79
    7250:	7275                	.insn	2, 0x7275
    7252:	6420                	.insn	2, 0x6420
    7254:	7365                	.insn	2, 0x7365
    7256:	42202e6b          	.insn	4, 0x42202e6b
    725a:	20746f6f          	jal	t5,4dc60 <__global_pointer+0x49658>
    725e:	7075                	.insn	2, 0x7075
    7260:	7920                	.insn	2, 0x7920
    7262:	2072756f          	jal	a0,2ec68 <__global_pointer+0x2a660>
    7266:	706d6f63          	bltu	s10,t1,7984 <__global_pointer+0x337c>
    726a:	7475                	.insn	2, 0x7475
    726c:	7265                	.insn	2, 0x7265
    726e:	6120                	.insn	2, 0x6120
    7270:	69742073          	csrs	0x697,s0
    7274:	656d                	.insn	2, 0x656d
    7276:	7020                	.insn	2, 0x7020
    7278:	7361                	.insn	2, 0x7361
    727a:	2e736573          	csrrsi	a0,0x2e7,6
    727e:	2e2e                	.insn	2, 0x2e2e
    7280:	000a                	.insn	2, 0x000a
    7282:	0000                	.insn	2, 0x
    7284:	3a3a                	.insn	2, 0x3a3a
    7286:	3a3a                	.insn	2, 0x3a3a
    7288:	3d3d                	.insn	2, 0x3d3d
    728a:	3d3d                	.insn	2, 0x3d3d
    728c:	3d3d                	.insn	2, 0x3d3d
    728e:	3d3d                	.insn	2, 0x3d3d
    7290:	3d3d                	.insn	2, 0x3d3d
    7292:	3a3a                	.insn	2, 0x3a3a
    7294:	3a3a                	.insn	2, 0x3a3a
    7296:	3a3a                	.insn	2, 0x3a3a
    7298:	3a3a                	.insn	2, 0x3a3a
    729a:	3a3a                	.insn	2, 0x3a3a
    729c:	3a3a                	.insn	2, 0x3a3a
    729e:	3a3a                	.insn	2, 0x3a3a
    72a0:	3a3a                	.insn	2, 0x3a3a
    72a2:	3a3a                	.insn	2, 0x3a3a
    72a4:	3a3a                	.insn	2, 0x3a3a
    72a6:	3a3a                	.insn	2, 0x3a3a
    72a8:	3a3a                	.insn	2, 0x3a3a
    72aa:	3a3a                	.insn	2, 0x3a3a
    72ac:	3a3a                	.insn	2, 0x3a3a
    72ae:	3a3a                	.insn	2, 0x3a3a
    72b0:	3a3a                	.insn	2, 0x3a3a
    72b2:	3a3a                	.insn	2, 0x3a3a
    72b4:	3a3a                	.insn	2, 0x3a3a
    72b6:	3a3a                	.insn	2, 0x3a3a
    72b8:	3a3a                	.insn	2, 0x3a3a
    72ba:	3a3a                	.insn	2, 0x3a3a
    72bc:	3a3a                	.insn	2, 0x3a3a
    72be:	3a3a                	.insn	2, 0x3a3a
    72c0:	3a3a                	.insn	2, 0x3a3a
    72c2:	3a3a                	.insn	2, 0x3a3a
    72c4:	3a3a                	.insn	2, 0x3a3a
    72c6:	3a3a                	.insn	2, 0x3a3a
    72c8:	0a3a                	.insn	2, 0x0a3a
    72ca:	0000                	.insn	2, 0x
    72cc:	3a3a                	.insn	2, 0x3a3a
    72ce:	3a3a                	.insn	2, 0x3a3a
    72d0:	3a3a                	.insn	2, 0x3a3a
    72d2:	3d3a                	.insn	2, 0x3d3a
    72d4:	3d3d                	.insn	2, 0x3d3d
    72d6:	3d3d                	.insn	2, 0x3d3d
    72d8:	3d3d                	.insn	2, 0x3d3d
    72da:	3d3d                	.insn	2, 0x3d3d
    72dc:	3a3a                	.insn	2, 0x3a3a
    72de:	3a3a                	.insn	2, 0x3a3a
    72e0:	3a3a                	.insn	2, 0x3a3a
    72e2:	2d2e                	.insn	2, 0x2d2e
    72e4:	2d2d                	.insn	2, 0x2d2d
    72e6:	2d2d                	.insn	2, 0x2d2d
    72e8:	2d2d                	.insn	2, 0x2d2d
    72ea:	2d2d                	.insn	2, 0x2d2d
    72ec:	2d2d                	.insn	2, 0x2d2d
    72ee:	2d2d                	.insn	2, 0x2d2d
    72f0:	2d2d                	.insn	2, 0x2d2d
    72f2:	3a2e                	.insn	2, 0x3a2e
    72f4:	3a3a                	.insn	2, 0x3a3a
    72f6:	3a3a                	.insn	2, 0x3a3a
    72f8:	3a3a                	.insn	2, 0x3a3a
    72fa:	3a3a                	.insn	2, 0x3a3a
    72fc:	3a3a                	.insn	2, 0x3a3a
    72fe:	3a3a                	.insn	2, 0x3a3a
    7300:	3a3a                	.insn	2, 0x3a3a
    7302:	3a3a                	.insn	2, 0x3a3a
    7304:	3a3a                	.insn	2, 0x3a3a
    7306:	3a3a                	.insn	2, 0x3a3a
    7308:	3a3a                	.insn	2, 0x3a3a
    730a:	3a3a                	.insn	2, 0x3a3a
    730c:	3a3a                	.insn	2, 0x3a3a
    730e:	3a3a                	.insn	2, 0x3a3a
    7310:	3a3a                	.insn	2, 0x3a3a
    7312:	000a                	.insn	2, 0x000a
    7314:	3a3a                	.insn	2, 0x3a3a
    7316:	3d3a                	.insn	2, 0x3d3a
    7318:	3d3d                	.insn	2, 0x3d3d
    731a:	3d3d                	.insn	2, 0x3d3d
    731c:	3d3d                	.insn	2, 0x3d3d
    731e:	3d3d                	.insn	2, 0x3d3d
    7320:	3d3d                	.insn	2, 0x3d3d
    7322:	3d3d                	.insn	2, 0x3d3d
    7324:	3a3a                	.insn	2, 0x3a3a
    7326:	3a3a                	.insn	2, 0x3a3a
    7328:	3a3a                	.insn	2, 0x3a3a
    732a:	207c                	.insn	2, 0x207c
    732c:	2d2e                	.insn	2, 0x2d2e
    732e:	2d2d                	.insn	2, 0x2d2d
    7330:	2d2d                	.insn	2, 0x2d2d
    7332:	2d2d                	.insn	2, 0x2d2d
    7334:	2d2d                	.insn	2, 0x2d2d
    7336:	2d2d                	.insn	2, 0x2d2d
    7338:	202e                	.insn	2, 0x202e
    733a:	3a7c                	.insn	2, 0x3a7c
    733c:	3a3a                	.insn	2, 0x3a3a
    733e:	3a3a                	.insn	2, 0x3a3a
    7340:	3a3a                	.insn	2, 0x3a3a
    7342:	3a3a                	.insn	2, 0x3a3a
    7344:	3a3a                	.insn	2, 0x3a3a
    7346:	3a3a                	.insn	2, 0x3a3a
    7348:	3a3a                	.insn	2, 0x3a3a
    734a:	3a3a                	.insn	2, 0x3a3a
    734c:	3a3a                	.insn	2, 0x3a3a
    734e:	3a3a                	.insn	2, 0x3a3a
    7350:	3a3a                	.insn	2, 0x3a3a
    7352:	3a3a                	.insn	2, 0x3a3a
    7354:	3a3a                	.insn	2, 0x3a3a
    7356:	3a3a                	.insn	2, 0x3a3a
    7358:	000a                	.insn	2, 0x000a
    735a:	0000                	.insn	2, 0x
    735c:	3a3a                	.insn	2, 0x3a3a
    735e:	3a3a                	.insn	2, 0x3a3a
    7360:	3d3d                	.insn	2, 0x3d3d
    7362:	3d3d                	.insn	2, 0x3d3d
    7364:	3d3d                	.insn	2, 0x3d3d
    7366:	3d3d                	.insn	2, 0x3d3d
    7368:	3d3d                	.insn	2, 0x3d3d
    736a:	3a3a                	.insn	2, 0x3a3a
    736c:	3a3a                	.insn	2, 0x3a3a
    736e:	3a3a                	.insn	2, 0x3a3a
    7370:	3a3a                	.insn	2, 0x3a3a
    7372:	207c                	.insn	2, 0x207c
    7374:	207c                	.insn	2, 0x207c
    7376:	3d3d                	.insn	2, 0x3d3d
    7378:	203d                	.insn	2, 0x203d
    737a:	3d3d                	.insn	2, 0x3d3d
    737c:	3d20                	.insn	2, 0x3d20
    737e:	203d                	.insn	2, 0x203d
    7380:	207c                	.insn	2, 0x207c
    7382:	3a7c                	.insn	2, 0x3a7c
    7384:	3a3a                	.insn	2, 0x3a3a
    7386:	3a3a                	.insn	2, 0x3a3a
    7388:	3a3a                	.insn	2, 0x3a3a
    738a:	3a3a                	.insn	2, 0x3a3a
    738c:	3a3a                	.insn	2, 0x3a3a
    738e:	3a3a                	.insn	2, 0x3a3a
    7390:	3a3a                	.insn	2, 0x3a3a
    7392:	3a3a                	.insn	2, 0x3a3a
    7394:	3a3a                	.insn	2, 0x3a3a
    7396:	3a3a                	.insn	2, 0x3a3a
    7398:	3a3a                	.insn	2, 0x3a3a
    739a:	3a3a                	.insn	2, 0x3a3a
    739c:	3a3a                	.insn	2, 0x3a3a
    739e:	3a3a                	.insn	2, 0x3a3a
    73a0:	3a3a                	.insn	2, 0x3a3a
    73a2:	3a3a                	.insn	2, 0x3a3a
    73a4:	000a                	.insn	2, 0x000a
    73a6:	0000                	.insn	2, 0x
    73a8:	3a3a                	.insn	2, 0x3a3a
    73aa:	3a3a                	.insn	2, 0x3a3a
    73ac:	3d3d                	.insn	2, 0x3d3d
    73ae:	3d3d                	.insn	2, 0x3d3d
    73b0:	3d3d                	.insn	2, 0x3d3d
    73b2:	3d3d                	.insn	2, 0x3d3d
    73b4:	3d3d                	.insn	2, 0x3d3d
    73b6:	3a3a                	.insn	2, 0x3a3a
    73b8:	3a3a                	.insn	2, 0x3a3a
    73ba:	3a3a                	.insn	2, 0x3a3a
    73bc:	3a3a                	.insn	2, 0x3a3a
    73be:	207c                	.insn	2, 0x207c
    73c0:	207c                	.insn	2, 0x207c
    73c2:	4d45                	.insn	2, 0x4d45
    73c4:	4941                	.insn	2, 0x4941
    73c6:	204c                	.insn	2, 0x204c
    73c8:	4420                	.insn	2, 0x4420
    73ca:	207c204f          	.insn	4, 0x207c204f
    73ce:	3a7c                	.insn	2, 0x3a7c
    73d0:	3a3a                	.insn	2, 0x3a3a
    73d2:	3a3a                	.insn	2, 0x3a3a
    73d4:	3a3a                	.insn	2, 0x3a3a
    73d6:	3a3a                	.insn	2, 0x3a3a
    73d8:	3a3a                	.insn	2, 0x3a3a
    73da:	3a3a                	.insn	2, 0x3a3a
    73dc:	3a3a                	.insn	2, 0x3a3a
    73de:	3a3a                	.insn	2, 0x3a3a
    73e0:	3a3a                	.insn	2, 0x3a3a
    73e2:	3a3a                	.insn	2, 0x3a3a
    73e4:	3a3a                	.insn	2, 0x3a3a
    73e6:	3a3a                	.insn	2, 0x3a3a
    73e8:	3a3a                	.insn	2, 0x3a3a
    73ea:	3a3a                	.insn	2, 0x3a3a
    73ec:	3a3a                	.insn	2, 0x3a3a
    73ee:	000a                	.insn	2, 0x000a
    73f0:	3a3a                	.insn	2, 0x3a3a
    73f2:	3a3a                	.insn	2, 0x3a3a
    73f4:	3a3a                	.insn	2, 0x3a3a
    73f6:	3d3a                	.insn	2, 0x3d3a
    73f8:	3d3d                	.insn	2, 0x3d3d
    73fa:	3d3d                	.insn	2, 0x3d3d
    73fc:	3d3d                	.insn	2, 0x3d3d
    73fe:	3d3d                	.insn	2, 0x3d3d
    7400:	273d                	.insn	2, 0x273d
    7402:	3a3a                	.insn	2, 0x3a3a
    7404:	3a3a                	.insn	2, 0x3a3a
    7406:	207c                	.insn	2, 0x207c
    7408:	207c                	.insn	2, 0x207c
    740a:	7520                	.insn	2, 0x7520
    740c:	6772                	.insn	2, 0x6772
    740e:	6e65                	.insn	2, 0x6e65
    7410:	2174                	.insn	2, 0x2174
    7412:	2020                	.insn	2, 0x2020
    7414:	207c                	.insn	2, 0x207c
    7416:	3a7c                	.insn	2, 0x3a7c
    7418:	3a3a                	.insn	2, 0x3a3a
    741a:	3a3a                	.insn	2, 0x3a3a
    741c:	3a3a                	.insn	2, 0x3a3a
    741e:	3a3a                	.insn	2, 0x3a3a
    7420:	3a3a                	.insn	2, 0x3a3a
    7422:	3a3a                	.insn	2, 0x3a3a
    7424:	3a3a                	.insn	2, 0x3a3a
    7426:	3a3a                	.insn	2, 0x3a3a
    7428:	3a3a                	.insn	2, 0x3a3a
    742a:	3a3a                	.insn	2, 0x3a3a
    742c:	3a3a                	.insn	2, 0x3a3a
    742e:	3a3a                	.insn	2, 0x3a3a
    7430:	3a3a                	.insn	2, 0x3a3a
    7432:	3a3a                	.insn	2, 0x3a3a
    7434:	000a                	.insn	2, 0x000a
    7436:	0000                	.insn	2, 0x
    7438:	3a3a                	.insn	2, 0x3a3a
    743a:	3d3a                	.insn	2, 0x3d3a
    743c:	3d3d                	.insn	2, 0x3d3d
    743e:	3d3d                	.insn	2, 0x3d3d
    7440:	3d3d                	.insn	2, 0x3d3d
    7442:	3d3d                	.insn	2, 0x3d3d
    7444:	3d3d                	.insn	2, 0x3d3d
    7446:	3a3a                	.insn	2, 0x3a3a
    7448:	3a3a                	.insn	2, 0x3a3a
    744a:	3a3a                	.insn	2, 0x3a3a
    744c:	3a3a                	.insn	2, 0x3a3a
    744e:	207c                	.insn	2, 0x207c
    7450:	5f7c                	.insn	2, 0x5f7c
    7452:	5f5f 5f5f 5f5f      	.insn	6, 0x5f5f5f5f5f5f
    7458:	5f5f 5f5f 207c      	.insn	6, 0x207c5f5f5f5f
    745e:	3a7c                	.insn	2, 0x3a7c
    7460:	3a3a                	.insn	2, 0x3a3a
    7462:	3a3a                	.insn	2, 0x3a3a
    7464:	283a                	.insn	2, 0x283a
    7466:	3b28                	.insn	2, 0x3b28
    7468:	3a29                	.insn	2, 0x3a29
    746a:	3a3a                	.insn	2, 0x3a3a
    746c:	3a3a                	.insn	2, 0x3a3a
    746e:	3a3a                	.insn	2, 0x3a3a
    7470:	3a3a                	.insn	2, 0x3a3a
    7472:	3a3a                	.insn	2, 0x3a3a
    7474:	3a3a                	.insn	2, 0x3a3a
    7476:	3a3a                	.insn	2, 0x3a3a
    7478:	3a3a                	.insn	2, 0x3a3a
    747a:	3a3a                	.insn	2, 0x3a3a
    747c:	3a3a                	.insn	2, 0x3a3a
    747e:	000a                	.insn	2, 0x000a
    7480:	27272727          	.insn	4, 0x27272727
    7484:	3d3d                	.insn	2, 0x3d3d
    7486:	3d3d                	.insn	2, 0x3d3d
    7488:	3d3d                	.insn	2, 0x3d3d
    748a:	3d3d                	.insn	2, 0x3d3d
    748c:	3d3d                	.insn	2, 0x3d3d
    748e:	3d3d                	.insn	2, 0x3d3d
    7490:	27272727          	.insn	4, 0x27272727
    7494:	5f7c2727          	.insn	4, 0x5f7c2727
    7498:	5f5f 5f5f 5f5f      	.insn	6, 0x5f5f5f5f5f5f
    749e:	5f5f 5f5f 6f6f      	.insn	6, 0x6f6f5f5f5f5f
    74a4:	5f5f 227c 2922      	.insn	6, 0x2922227c5f5f
    74aa:	27272727          	.insn	4, 0x27272727
    74ae:	2222283b          	.insn	4, 0x2222283b
    74b2:	2222                	.insn	2, 0x2222
    74b4:	2222                	.insn	2, 0x2222
    74b6:	2222                	.insn	2, 0x2222
    74b8:	2222                	.insn	2, 0x2222
    74ba:	2222                	.insn	2, 0x2222
    74bc:	2222                	.insn	2, 0x2222
    74be:	2222                	.insn	2, 0x2222
    74c0:	2222                	.insn	2, 0x2222
    74c2:	2222                	.insn	2, 0x2222
    74c4:	000a                	.insn	2, 0x000a
    74c6:	0000                	.insn	2, 0x
    74c8:	2020                	.insn	2, 0x2020
    74ca:	3d3d                	.insn	2, 0x3d3d
    74cc:	3d3d                	.insn	2, 0x3d3d
    74ce:	3d3d                	.insn	2, 0x3d3d
    74d0:	3d3d                	.insn	2, 0x3d3d
    74d2:	3d3d                	.insn	2, 0x3d3d
    74d4:	273d                	.insn	2, 0x273d
    74d6:	2020                	.insn	2, 0x2020
    74d8:	2020                	.insn	2, 0x2020
    74da:	2020                	.insn	2, 0x2020
    74dc:	2020                	.insn	2, 0x2020
    74de:	2020                	.insn	2, 0x2020
    74e0:	5f20                	.insn	2, 0x5f20
    74e2:	5f5f 5f29 5f5f      	.insn	6, 0x5f5f5f295f5f
    74e8:	5f28                	.insn	2, 0x5f28
    74ea:	5f5f 6f2c 2020      	.insn	6, 0x20206f2c5f5f
    74f0:	2028                	.insn	2, 0x2028
    74f2:	2020                	.insn	2, 0x2020
    74f4:	2d2e                	.insn	2, 0x2d2e
    74f6:	2d2d                	.insn	2, 0x2d2d
    74f8:	5f2e                	.insn	2, 0x5f2e
    74fa:	000a                	.insn	2, 0x000a
    74fc:	2020                	.insn	2, 0x2020
    74fe:	2020                	.insn	2, 0x2020
    7500:	3d20                	.insn	2, 0x3d20
    7502:	3d3d                	.insn	2, 0x3d3d
    7504:	3d3d                	.insn	2, 0x3d3d
    7506:	3d3d                	.insn	2, 0x3d3d
    7508:	3d3d                	.insn	2, 0x3d3d
    750a:	3d3d                	.insn	2, 0x3d3d
    750c:	2020                	.insn	2, 0x2020
    750e:	2020                	.insn	2, 0x2020
    7510:	2020                	.insn	2, 0x2020
    7512:	2020                	.insn	2, 0x2020
    7514:	5f7c                	.insn	2, 0x5f7c
    7516:	5f5f 5f5f 5f5f      	.insn	6, 0x5f5f5f5f5f5f
    751c:	5f5f 5f5f 207c      	.insn	6, 0x207c5f5f5f5f
    7522:	2038                	.insn	2, 0x2038
    7524:	5c20                	.insn	2, 0x5c20
    7526:	7c20                	.insn	2, 0x7c20
    7528:	4554                	.insn	2, 0x4554
    752a:	7c41                	.insn	2, 0x7c41
    752c:	295f 2020 2020      	.insn	6, 0x20202020295f
    7532:	2b2e                	.insn	2, 0x2b2e
    7534:	2d2d                	.insn	2, 0x2d2d
    7536:	2d2d                	.insn	2, 0x2d2d
    7538:	2d2d                	.insn	2, 0x2d2d
    753a:	2b2d                	.insn	2, 0x2b2d
    753c:	0a2e                	.insn	2, 0x0a2e
    753e:	0000                	.insn	2, 0x
    7540:	2020                	.insn	2, 0x2020
    7542:	3d3d                	.insn	2, 0x3d3d
    7544:	3d3d                	.insn	2, 0x3d3d
    7546:	3d3d                	.insn	2, 0x3d3d
    7548:	3d3d                	.insn	2, 0x3d3d
    754a:	3d3d                	.insn	2, 0x3d3d
    754c:	203d                	.insn	2, 0x203d
    754e:	2020                	.insn	2, 0x2020
    7550:	2020                	.insn	2, 0x2020
    7552:	2020                	.insn	2, 0x2020
    7554:	2020                	.insn	2, 0x2020
    7556:	2020                	.insn	2, 0x2020
    7558:	2020                	.insn	2, 0x2020
    755a:	2020                	.insn	2, 0x2020
    755c:	2020                	.insn	2, 0x2020
    755e:	2020                	.insn	2, 0x2020
    7560:	2020                	.insn	2, 0x2020
    7562:	386f386f          	jal	a6,fa8e8 <__global_pointer+0xf62e0>
    7566:	2020                	.insn	2, 0x2020
    7568:	2020                	.insn	2, 0x2020
    756a:	2029                	.insn	2, 0x2029
    756c:	5f7c                	.insn	2, 0x5f7c
    756e:	5f5f 207c 2020      	.insn	6, 0x2020207c5f5f
    7574:	2e20                	.insn	2, 0x2e20
    7576:	5f7c2027          	.insn	4, 0x5f7c2027
    757a:	5f5f 5f5f 5f5f      	.insn	6, 0x5f5f5f5f5f5f
    7580:	207c                	.insn	2, 0x207c
    7582:	2e60                	.insn	2, 0x2e60
    7584:	000a                	.insn	2, 0x000a
    7586:	0000                	.insn	2, 0x
    7588:	5f5f 5f5f 5f5f      	.insn	6, 0x5f5f5f5f5f5f
    758e:	5f5f 5f5f 5f5f      	.insn	6, 0x5f5f5f5f5f5f
    7594:	5f5f 5f5f 5f5f      	.insn	6, 0x5f5f5f5f5f5f
    759a:	5f5f 5f5f 5f5f      	.insn	6, 0x5f5f5f5f5f5f
    75a0:	5f5f 5f5f 5f5f      	.insn	6, 0x5f5f5f5f5f5f
    75a6:	5f5f 5f5f 5f5f      	.insn	6, 0x5f5f5f5f5f5f
    75ac:	5f5f 5f5f 5f5f      	.insn	6, 0x5f5f5f5f5f5f
    75b2:	5f5f 5f5f 5f5f      	.insn	6, 0x5f5f5f5f5f5f
    75b8:	5f5f 5f5f 5f5f      	.insn	6, 0x5f5f5f5f5f5f
    75be:	5f5f 5f5f 5f5f      	.insn	6, 0x5f5f5f5f5f5f
    75c4:	5f5f 5f5f 5f5f      	.insn	6, 0x5f5f5f5f5f5f
    75ca:	5f5f 5f5f 0a5f      	.insn	6, 0x0a5f5f5f5f5f
    75d0:	0000                	.insn	2, 0x
    75d2:	0000                	.insn	2, 0x
    75d4:	2e31                	.insn	2, 0x2e31
    75d6:	5420                	.insn	2, 0x5420
    75d8:	6c61                	.insn	2, 0x6c61
    75da:	6f74206b          	.insn	4, 0x6f74206b
    75de:	7920                	.insn	2, 0x7920
    75e0:	2072756f          	jal	a0,2efe6 <__global_pointer+0x2a9de>
    75e4:	6f62                	.insn	2, 0x6f62
    75e6:	28207373          	csrrci	t1,0x282,0
    75ea:	2041                	.insn	2, 0x2041
    75ec:	6972                	.insn	2, 0x6972
    75ee:	20796b73          	csrrsi	s6,0x207,18
    75f2:	6f6d                	.insn	2, 0x6f6d
    75f4:	6576                	.insn	2, 0x6576
    75f6:	292e                	.insn	2, 0x292e
    75f8:	000a                	.insn	2, 0x000a
    75fa:	0000                	.insn	2, 0x
    75fc:	2e32                	.insn	2, 0x2e32
    75fe:	5420                	.insn	2, 0x5420
    7600:	6c61                	.insn	2, 0x6c61
    7602:	6f74206b          	.insn	4, 0x6f74206b
    7606:	7920                	.insn	2, 0x7920
    7608:	2072756f          	jal	a0,2f00e <__global_pointer+0x2aa06>
    760c:	6562                	.insn	2, 0x6562
    760e:	65697473          	csrrci	s0,hviprio1h,18
    7612:	2820                	.insn	2, 0x2820
    7614:	63616c53          	.insn	4, 0x63616c53
    7618:	666f206b          	.insn	4, 0x666f206b
    761c:	2066                	.insn	2, 0x2066
    761e:	6e69                	.insn	2, 0x6e69
    7620:	7320                	.insn	2, 0x7320
    7622:	7974                	.insn	2, 0x7974
    7624:	656c                	.insn	2, 0x656c
    7626:	292e                	.insn	2, 0x292e
    7628:	000a                	.insn	2, 0x000a
    762a:	0000                	.insn	2, 0x
    762c:	54202e33          	.insn	4, 0x54202e33
    7630:	6c61                	.insn	2, 0x6c61
    7632:	6f74206b          	.insn	4, 0x6f74206b
    7636:	7920                	.insn	2, 0x7920
    7638:	2072756f          	jal	a0,2f03e <__global_pointer+0x2aa36>
    763c:	6e61                	.insn	2, 0x6e61
    763e:	6f6e                	.insn	2, 0x6f6e
    7640:	6979                	.insn	2, 0x6979
    7642:	676e                	.insn	2, 0x676e
    7644:	6420                	.insn	2, 0x6420
    7646:	7365                	.insn	2, 0x7365
    7648:	656e206b          	.insn	4, 0x656e206b
    764c:	6769                	.insn	2, 0x6769
    764e:	6268                	.insn	2, 0x6268
    7650:	2820726f          	jal	tp,e8d2 <__global_pointer+0xa2ca>
    7654:	6854                	.insn	2, 0x6854
    7656:	7965                	.insn	2, 0x7965
    7658:	7420                	.insn	2, 0x7420
    765a:	6c61                	.insn	2, 0x6c61
    765c:	2061206b          	.insn	4, 0x2061206b
    7660:	4f4c                	.insn	2, 0x4f4c
    7662:	2e54                	.insn	2, 0x2e54
    7664:	0a29                	.insn	2, 0x0a29
    7666:	0000                	.insn	2, 0x
    7668:	6854                	.insn	2, 0x6854
    766a:	2065                	.insn	2, 0x2065
    766c:	6f62                	.insn	2, 0x6f62
    766e:	69207373          	csrrci	t1,0x692,0
    7672:	74732073          	csrs	0x747,t1
    7676:	6c69                	.insn	2, 0x6c69
    7678:	206c                	.insn	2, 0x206c
    767a:	616d                	.insn	2, 0x616d
    767c:	2064                	.insn	2, 0x2064
    767e:	6261                	.insn	2, 0x6261
    7680:	2074756f          	jal	a0,4f086 <__global_pointer+0x4aa7e>
    7684:	6f79                	.insn	2, 0x6f79
    7686:	2075                	.insn	2, 0x2075
    7688:	6174                	.insn	2, 0x6174
    768a:	676e696b          	.insn	4, 0x676e696b
    768e:	6820                	.insn	2, 0x6820
    7690:	7369                	.insn	2, 0x7369
    7692:	7020                	.insn	2, 0x7020
    7694:	7261                	.insn	2, 0x7261
    7696:	676e696b          	.insn	4, 0x676e696b
    769a:	63617073          	csrci	0x636,2
    769e:	2e65                	.insn	2, 0x2e65
    76a0:	2e2e                	.insn	2, 0x2e2e
    76a2:	000a                	.insn	2, 0x000a
    76a4:	6548                	.insn	2, 0x6548
    76a6:	6420                	.insn	2, 0x6420
    76a8:	7365                	.insn	2, 0x7365
    76aa:	6469                	.insn	2, 0x6469
    76ac:	7365                	.insn	2, 0x7365
    76ae:	7420                	.insn	2, 0x7420
    76b0:	6168                	.insn	2, 0x6168
    76b2:	2074                	.insn	2, 0x2074
    76b4:	6f79                	.insn	2, 0x6f79
    76b6:	7275                	.insn	2, 0x7275
    76b8:	7220                	.insn	2, 0x7220
    76ba:	7061                	.insn	2, 0x7061
    76bc:	6f70                	.insn	2, 0x6f70
    76be:	7472                	.insn	2, 0x7472
    76c0:	6920                	.insn	2, 0x6920
    76c2:	6e692073          	csrs	0x6e6,s2
    76c6:	6461                	.insn	2, 0x6461
    76c8:	7165                	.insn	2, 0x7165
    76ca:	6175                	.insn	2, 0x6175
    76cc:	6574                	.insn	2, 0x6574
    76ce:	6120                	.insn	2, 0x6120
    76d0:	646e                	.insn	2, 0x646e
    76d2:	7920                	.insn	2, 0x7920
    76d4:	6e20756f          	jal	a0,edb6 <__global_pointer+0xa7ae>
    76d8:	6565                	.insn	2, 0x6565
    76da:	2064                	.insn	2, 0x2064
    76dc:	6f74                	.insn	2, 0x6f74
    76de:	7220                	.insn	2, 0x7220
    76e0:	2d65                	.insn	2, 0x2d65
    76e2:	74697277          	.insn	4, 0x74697277
    76e6:	2065                	.insn	2, 0x2065
    76e8:	7469                	.insn	2, 0x7469
    76ea:	0a2e                	.insn	2, 0x0a2e
    76ec:	0000                	.insn	2, 0x
    76ee:	0000                	.insn	2, 0x
    76f0:	4141                	.insn	2, 0x4141
    76f2:	6841                	.insn	2, 0x6841
    76f4:	6868                	.insn	2, 0x6868
    76f6:	4d20                	.insn	2, 0x4d20
    76f8:	4141                	.insn	2, 0x4141
    76fa:	6161                	.insn	2, 0x6161
    76fc:	6565                	.insn	2, 0x6565
    76fe:	6e6e                	.insn	2, 0x6e6e
    7700:	3a20                	.insn	2, 0x3a20
    7702:	0028                	.insn	2, 0x0028
    7704:	6f59                	.insn	2, 0x6f59
    7706:	2075                	.insn	2, 0x2075
    7708:	6168                	.insn	2, 0x6168
    770a:	6576                	.insn	2, 0x6576
    770c:	7420                	.insn	2, 0x7420
    770e:	6568                	.insn	2, 0x6568
    7710:	7320                	.insn	2, 0x7320
    7712:	6d61                	.insn	2, 0x6d61
    7714:	2065                	.insn	2, 0x2065
    7716:	6168                	.insn	2, 0x6168
    7718:	2074                	.insn	2, 0x2074
    771a:	7361                	.insn	2, 0x7361
    771c:	7920                	.insn	2, 0x7920
    771e:	6220756f          	jal	a0,ed40 <__global_pointer+0xa738>
    7722:	2e73736f          	jal	t1,3f208 <__global_pointer+0x3ac00>
    7726:	2e2e                	.insn	2, 0x2e2e
    7728:	000a                	.insn	2, 0x000a
    772a:	0000                	.insn	2, 0x
    772c:	6548                	.insn	2, 0x6548
    772e:	6c20                	.insn	2, 0x6c20
    7730:	6b69                	.insn	2, 0x6b69
    7732:	7365                	.insn	2, 0x7365
    7734:	7920                	.insn	2, 0x7920
    7736:	2072756f          	jal	a0,2f13c <__global_pointer+0x2ab34>
    773a:	6c797473          	csrrci	s0,0x6c7,18
    773e:	2065                	.insn	2, 0x2065
    7740:	9ff0                	.insn	2, 0x9ff0
    7742:	a0a4                	.insn	2, 0xa0a4
    7744:	9ff0                	.insn	2, 0x9ff0
    7746:	8d91                	.insn	2, 0x8d91
    7748:	000a                	.insn	2, 0x000a
    774a:	0000                	.insn	2, 0x
    774c:	6548                	.insn	2, 0x6548
    774e:	6420                	.insn	2, 0x6420
    7750:	7365                	.insn	2, 0x7365
    7752:	6469                	.insn	2, 0x6469
    7754:	7365                	.insn	2, 0x7365
    7756:	7420                	.insn	2, 0x7420
    7758:	6168                	.insn	2, 0x6168
    775a:	2074                	.insn	2, 0x2074
    775c:	6f79                	.insn	2, 0x6f79
    775e:	2075                	.insn	2, 0x2075
    7760:	6564                	.insn	2, 0x6564
    7762:	76726573          	csrrsi	a0,0x767,4
    7766:	2065                	.insn	2, 0x2065
    7768:	2061                	.insn	2, 0x2061
    776a:	6172                	.insn	2, 0x6172
    776c:	7369                	.insn	2, 0x7369
    776e:	2065                	.insn	2, 0x2065
    7770:	9ff0                	.insn	2, 0x9ff0
    7772:	91a4                	.insn	2, 0x91a4
    7774:	0000                	.insn	2, 0x
    7776:	0000                	.insn	2, 0x
    7778:	6f59                	.insn	2, 0x6f59
    777a:	2075                	.insn	2, 0x2075
    777c:	7061                	.insn	2, 0x7061
    777e:	7270                	.insn	2, 0x7270
    7780:	6863616f          	jal	sp,3de06 <__global_pointer+0x397fe>
    7784:	7920                	.insn	2, 0x7920
    7786:	2072756f          	jal	a0,2f18c <__global_pointer+0x2ab84>
    778a:	6f62                	.insn	2, 0x6f62
    778c:	202c7373          	csrrci	t1,0x202,24
    7790:	6568                	.insn	2, 0x6568
    7792:	6920                	.insn	2, 0x6920
    7794:	746e                	.insn	2, 0x746e
    7796:	6f72                	.insn	2, 0x6f72
    7798:	7564                	.insn	2, 0x7564
    779a:	20736563          	bltu	t1,t2,79a4 <__global_pointer+0x339c>
    779e:	6968                	.insn	2, 0x6968
    77a0:	736d                	.insn	2, 0x736d
    77a2:	6c65                	.insn	2, 0x6c65
    77a4:	2066                	.insn	2, 0x2066
    77a6:	6f70                	.insn	2, 0x6f70
    77a8:	696c                	.insn	2, 0x696c
    77aa:	6574                	.insn	2, 0x6574
    77ac:	796c                	.insn	2, 0x796c
    77ae:	6120                	.insn	2, 0x6120
    77b0:	646e                	.insn	2, 0x646e
    77b2:	6120                	.insn	2, 0x6120
    77b4:	20736b73          	csrrsi	s6,0x207,6
    77b8:	6f66                	.insn	2, 0x6f66
    77ba:	2072                	.insn	2, 0x2072
    77bc:	6f79                	.insn	2, 0x6f79
    77be:	7275                	.insn	2, 0x7275
    77c0:	6e20                	.insn	2, 0x6e20
    77c2:	6d61                	.insn	2, 0x6d61
    77c4:	3f65                	.insn	2, 0x3f65
    77c6:	000a                	.insn	2, 0x000a
    77c8:	2e2e                	.insn	2, 0x2e2e
    77ca:	002e                	.insn	2, 0x002e
    77cc:	7449                	.insn	2, 0x7449
    77ce:	00207327          	.insn	4, 0x00207327
    77d2:	0000                	.insn	2, 0x
    77d4:	4f542f2f          	.insn	4, 0x4f542f2f
    77d8:	4f44                	.insn	2, 0x4f44
    77da:	203a                	.insn	2, 0x203a
    77dc:	6464417b          	.insn	4, 0x6464417b
    77e0:	7020                	.insn	2, 0x7020
    77e2:	616c                	.insn	2, 0x616c
    77e4:	6579                	.insn	2, 0x6579
    77e6:	2072                	.insn	2, 0x2072
    77e8:	616e                	.insn	2, 0x616e
    77ea:	656d                	.insn	2, 0x656d
    77ec:	0a7d                	.insn	2, 0x0a7d
    77ee:	0000                	.insn	2, 0x
    77f0:	2749                	.insn	2, 0x2749
    77f2:	6576                	.insn	2, 0x6576
    77f4:	6220                	.insn	2, 0x6220
    77f6:	6565                	.insn	2, 0x6565
    77f8:	206e                	.insn	2, 0x206e
    77fa:	6b726f77          	.insn	4, 0x6b726f77
    77fe:	6e69                	.insn	2, 0x6e69
    7800:	65682067          	.insn	4, 0x65682067
    7804:	6572                	.insn	2, 0x6572
    7806:	6620                	.insn	2, 0x6620
    7808:	3120726f          	jal	tp,eb1a <__global_pointer+0xa512>
    780c:	2030                	.insn	2, 0x2030
    780e:	6579                	.insn	2, 0x6579
    7810:	7261                	.insn	2, 0x7261
    7812:	2e2e2e73          	csrrs	t3,0x2e2,t3
    7816:	0a0a                	.insn	2, 0x0a0a
    7818:	0000                	.insn	2, 0x
    781a:	0000                	.insn	2, 0x
    781c:	4822                	.insn	2, 0x4822
    781e:	6875                	.insn	2, 0x6875
    7820:	2022                	.insn	2, 0x2022
    7822:	6f79                	.insn	2, 0x6f79
    7824:	7275                	.insn	2, 0x7275
    7826:	6220                	.insn	2, 0x6220
    7828:	2073736f          	jal	t1,3f22e <__global_pointer+0x3ac26>
    782c:	7865                	.insn	2, 0x7865
    782e:	69616c63          	bltu	sp,s6,7ec6 <__global_pointer+0x38be>
    7832:	736d                	.insn	2, 0x736d
    7834:	7720                	.insn	2, 0x7720
    7836:	6968                	.insn	2, 0x6968
    7838:	656c                	.insn	2, 0x656c
    783a:	6c20                	.insn	2, 0x6c20
    783c:	696b6f6f          	jal	t5,bded2 <__global_pointer+0xb98ca>
    7840:	676e                	.insn	2, 0x676e
    7842:	6120                	.insn	2, 0x6120
    7844:	2074                	.insn	2, 0x2074
    7846:	6968                	.insn	2, 0x6968
    7848:	61772073          	csrs	0x617,a4
    784c:	6374                	.insn	2, 0x6374
    784e:	2e68                	.insn	2, 0x2e68
    7850:	000a                	.insn	2, 0x000a
    7852:	0000                	.insn	2, 0x
    7854:	5722                	.insn	2, 0x5722
    7856:	6568                	.insn	2, 0x6568
    7858:	706c                	.insn	2, 0x706c
    785a:	202c                	.insn	2, 0x202c
    785c:	2049                	.insn	2, 0x2049
    785e:	6168                	.insn	2, 0x6168
    7860:	6576                	.insn	2, 0x6576
    7862:	6d20                	.insn	2, 0x6d20
    7864:	6565                	.insn	2, 0x6565
    7866:	6974                	.insn	2, 0x6974
    7868:	676e                	.insn	2, 0x676e
    786a:	6f742073          	csrs	0x6f7,s0
    786e:	6120                	.insn	2, 0x6120
    7870:	7474                	.insn	2, 0x7474
    7872:	6e65                	.insn	2, 0x6e65
    7874:	2e64                	.insn	2, 0x2e64
    7876:	4e20                	.insn	2, 0x4e20
    7878:	6369                	.insn	2, 0x6369
    787a:	2065                	.insn	2, 0x2065
    787c:	6f74                	.insn	2, 0x6f74
    787e:	6d20                	.insn	2, 0x6d20
    7880:	6565                	.insn	2, 0x6565
    7882:	2074                	.insn	2, 0x2074
    7884:	6f79                	.insn	2, 0x6f79
    7886:	0075                	.insn	2, 0x0075
    7888:	4f542f2f          	.insn	4, 0x4f542f2f
    788c:	4f44                	.insn	2, 0x4f44
    788e:	203a                	.insn	2, 0x203a
    7890:	6464417b          	.insn	4, 0x6464417b
    7894:	7020                	.insn	2, 0x7020
    7896:	616c                	.insn	2, 0x616c
    7898:	6579                	.insn	2, 0x6579
    789a:	2072                	.insn	2, 0x2072
    789c:	616e                	.insn	2, 0x616e
    789e:	656d                	.insn	2, 0x656d
    78a0:	6220                	.insn	2, 0x6220
    78a2:	7475                	.insn	2, 0x7475
    78a4:	6d20                	.insn	2, 0x6d20
    78a6:	7369                	.insn	2, 0x7369
    78a8:	6c657073          	csrci	0x6c6,10
    78ac:	656c                	.insn	2, 0x656c
    78ae:	7d64                	.insn	2, 0x7d64
    78b0:	0a2e                	.insn	2, 0x0a2e
    78b2:	000a                	.insn	2, 0x000a
    78b4:	20796857          	.insn	4, 0x20796857
    78b8:	6f64                	.insn	2, 0x6f64
    78ba:	4920                	.insn	2, 0x4920
    78bc:	6520                	.insn	2, 0x6520
    78be:	6576                	.insn	2, 0x6576
    78c0:	206e                	.insn	2, 0x206e
    78c2:	6f62                	.insn	2, 0x6f62
    78c4:	6874                	.insn	2, 0x6874
    78c6:	7265                	.insn	2, 0x7265
    78c8:	2e2e                	.insn	2, 0x2e2e
    78ca:	002e                	.insn	2, 0x002e
    78cc:	6f59                	.insn	2, 0x6f59
    78ce:	2075                	.insn	2, 0x2075
    78d0:	64696c73          	csrrsi	s8,hviprio1,18
    78d4:	2065                	.insn	2, 0x2065
    78d6:	6e69                	.insn	2, 0x6e69
    78d8:	6f74                	.insn	2, 0x6f74
    78da:	7920                	.insn	2, 0x7920
    78dc:	2072756f          	jal	a0,2f2e2 <__global_pointer+0x2acda>
    78e0:	6562                	.insn	2, 0x6562
    78e2:	65697473          	csrrci	s0,hviprio1h,18
    78e6:	80e2                	.insn	2, 0x80e2
    78e8:	7399                	.insn	2, 0x7399
    78ea:	6320                	.insn	2, 0x6320
    78ec:	6275                	.insn	2, 0x6275
    78ee:	6369                	.insn	2, 0x6369
    78f0:	656c                	.insn	2, 0x656c
    78f2:	202c                	.insn	2, 0x202c
    78f4:	2061                	.insn	2, 0x2061
    78f6:	776f6e6b          	.insn	4, 0x776f6e6b
    78fa:	6e69                	.insn	2, 0x6e69
    78fc:	6d732067          	.insn	4, 0x6d732067
    7900:	7269                	.insn	2, 0x7269
    7902:	6e6f206b          	.insn	4, 0x6e6f206b
    7906:	7920                	.insn	2, 0x7920
    7908:	2072756f          	jal	a0,2f30e <__global_pointer+0x2ad06>
    790c:	6166                	.insn	2, 0x6166
    790e:	202e6563          	bltu	t3,sp,7b18 <__global_pointer+0x3510>
    7912:	9ff0                	.insn	2, 0x9ff0
    7914:	8f98                	.insn	2, 0x8f98
    7916:	000a                	.insn	2, 0x000a
    7918:	6548                	.insn	2, 0x6548
    791a:	6c20                	.insn	2, 0x6c20
    791c:	736b6f6f          	jal	t5,be052 <__global_pointer+0xb9a4a>
    7920:	6220                	.insn	2, 0x6220
    7922:	6361                	.insn	2, 0x6361
    7924:	61202c6b          	.insn	4, 0x61202c6b
    7928:	646e                	.insn	2, 0x646e
    792a:	7320                	.insn	2, 0x7320
    792c:	6475                	.insn	2, 0x6475
    792e:	6564                	.insn	2, 0x6564
    7930:	6c6e                	.insn	2, 0x6c6e
    7932:	2079                	.insn	2, 0x2079
    7934:	7264                	.insn	2, 0x7264
    7936:	7761                	.insn	2, 0x7761
    7938:	6120                	.insn	2, 0x6120
    793a:	6620                	.insn	2, 0x6620
    793c:	6e69                	.insn	2, 0x6e69
    793e:	67726567          	.insn	4, 0x67726567
    7942:	6e75                	.insn	2, 0x6e75
    7944:	0a21                	.insn	2, 0x0a21
    7946:	0000                	.insn	2, 0x
    7948:	6f59                	.insn	2, 0x6f59
    794a:	2075                	.insn	2, 0x2075
    794c:	7264                	.insn	2, 0x7264
    794e:	7761                	.insn	2, 0x7761
    7950:	7920                	.insn	2, 0x7920
    7952:	7372756f          	jal	a0,2f888 <__global_pointer+0x2b280>
    7956:	7420                	.insn	2, 0x7420
    7958:	61206f6f          	jal	t5,df6a <__global_pointer+0x9962>
    795c:	646e                	.insn	2, 0x646e
    795e:	7920                	.insn	2, 0x7920
    7960:	6e20756f          	jal	a0,f042 <__global_pointer+0xaa3a>
    7964:	6120776f          	jal	a4,ef76 <__global_pointer+0xa96e>
    7968:	6572                	.insn	2, 0x6572
    796a:	6920                	.insn	2, 0x6920
    796c:	206e                	.insn	2, 0x206e
    796e:	2061                	.insn	2, 0x2061
    7970:	6f6f6873          	csrrsi	a6,0x6f6,30
    7974:	6f74                	.insn	2, 0x6f74
    7976:	7475                	.insn	2, 0x7475
    7978:	0a21                	.insn	2, 0x0a21
    797a:	0000                	.insn	2, 0x
    797c:	4850                	.insn	2, 0x4850
    797e:	5745                	.insn	2, 0x5745
    7980:	0000                	.insn	2, 0x
    7982:	0000                	.insn	2, 0x
    7984:	202c                	.insn	2, 0x202c
    7986:	4f50                	.insn	2, 0x4f50
    7988:	00000057          	.insn	4, 0x0057
    798c:	202c                	.insn	2, 0x202c
    798e:	4c42                	.insn	2, 0x4c42
    7990:	4d41                	.insn	2, 0x4d41
    7992:	0a21                	.insn	2, 0x0a21
    7994:	0000                	.insn	2, 0x
    7996:	0000                	.insn	2, 0x
    7998:	6f59                	.insn	2, 0x6f59
    799a:	2075                	.insn	2, 0x2075
    799c:	6f62                	.insn	2, 0x6f62
    799e:	6874                	.insn	2, 0x6874
    79a0:	6c20                	.insn	2, 0x6c20
    79a2:	7561                	.insn	2, 0x7561
    79a4:	61206867          	.insn	4, 0x61206867
    79a8:	646e                	.insn	2, 0x646e
    79aa:	6820                	.insn	2, 0x6820
    79ac:	6769                	.insn	2, 0x6769
    79ae:	2d68                	.insn	2, 0x2d68
    79b0:	6966                	.insn	2, 0x6966
    79b2:	6576                	.insn	2, 0x6576
    79b4:	0a2e                	.insn	2, 0x0a2e
    79b6:	0000                	.insn	2, 0x
    79b8:	6f59                	.insn	2, 0x6f59
    79ba:	2075                	.insn	2, 0x2075
    79bc:	6164                	.insn	2, 0x6164
    79be:	2079                	.insn	2, 0x2079
    79c0:	6566                	.insn	2, 0x6566
    79c2:	6c6c                	.insn	2, 0x6c6c
    79c4:	20612073          	csrs	0x206,sp
    79c8:	696c                	.insn	2, 0x696c
    79ca:	7474                	.insn	2, 0x7474
    79cc:	656c                	.insn	2, 0x656c
    79ce:	6220                	.insn	2, 0x6220
    79d0:	7469                	.insn	2, 0x7469
    79d2:	6220                	.insn	2, 0x6220
    79d4:	7465                	.insn	2, 0x7465
    79d6:	6574                	.insn	2, 0x6574
    79d8:	2072                	.insn	2, 0x2072
    79da:	6f6e                	.insn	2, 0x6f6e
    79dc:	293a2077          	.insn	4, 0x293a2077
    79e0:	0000                	.insn	2, 0x
    79e2:	0000                	.insn	2, 0x
    79e4:	6854                	.insn	2, 0x6854
    79e6:	7965                	.insn	2, 0x7965
    79e8:	7420                	.insn	2, 0x7420
    79ea:	6c65                	.insn	2, 0x6c65
    79ec:	206c                	.insn	2, 0x206c
    79ee:	6f79                	.insn	2, 0x6f79
    79f0:	2075                	.insn	2, 0x2075
    79f2:	6261                	.insn	2, 0x6261
    79f4:	2074756f          	jal	a0,4f3fa <__global_pointer+0x4adf2>
    79f8:	6874                	.insn	2, 0x6874
    79fa:	6965                	.insn	2, 0x6965
    79fc:	2072                	.insn	2, 0x2072
    79fe:	464e                	.insn	2, 0x464e
    7a00:	2054                	.insn	2, 0x2054
    7a02:	6c6c6f63          	bltu	s8,t1,80e0 <__global_pointer+0x3ad8>
    7a06:	6365                	.insn	2, 0x6365
    7a08:	6974                	.insn	2, 0x6974
    7a0a:	2e2e6e6f          	jal	t3,edcec <__global_pointer+0xe96e4>
    7a0e:	0a2e                	.insn	2, 0x0a2e
    7a10:	0000                	.insn	2, 0x
    7a12:	0000                	.insn	2, 0x
    7a14:	6854                	.insn	2, 0x6854
    7a16:	2065                	.insn	2, 0x2065
    7a18:	646e6977          	.insn	4, 0x646e6977
    7a1c:	6220776f          	jal	a4,f03e <__global_pointer+0xaa36>
    7a20:	7365                	.insn	2, 0x7365
    7a22:	6469                	.insn	2, 0x6469
    7a24:	7365                	.insn	2, 0x7365
    7a26:	6920                	.insn	2, 0x6920
    7a28:	68772073          	csrs	0x687,a4
    7a2c:	7369                	.insn	2, 0x7369
    7a2e:	6570                	.insn	2, 0x6570
    7a30:	6972                	.insn	2, 0x6972
    7a32:	676e                	.insn	2, 0x676e
    7a34:	6620                	.insn	2, 0x6620
    7a36:	6d20726f          	jal	tp,f108 <__global_pointer+0xab00>
    7a3a:	2065                	.insn	2, 0x2065
    7a3c:	6f74                	.insn	2, 0x6f74
    7a3e:	6a20                	.insn	2, 0x6a20
    7a40:	7375                	.insn	2, 0x7375
    7a42:	2074                	.insn	2, 0x2074
    7a44:	6f64                	.insn	2, 0x6f64
    7a46:	6920                	.insn	2, 0x6920
    7a48:	2e74                	.insn	2, 0x2e74
    7a4a:	000a                	.insn	2, 0x000a
    7a4c:	6854                	.insn	2, 0x6854
    7a4e:	2065                	.insn	2, 0x2065
    7a50:	7865                	.insn	2, 0x7865
    7a52:	7274                	.insn	2, 0x7274
    7a54:	6d65                	.insn	2, 0x6d65
    7a56:	6c65                	.insn	2, 0x6c65
    7a58:	2079                	.insn	2, 0x2079
    7a5a:	6d69                	.insn	2, 0x6d69
    7a5c:	6f70                	.insn	2, 0x6f70
    7a5e:	7472                	.insn	2, 0x7472
    7a60:	6e61                	.insn	2, 0x6e61
    7a62:	2074                	.insn	2, 0x2074
    7a64:	6e65                	.insn	2, 0x6e65
    7a66:	69676167          	.insn	4, 0x69676167
    7a6a:	676e                	.insn	2, 0x676e
    7a6c:	6d20                	.insn	2, 0x6d20
    7a6e:	6565                	.insn	2, 0x6565
    7a70:	6974                	.insn	2, 0x6974
    7a72:	676e                	.insn	2, 0x676e
    7a74:	6920                	.insn	2, 0x6920
    7a76:	62612073          	csrs	0x626,sp
    7a7a:	2074756f          	jal	a0,4f480 <__global_pointer+0x4ae78>
    7a7e:	6f74                	.insn	2, 0x6f74
    7a80:	6220                	.insn	2, 0x6220
    7a82:	6765                	.insn	2, 0x6765
    7a84:	6e69                	.insn	2, 0x6e69
    7a86:	202c                	.insn	2, 0x202c
    7a88:	2049                	.insn	2, 0x2049
    7a8a:	6562                	.insn	2, 0x6562
    7a8c:	7474                	.insn	2, 0x7474
    7a8e:	7265                	.insn	2, 0x7265
    7a90:	6820                	.insn	2, 0x6820
    7a92:	7275                	.insn	2, 0x7275
    7a94:	7972                	.insn	2, 0x7972
    7a96:	2e2e                	.insn	2, 0x2e2e
    7a98:	202e                	.insn	2, 0x202e
    7a9a:	0000                	.insn	2, 0x
    7a9c:	2020                	.insn	2, 0x2020
    7a9e:	2020                	.insn	2, 0x2020
    7aa0:	2020                	.insn	2, 0x2020
    7aa2:	2020                	.insn	2, 0x2020
    7aa4:	2020                	.insn	2, 0x2020
    7aa6:	2020                	.insn	2, 0x2020
    7aa8:	2020                	.insn	2, 0x2020
    7aaa:	2020                	.insn	2, 0x2020
    7aac:	2020                	.insn	2, 0x2020
    7aae:	2020                	.insn	2, 0x2020
    7ab0:	2020                	.insn	2, 0x2020
    7ab2:	2020                	.insn	2, 0x2020
    7ab4:	2020                	.insn	2, 0x2020
    7ab6:	2020                	.insn	2, 0x2020
    7ab8:	2020                	.insn	2, 0x2020
    7aba:	2520                	.insn	2, 0x2520
    7abc:	2525                	.insn	2, 0x2525
    7abe:	2525                	.insn	2, 0x2525
    7ac0:	2525                	.insn	2, 0x2525
    7ac2:	2525                	.insn	2, 0x2525
    7ac4:	2525                	.insn	2, 0x2525
    7ac6:	2525                	.insn	2, 0x2525
    7ac8:	2525                	.insn	2, 0x2525
    7aca:	2525                	.insn	2, 0x2525
    7acc:	2525                	.insn	2, 0x2525
    7ace:	2525                	.insn	2, 0x2525
    7ad0:	2525                	.insn	2, 0x2525
    7ad2:	2525                	.insn	2, 0x2525
    7ad4:	2525                	.insn	2, 0x2525
    7ad6:	2525                	.insn	2, 0x2525
    7ad8:	2525                	.insn	2, 0x2525
    7ada:	2525                	.insn	2, 0x2525
    7adc:	2525                	.insn	2, 0x2525
    7ade:	2525                	.insn	2, 0x2525
    7ae0:	2525                	.insn	2, 0x2525
    7ae2:	2525                	.insn	2, 0x2525
    7ae4:	2525                	.insn	2, 0x2525
    7ae6:	2525                	.insn	2, 0x2525
    7ae8:	2525                	.insn	2, 0x2525
    7aea:	2525                	.insn	2, 0x2525
    7aec:	2525                	.insn	2, 0x2525
    7aee:	2525                	.insn	2, 0x2525
    7af0:	2525                	.insn	2, 0x2525
    7af2:	2525                	.insn	2, 0x2525
    7af4:	0a25                	.insn	2, 0x0a25
    7af6:	0000                	.insn	2, 0x
    7af8:	2020                	.insn	2, 0x2020
    7afa:	2020                	.insn	2, 0x2020
    7afc:	2020                	.insn	2, 0x2020
    7afe:	2020                	.insn	2, 0x2020
    7b00:	2020                	.insn	2, 0x2020
    7b02:	2020                	.insn	2, 0x2020
    7b04:	2020                	.insn	2, 0x2020
    7b06:	2020                	.insn	2, 0x2020
    7b08:	2020                	.insn	2, 0x2020
    7b0a:	2020                	.insn	2, 0x2020
    7b0c:	2020                	.insn	2, 0x2020
    7b0e:	2020                	.insn	2, 0x2020
    7b10:	2020                	.insn	2, 0x2020
    7b12:	2020                	.insn	2, 0x2020
    7b14:	2020                	.insn	2, 0x2020
    7b16:	4020                	.insn	2, 0x4020
    7b18:	2020                	.insn	2, 0x2020
    7b1a:	2020                	.insn	2, 0x2020
    7b1c:	2020                	.insn	2, 0x2020
    7b1e:	2020                	.insn	2, 0x2020
    7b20:	2020                	.insn	2, 0x2020
    7b22:	2020                	.insn	2, 0x2020
    7b24:	2020                	.insn	2, 0x2020
    7b26:	2020                	.insn	2, 0x2020
    7b28:	2020                	.insn	2, 0x2020
    7b2a:	2020                	.insn	2, 0x2020
    7b2c:	2020                	.insn	2, 0x2020
    7b2e:	2020                	.insn	2, 0x2020
    7b30:	2020                	.insn	2, 0x2020
    7b32:	202e                	.insn	2, 0x202e
    7b34:	2020                	.insn	2, 0x2020
    7b36:	2020                	.insn	2, 0x2020
    7b38:	2020                	.insn	2, 0x2020
    7b3a:	2020                	.insn	2, 0x2020
    7b3c:	2020                	.insn	2, 0x2020
    7b3e:	2020                	.insn	2, 0x2020
    7b40:	2020                	.insn	2, 0x2020
    7b42:	2020                	.insn	2, 0x2020
    7b44:	2020                	.insn	2, 0x2020
    7b46:	2020                	.insn	2, 0x2020
    7b48:	2020                	.insn	2, 0x2020
    7b4a:	2020                	.insn	2, 0x2020
    7b4c:	2020                	.insn	2, 0x2020
    7b4e:	2020                	.insn	2, 0x2020
    7b50:	0a40                	.insn	2, 0x0a40
    7b52:	0000                	.insn	2, 0x
    7b54:	2020                	.insn	2, 0x2020
    7b56:	2020                	.insn	2, 0x2020
    7b58:	2020                	.insn	2, 0x2020
    7b5a:	2020                	.insn	2, 0x2020
    7b5c:	2020                	.insn	2, 0x2020
    7b5e:	2020                	.insn	2, 0x2020
    7b60:	2020                	.insn	2, 0x2020
    7b62:	2020                	.insn	2, 0x2020
    7b64:	2020                	.insn	2, 0x2020
    7b66:	2020                	.insn	2, 0x2020
    7b68:	2020                	.insn	2, 0x2020
    7b6a:	2020                	.insn	2, 0x2020
    7b6c:	2020                	.insn	2, 0x2020
    7b6e:	2020                	.insn	2, 0x2020
    7b70:	2020                	.insn	2, 0x2020
    7b72:	4020                	.insn	2, 0x4020
    7b74:	2020                	.insn	2, 0x2020
    7b76:	2020                	.insn	2, 0x2020
    7b78:	2020                	.insn	2, 0x2020
    7b7a:	2020                	.insn	2, 0x2020
    7b7c:	2020                	.insn	2, 0x2020
    7b7e:	2020                	.insn	2, 0x2020
    7b80:	2020                	.insn	2, 0x2020
    7b82:	2020                	.insn	2, 0x2020
    7b84:	2020                	.insn	2, 0x2020
    7b86:	2020                	.insn	2, 0x2020
    7b88:	2e2e                	.insn	2, 0x2e2e
    7b8a:	2020                	.insn	2, 0x2020
    7b8c:	2d20                	.insn	2, 0x2d20
    7b8e:	2020                	.insn	2, 0x2020
    7b90:	2020                	.insn	2, 0x2020
    7b92:	3a20                	.insn	2, 0x3a20
    7b94:	2020                	.insn	2, 0x2020
    7b96:	2020                	.insn	2, 0x2020
    7b98:	2020                	.insn	2, 0x2020
    7b9a:	2020                	.insn	2, 0x2020
    7b9c:	2020                	.insn	2, 0x2020
    7b9e:	2020                	.insn	2, 0x2020
    7ba0:	2020                	.insn	2, 0x2020
    7ba2:	2020                	.insn	2, 0x2020
    7ba4:	2020                	.insn	2, 0x2020
    7ba6:	2020                	.insn	2, 0x2020
    7ba8:	2020                	.insn	2, 0x2020
    7baa:	2020                	.insn	2, 0x2020
    7bac:	0a40                	.insn	2, 0x0a40
    7bae:	0000                	.insn	2, 0x
    7bb0:	2020                	.insn	2, 0x2020
    7bb2:	2020                	.insn	2, 0x2020
    7bb4:	2020                	.insn	2, 0x2020
    7bb6:	2020                	.insn	2, 0x2020
    7bb8:	2020                	.insn	2, 0x2020
    7bba:	2020                	.insn	2, 0x2020
    7bbc:	2020                	.insn	2, 0x2020
    7bbe:	2020                	.insn	2, 0x2020
    7bc0:	2020                	.insn	2, 0x2020
    7bc2:	2020                	.insn	2, 0x2020
    7bc4:	2020                	.insn	2, 0x2020
    7bc6:	2020                	.insn	2, 0x2020
    7bc8:	2020                	.insn	2, 0x2020
    7bca:	2020                	.insn	2, 0x2020
    7bcc:	2020                	.insn	2, 0x2020
    7bce:	4020                	.insn	2, 0x4020
    7bd0:	2020                	.insn	2, 0x2020
    7bd2:	2020                	.insn	2, 0x2020
    7bd4:	2020                	.insn	2, 0x2020
    7bd6:	2020                	.insn	2, 0x2020
    7bd8:	2020                	.insn	2, 0x2020
    7bda:	2020                	.insn	2, 0x2020
    7bdc:	2020                	.insn	2, 0x2020
    7bde:	2020                	.insn	2, 0x2020
    7be0:	2020                	.insn	2, 0x2020
    7be2:	2020                	.insn	2, 0x2020
    7be4:	3d20                	.insn	2, 0x3d20
    7be6:	202d                	.insn	2, 0x202d
    7be8:	2020                	.insn	2, 0x2020
    7bea:	2e2a                	.insn	2, 0x2e2a
    7bec:	2020                	.insn	2, 0x2020
    7bee:	203d                	.insn	2, 0x203d
    7bf0:	2020                	.insn	2, 0x2020
    7bf2:	2020                	.insn	2, 0x2020
    7bf4:	2020                	.insn	2, 0x2020
    7bf6:	2020                	.insn	2, 0x2020
    7bf8:	2020                	.insn	2, 0x2020
    7bfa:	2020                	.insn	2, 0x2020
    7bfc:	2020                	.insn	2, 0x2020
    7bfe:	2020                	.insn	2, 0x2020
    7c00:	2020                	.insn	2, 0x2020
    7c02:	2020                	.insn	2, 0x2020
    7c04:	2020                	.insn	2, 0x2020
    7c06:	2020                	.insn	2, 0x2020
    7c08:	0a40                	.insn	2, 0x0a40
    7c0a:	0000                	.insn	2, 0x
    7c0c:	2020                	.insn	2, 0x2020
    7c0e:	2020                	.insn	2, 0x2020
    7c10:	2020                	.insn	2, 0x2020
    7c12:	2020                	.insn	2, 0x2020
    7c14:	2020                	.insn	2, 0x2020
    7c16:	2020                	.insn	2, 0x2020
    7c18:	2020                	.insn	2, 0x2020
    7c1a:	2020                	.insn	2, 0x2020
    7c1c:	2020                	.insn	2, 0x2020
    7c1e:	2020                	.insn	2, 0x2020
    7c20:	2020                	.insn	2, 0x2020
    7c22:	2020                	.insn	2, 0x2020
    7c24:	2020                	.insn	2, 0x2020
    7c26:	2020                	.insn	2, 0x2020
    7c28:	2020                	.insn	2, 0x2020
    7c2a:	4020                	.insn	2, 0x4020
    7c2c:	2020                	.insn	2, 0x2020
    7c2e:	2020                	.insn	2, 0x2020
    7c30:	2020                	.insn	2, 0x2020
    7c32:	2020                	.insn	2, 0x2020
    7c34:	2020                	.insn	2, 0x2020
    7c36:	2020                	.insn	2, 0x2020
    7c38:	2020                	.insn	2, 0x2020
    7c3a:	2020                	.insn	2, 0x2020
    7c3c:	2020                	.insn	2, 0x2020
    7c3e:	2020                	.insn	2, 0x2020
    7c40:	2e20                	.insn	2, 0x2e20
    7c42:	202d                	.insn	2, 0x202d
    7c44:	2020                	.insn	2, 0x2020
    7c46:	3a2e                	.insn	2, 0x3a2e
    7c48:	2020                	.insn	2, 0x2020
    7c4a:	2b20                	.insn	2, 0x2b20
    7c4c:	2020                	.insn	2, 0x2020
    7c4e:	2020                	.insn	2, 0x2020
    7c50:	2020                	.insn	2, 0x2020
    7c52:	2020                	.insn	2, 0x2020
    7c54:	2020                	.insn	2, 0x2020
    7c56:	2020                	.insn	2, 0x2020
    7c58:	2020                	.insn	2, 0x2020
    7c5a:	2020                	.insn	2, 0x2020
    7c5c:	2020                	.insn	2, 0x2020
    7c5e:	2020                	.insn	2, 0x2020
    7c60:	2020                	.insn	2, 0x2020
    7c62:	2020                	.insn	2, 0x2020
    7c64:	0a40                	.insn	2, 0x0a40
    7c66:	0000                	.insn	2, 0x
    7c68:	2020                	.insn	2, 0x2020
    7c6a:	2020                	.insn	2, 0x2020
    7c6c:	2020                	.insn	2, 0x2020
    7c6e:	2020                	.insn	2, 0x2020
    7c70:	2020                	.insn	2, 0x2020
    7c72:	2020                	.insn	2, 0x2020
    7c74:	2020                	.insn	2, 0x2020
    7c76:	2020                	.insn	2, 0x2020
    7c78:	2020                	.insn	2, 0x2020
    7c7a:	2020                	.insn	2, 0x2020
    7c7c:	2020                	.insn	2, 0x2020
    7c7e:	2020                	.insn	2, 0x2020
    7c80:	2020                	.insn	2, 0x2020
    7c82:	2020                	.insn	2, 0x2020
    7c84:	2020                	.insn	2, 0x2020
    7c86:	4020                	.insn	2, 0x4020
    7c88:	2020                	.insn	2, 0x2020
    7c8a:	2020                	.insn	2, 0x2020
    7c8c:	2020                	.insn	2, 0x2020
    7c8e:	2020                	.insn	2, 0x2020
    7c90:	2020                	.insn	2, 0x2020
    7c92:	2020                	.insn	2, 0x2020
    7c94:	2020                	.insn	2, 0x2020
    7c96:	2020                	.insn	2, 0x2020
    7c98:	2020                	.insn	2, 0x2020
    7c9a:	2020                	.insn	2, 0x2020
    7c9c:	2d20                	.insn	2, 0x2d20
    7c9e:	2020                	.insn	2, 0x2020
    7ca0:	3a20                	.insn	2, 0x3a20
    7ca2:	2020                	.insn	2, 0x2020
    7ca4:	2020                	.insn	2, 0x2020
    7ca6:	2e20                	.insn	2, 0x2e20
    7ca8:	202e                	.insn	2, 0x202e
    7caa:	2020                	.insn	2, 0x2020
    7cac:	2020                	.insn	2, 0x2020
    7cae:	2020                	.insn	2, 0x2020
    7cb0:	2020                	.insn	2, 0x2020
    7cb2:	2020                	.insn	2, 0x2020
    7cb4:	2020                	.insn	2, 0x2020
    7cb6:	2020                	.insn	2, 0x2020
    7cb8:	2020                	.insn	2, 0x2020
    7cba:	2020                	.insn	2, 0x2020
    7cbc:	2020                	.insn	2, 0x2020
    7cbe:	2020                	.insn	2, 0x2020
    7cc0:	0a40                	.insn	2, 0x0a40
    7cc2:	0000                	.insn	2, 0x
    7cc4:	2020                	.insn	2, 0x2020
    7cc6:	2020                	.insn	2, 0x2020
    7cc8:	2020                	.insn	2, 0x2020
    7cca:	2020                	.insn	2, 0x2020
    7ccc:	2020                	.insn	2, 0x2020
    7cce:	2020                	.insn	2, 0x2020
    7cd0:	2020                	.insn	2, 0x2020
    7cd2:	2020                	.insn	2, 0x2020
    7cd4:	2020                	.insn	2, 0x2020
    7cd6:	2020                	.insn	2, 0x2020
    7cd8:	2020                	.insn	2, 0x2020
    7cda:	2020                	.insn	2, 0x2020
    7cdc:	2020                	.insn	2, 0x2020
    7cde:	2020                	.insn	2, 0x2020
    7ce0:	2020                	.insn	2, 0x2020
    7ce2:	4020                	.insn	2, 0x4020
    7ce4:	2020                	.insn	2, 0x2020
    7ce6:	2020                	.insn	2, 0x2020
    7ce8:	2020                	.insn	2, 0x2020
    7cea:	2020                	.insn	2, 0x2020
    7cec:	2020                	.insn	2, 0x2020
    7cee:	2020                	.insn	2, 0x2020
    7cf0:	2020                	.insn	2, 0x2020
    7cf2:	2020                	.insn	2, 0x2020
    7cf4:	2020                	.insn	2, 0x2020
    7cf6:	2020                	.insn	2, 0x2020
    7cf8:	2020                	.insn	2, 0x2020
    7cfa:	2020                	.insn	2, 0x2020
    7cfc:	2020                	.insn	2, 0x2020
    7cfe:	203a                	.insn	2, 0x203a
    7d00:	2020                	.insn	2, 0x2020
    7d02:	3d20                	.insn	2, 0x3d20
    7d04:	2020                	.insn	2, 0x2020
    7d06:	2020                	.insn	2, 0x2020
    7d08:	2020                	.insn	2, 0x2020
    7d0a:	2020                	.insn	2, 0x2020
    7d0c:	2020                	.insn	2, 0x2020
    7d0e:	2020                	.insn	2, 0x2020
    7d10:	2020                	.insn	2, 0x2020
    7d12:	2020                	.insn	2, 0x2020
    7d14:	2020                	.insn	2, 0x2020
    7d16:	2020                	.insn	2, 0x2020
    7d18:	2020                	.insn	2, 0x2020
    7d1a:	2020                	.insn	2, 0x2020
    7d1c:	0a40                	.insn	2, 0x0a40
    7d1e:	0000                	.insn	2, 0x
    7d20:	2020                	.insn	2, 0x2020
    7d22:	2020                	.insn	2, 0x2020
    7d24:	2020                	.insn	2, 0x2020
    7d26:	2020                	.insn	2, 0x2020
    7d28:	2020                	.insn	2, 0x2020
    7d2a:	2020                	.insn	2, 0x2020
    7d2c:	2020                	.insn	2, 0x2020
    7d2e:	2020                	.insn	2, 0x2020
    7d30:	2020                	.insn	2, 0x2020
    7d32:	2020                	.insn	2, 0x2020
    7d34:	2020                	.insn	2, 0x2020
    7d36:	2020                	.insn	2, 0x2020
    7d38:	2020                	.insn	2, 0x2020
    7d3a:	2020                	.insn	2, 0x2020
    7d3c:	2020                	.insn	2, 0x2020
    7d3e:	4020                	.insn	2, 0x4020
    7d40:	2020                	.insn	2, 0x2020
    7d42:	2020                	.insn	2, 0x2020
    7d44:	2020                	.insn	2, 0x2020
    7d46:	2020                	.insn	2, 0x2020
    7d48:	2020                	.insn	2, 0x2020
    7d4a:	2020                	.insn	2, 0x2020
    7d4c:	2020                	.insn	2, 0x2020
    7d4e:	2020                	.insn	2, 0x2020
    7d50:	3d20                	.insn	2, 0x3d20
    7d52:	3a3a                	.insn	2, 0x3a3a
    7d54:	3a3a                	.insn	2, 0x3a3a
    7d56:	2d3a                	.insn	2, 0x2d3a
    7d58:	2d2d                	.insn	2, 0x2d2d
    7d5a:	2d2d                	.insn	2, 0x2d2d
    7d5c:	2d2d                	.insn	2, 0x2d2d
    7d5e:	2d2d                	.insn	2, 0x2d2d
    7d60:	2d2d                	.insn	2, 0x2d2d
    7d62:	3d3d                	.insn	2, 0x3d3d
    7d64:	2020                	.insn	2, 0x2020
    7d66:	2020                	.insn	2, 0x2020
    7d68:	2020                	.insn	2, 0x2020
    7d6a:	2020                	.insn	2, 0x2020
    7d6c:	2020                	.insn	2, 0x2020
    7d6e:	2020                	.insn	2, 0x2020
    7d70:	2020                	.insn	2, 0x2020
    7d72:	2020                	.insn	2, 0x2020
    7d74:	2020                	.insn	2, 0x2020
    7d76:	2020                	.insn	2, 0x2020
    7d78:	0a40                	.insn	2, 0x0a40
    7d7a:	0000                	.insn	2, 0x
    7d7c:	2020                	.insn	2, 0x2020
    7d7e:	2020                	.insn	2, 0x2020
    7d80:	2020                	.insn	2, 0x2020
    7d82:	2020                	.insn	2, 0x2020
    7d84:	2020                	.insn	2, 0x2020
    7d86:	2020                	.insn	2, 0x2020
    7d88:	2020                	.insn	2, 0x2020
    7d8a:	2020                	.insn	2, 0x2020
    7d8c:	2020                	.insn	2, 0x2020
    7d8e:	2020                	.insn	2, 0x2020
    7d90:	2020                	.insn	2, 0x2020
    7d92:	2020                	.insn	2, 0x2020
    7d94:	2020                	.insn	2, 0x2020
    7d96:	2020                	.insn	2, 0x2020
    7d98:	2020                	.insn	2, 0x2020
    7d9a:	4020                	.insn	2, 0x4020
    7d9c:	2020                	.insn	2, 0x2020
    7d9e:	2020                	.insn	2, 0x2020
    7da0:	2020                	.insn	2, 0x2020
    7da2:	2020                	.insn	2, 0x2020
    7da4:	2020                	.insn	2, 0x2020
    7da6:	2020                	.insn	2, 0x2020
    7da8:	2020                	.insn	2, 0x2020
    7daa:	2020                	.insn	2, 0x2020
    7dac:	2320                	.insn	2, 0x2320
    7dae:	202d                	.insn	2, 0x202d
    7db0:	2020                	.insn	2, 0x2020
    7db2:	2020                	.insn	2, 0x2020
    7db4:	2020                	.insn	2, 0x2020
    7db6:	2020                	.insn	2, 0x2020
    7db8:	2020                	.insn	2, 0x2020
    7dba:	2020                	.insn	2, 0x2020
    7dbc:	2020                	.insn	2, 0x2020
    7dbe:	3a2e                	.insn	2, 0x3a2e
    7dc0:	3a20                	.insn	2, 0x3a20
    7dc2:	202e2b2b          	.insn	4, 0x202e2b2b
    7dc6:	2020                	.insn	2, 0x2020
    7dc8:	2020                	.insn	2, 0x2020
    7dca:	2020                	.insn	2, 0x2020
    7dcc:	2020                	.insn	2, 0x2020
    7dce:	2020                	.insn	2, 0x2020
    7dd0:	2020                	.insn	2, 0x2020
    7dd2:	2020                	.insn	2, 0x2020
    7dd4:	0a40                	.insn	2, 0x0a40
    7dd6:	0000                	.insn	2, 0x
    7dd8:	2020                	.insn	2, 0x2020
    7dda:	2020                	.insn	2, 0x2020
    7ddc:	2020                	.insn	2, 0x2020
    7dde:	2020                	.insn	2, 0x2020
    7de0:	2020                	.insn	2, 0x2020
    7de2:	2020                	.insn	2, 0x2020
    7de4:	2020                	.insn	2, 0x2020
    7de6:	2020                	.insn	2, 0x2020
    7de8:	2020                	.insn	2, 0x2020
    7dea:	2020                	.insn	2, 0x2020
    7dec:	2020                	.insn	2, 0x2020
    7dee:	2020                	.insn	2, 0x2020
    7df0:	2020                	.insn	2, 0x2020
    7df2:	2020                	.insn	2, 0x2020
    7df4:	2020                	.insn	2, 0x2020
    7df6:	4020                	.insn	2, 0x4020
    7df8:	2020                	.insn	2, 0x2020
    7dfa:	2020                	.insn	2, 0x2020
    7dfc:	2020                	.insn	2, 0x2020
    7dfe:	2020                	.insn	2, 0x2020
    7e00:	2020                	.insn	2, 0x2020
    7e02:	2020                	.insn	2, 0x2020
    7e04:	2020                	.insn	2, 0x2020
    7e06:	2020                	.insn	2, 0x2020
    7e08:	2520                	.insn	2, 0x2520
    7e0a:	203d                	.insn	2, 0x203d
    7e0c:	2020                	.insn	2, 0x2020
    7e0e:	2020                	.insn	2, 0x2020
    7e10:	2020                	.insn	2, 0x2020
    7e12:	2020                	.insn	2, 0x2020
    7e14:	2020                	.insn	2, 0x2020
    7e16:	2020                	.insn	2, 0x2020
    7e18:	2020                	.insn	2, 0x2020
    7e1a:	2d2e                	.insn	2, 0x2d2e
    7e1c:	3d3d                	.insn	2, 0x3d3d
    7e1e:	3d2e                	.insn	2, 0x3d2e
    7e20:	202d3a23          	.insn	4, 0x202d3a23
    7e24:	2020                	.insn	2, 0x2020
    7e26:	2020                	.insn	2, 0x2020
    7e28:	2020                	.insn	2, 0x2020
    7e2a:	2020                	.insn	2, 0x2020
    7e2c:	2020                	.insn	2, 0x2020
    7e2e:	2020                	.insn	2, 0x2020
    7e30:	0a40                	.insn	2, 0x0a40
    7e32:	0000                	.insn	2, 0x
    7e34:	2020                	.insn	2, 0x2020
    7e36:	2020                	.insn	2, 0x2020
    7e38:	2020                	.insn	2, 0x2020
    7e3a:	2020                	.insn	2, 0x2020
    7e3c:	2020                	.insn	2, 0x2020
    7e3e:	2020                	.insn	2, 0x2020
    7e40:	2020                	.insn	2, 0x2020
    7e42:	2020                	.insn	2, 0x2020
    7e44:	2020                	.insn	2, 0x2020
    7e46:	2020                	.insn	2, 0x2020
    7e48:	2020                	.insn	2, 0x2020
    7e4a:	2020                	.insn	2, 0x2020
    7e4c:	2020                	.insn	2, 0x2020
    7e4e:	2020                	.insn	2, 0x2020
    7e50:	2020                	.insn	2, 0x2020
    7e52:	4020                	.insn	2, 0x4020
    7e54:	2020                	.insn	2, 0x2020
    7e56:	2020                	.insn	2, 0x2020
    7e58:	2020                	.insn	2, 0x2020
    7e5a:	2020                	.insn	2, 0x2020
    7e5c:	2020                	.insn	2, 0x2020
    7e5e:	2020                	.insn	2, 0x2020
    7e60:	2020                	.insn	2, 0x2020
    7e62:	2020                	.insn	2, 0x2020
    7e64:	2520                	.insn	2, 0x2520
    7e66:	202d                	.insn	2, 0x202d
    7e68:	2020                	.insn	2, 0x2020
    7e6a:	2020                	.insn	2, 0x2020
    7e6c:	2020                	.insn	2, 0x2020
    7e6e:	2020                	.insn	2, 0x2020
    7e70:	2020                	.insn	2, 0x2020
    7e72:	2020                	.insn	2, 0x2020
    7e74:	2020                	.insn	2, 0x2020
    7e76:	3a2e                	.insn	2, 0x3a2e
    7e78:	2020                	.insn	2, 0x2020
    7e7a:	2020                	.insn	2, 0x2020
    7e7c:	2520                	.insn	2, 0x2520
    7e7e:	2020202b          	.insn	4, 0x2020202b
    7e82:	2020                	.insn	2, 0x2020
    7e84:	2020                	.insn	2, 0x2020
    7e86:	2020                	.insn	2, 0x2020
    7e88:	2020                	.insn	2, 0x2020
    7e8a:	2020                	.insn	2, 0x2020
    7e8c:	0a40                	.insn	2, 0x0a40
    7e8e:	0000                	.insn	2, 0x
    7e90:	2020                	.insn	2, 0x2020
    7e92:	2020                	.insn	2, 0x2020
    7e94:	2020                	.insn	2, 0x2020
    7e96:	2020                	.insn	2, 0x2020
    7e98:	2020                	.insn	2, 0x2020
    7e9a:	2020                	.insn	2, 0x2020
    7e9c:	2020                	.insn	2, 0x2020
    7e9e:	2020                	.insn	2, 0x2020
    7ea0:	2020                	.insn	2, 0x2020
    7ea2:	2020                	.insn	2, 0x2020
    7ea4:	2020                	.insn	2, 0x2020
    7ea6:	2020                	.insn	2, 0x2020
    7ea8:	2020                	.insn	2, 0x2020
    7eaa:	2020                	.insn	2, 0x2020
    7eac:	2020                	.insn	2, 0x2020
    7eae:	4020                	.insn	2, 0x4020
    7eb0:	2020                	.insn	2, 0x2020
    7eb2:	2020                	.insn	2, 0x2020
    7eb4:	2020                	.insn	2, 0x2020
    7eb6:	2020                	.insn	2, 0x2020
    7eb8:	2020                	.insn	2, 0x2020
    7eba:	2020                	.insn	2, 0x2020
    7ebc:	2020                	.insn	2, 0x2020
    7ebe:	2020                	.insn	2, 0x2020
    7ec0:	4020                	.insn	2, 0x4020
    7ec2:	202e                	.insn	2, 0x202e
    7ec4:	2020                	.insn	2, 0x2020
    7ec6:	2020                	.insn	2, 0x2020
    7ec8:	2020                	.insn	2, 0x2020
    7eca:	2020                	.insn	2, 0x2020
    7ecc:	2020                	.insn	2, 0x2020
    7ece:	2020                	.insn	2, 0x2020
    7ed0:	2020                	.insn	2, 0x2020
    7ed2:	3a2e                	.insn	2, 0x3a2e
    7ed4:	2020                	.insn	2, 0x2020
    7ed6:	2020                	.insn	2, 0x2020
    7ed8:	2a20                	.insn	2, 0x2a20
    7eda:	3a2d                	.insn	2, 0x3a2d
    7edc:	2020                	.insn	2, 0x2020
    7ede:	2020                	.insn	2, 0x2020
    7ee0:	2020                	.insn	2, 0x2020
    7ee2:	2020                	.insn	2, 0x2020
    7ee4:	2020                	.insn	2, 0x2020
    7ee6:	2020                	.insn	2, 0x2020
    7ee8:	0a40                	.insn	2, 0x0a40
    7eea:	0000                	.insn	2, 0x
    7eec:	2020                	.insn	2, 0x2020
    7eee:	2020                	.insn	2, 0x2020
    7ef0:	2020                	.insn	2, 0x2020
    7ef2:	2020                	.insn	2, 0x2020
    7ef4:	2020                	.insn	2, 0x2020
    7ef6:	2020                	.insn	2, 0x2020
    7ef8:	2020                	.insn	2, 0x2020
    7efa:	2020                	.insn	2, 0x2020
    7efc:	2020                	.insn	2, 0x2020
    7efe:	2020                	.insn	2, 0x2020
    7f00:	2020                	.insn	2, 0x2020
    7f02:	2020                	.insn	2, 0x2020
    7f04:	2020                	.insn	2, 0x2020
    7f06:	2020                	.insn	2, 0x2020
    7f08:	2020                	.insn	2, 0x2020
    7f0a:	4020                	.insn	2, 0x4020
    7f0c:	2020                	.insn	2, 0x2020
    7f0e:	2020                	.insn	2, 0x2020
    7f10:	2020                	.insn	2, 0x2020
    7f12:	2020                	.insn	2, 0x2020
    7f14:	2020                	.insn	2, 0x2020
    7f16:	2020                	.insn	2, 0x2020
    7f18:	2020                	.insn	2, 0x2020
    7f1a:	2020                	.insn	2, 0x2020
    7f1c:	2520                	.insn	2, 0x2520
    7f1e:	2020                	.insn	2, 0x2020
    7f20:	2020                	.insn	2, 0x2020
    7f22:	2020                	.insn	2, 0x2020
    7f24:	2020                	.insn	2, 0x2020
    7f26:	2020                	.insn	2, 0x2020
    7f28:	2020                	.insn	2, 0x2020
    7f2a:	2020                	.insn	2, 0x2020
    7f2c:	2020                	.insn	2, 0x2020
    7f2e:	3a2e                	.insn	2, 0x3a2e
    7f30:	2020                	.insn	2, 0x2020
    7f32:	2020                	.insn	2, 0x2020
    7f34:	2e3a                	.insn	2, 0x2e3a
    7f36:	203d                	.insn	2, 0x203d
    7f38:	2020                	.insn	2, 0x2020
    7f3a:	2020                	.insn	2, 0x2020
    7f3c:	2020                	.insn	2, 0x2020
    7f3e:	2020                	.insn	2, 0x2020
    7f40:	2020                	.insn	2, 0x2020
    7f42:	2020                	.insn	2, 0x2020
    7f44:	0a40                	.insn	2, 0x0a40
    7f46:	0000                	.insn	2, 0x
    7f48:	2020                	.insn	2, 0x2020
    7f4a:	2020                	.insn	2, 0x2020
    7f4c:	2020                	.insn	2, 0x2020
    7f4e:	2020                	.insn	2, 0x2020
    7f50:	2020                	.insn	2, 0x2020
    7f52:	2020                	.insn	2, 0x2020
    7f54:	2020                	.insn	2, 0x2020
    7f56:	2020                	.insn	2, 0x2020
    7f58:	2020                	.insn	2, 0x2020
    7f5a:	2020                	.insn	2, 0x2020
    7f5c:	2020                	.insn	2, 0x2020
    7f5e:	2020                	.insn	2, 0x2020
    7f60:	2020                	.insn	2, 0x2020
    7f62:	2020                	.insn	2, 0x2020
    7f64:	2020                	.insn	2, 0x2020
    7f66:	4020                	.insn	2, 0x4020
    7f68:	2020                	.insn	2, 0x2020
    7f6a:	2020                	.insn	2, 0x2020
    7f6c:	2020                	.insn	2, 0x2020
    7f6e:	2020                	.insn	2, 0x2020
    7f70:	2020                	.insn	2, 0x2020
    7f72:	2020                	.insn	2, 0x2020
    7f74:	2020                	.insn	2, 0x2020
    7f76:	2020                	.insn	2, 0x2020
    7f78:	2520                	.insn	2, 0x2520
    7f7a:	2020                	.insn	2, 0x2020
    7f7c:	2020                	.insn	2, 0x2020
    7f7e:	2020                	.insn	2, 0x2020
    7f80:	2020                	.insn	2, 0x2020
    7f82:	2a20                	.insn	2, 0x2a20
    7f84:	202d                	.insn	2, 0x202d
    7f86:	2020                	.insn	2, 0x2020
    7f88:	2020                	.insn	2, 0x2020
    7f8a:	3a2e                	.insn	2, 0x3a2e
    7f8c:	2020                	.insn	2, 0x2020
    7f8e:	2b20                	.insn	2, 0x2b20
    7f90:	3d20                	.insn	2, 0x3d20
    7f92:	202e                	.insn	2, 0x202e
    7f94:	2020                	.insn	2, 0x2020
    7f96:	2020                	.insn	2, 0x2020
    7f98:	2020                	.insn	2, 0x2020
    7f9a:	2020                	.insn	2, 0x2020
    7f9c:	2020                	.insn	2, 0x2020
    7f9e:	2020                	.insn	2, 0x2020
    7fa0:	0a40                	.insn	2, 0x0a40
    7fa2:	0000                	.insn	2, 0x
    7fa4:	2020                	.insn	2, 0x2020
    7fa6:	2020                	.insn	2, 0x2020
    7fa8:	2020                	.insn	2, 0x2020
    7faa:	2020                	.insn	2, 0x2020
    7fac:	2020                	.insn	2, 0x2020
    7fae:	2020                	.insn	2, 0x2020
    7fb0:	2020                	.insn	2, 0x2020
    7fb2:	2020                	.insn	2, 0x2020
    7fb4:	2020                	.insn	2, 0x2020
    7fb6:	2020                	.insn	2, 0x2020
    7fb8:	2020                	.insn	2, 0x2020
    7fba:	2020                	.insn	2, 0x2020
    7fbc:	2020                	.insn	2, 0x2020
    7fbe:	2020                	.insn	2, 0x2020
    7fc0:	2020                	.insn	2, 0x2020
    7fc2:	4020                	.insn	2, 0x4020
    7fc4:	2020                	.insn	2, 0x2020
    7fc6:	2020                	.insn	2, 0x2020
    7fc8:	2020                	.insn	2, 0x2020
    7fca:	2020                	.insn	2, 0x2020
    7fcc:	2020                	.insn	2, 0x2020
    7fce:	2020                	.insn	2, 0x2020
    7fd0:	2020                	.insn	2, 0x2020
    7fd2:	2020                	.insn	2, 0x2020
    7fd4:	4020                	.insn	2, 0x4020
    7fd6:	2020                	.insn	2, 0x2020
    7fd8:	2020                	.insn	2, 0x2020
    7fda:	2020                	.insn	2, 0x2020
    7fdc:	2020                	.insn	2, 0x2020
    7fde:	3a20                	.insn	2, 0x3a20
    7fe0:	202a                	.insn	2, 0x202a
    7fe2:	2020                	.insn	2, 0x2020
    7fe4:	2020                	.insn	2, 0x2020
    7fe6:	3a2e                	.insn	2, 0x3a2e
    7fe8:	3d2e                	.insn	2, 0x3d2e
    7fea:	2a2a                	.insn	2, 0x2a2a
    7fec:	2020                	.insn	2, 0x2020
    7fee:	2020                	.insn	2, 0x2020
    7ff0:	2020                	.insn	2, 0x2020
    7ff2:	2020                	.insn	2, 0x2020
    7ff4:	2020                	.insn	2, 0x2020
    7ff6:	2020                	.insn	2, 0x2020
    7ff8:	2020                	.insn	2, 0x2020
    7ffa:	2020                	.insn	2, 0x2020
    7ffc:	2040                	.insn	2, 0x2040
    7ffe:	2020                	.insn	2, 0x2020
    8000:	2020                	.insn	2, 0x2020
    8002:	2020                	.insn	2, 0x2020
    8004:	2020                	.insn	2, 0x2020
    8006:	2020                	.insn	2, 0x2020
    8008:	2020                	.insn	2, 0x2020
    800a:	2020                	.insn	2, 0x2020
    800c:	2020                	.insn	2, 0x2020
    800e:	2020                	.insn	2, 0x2020
    8010:	2020                	.insn	2, 0x2020
    8012:	2020                	.insn	2, 0x2020
    8014:	2020                	.insn	2, 0x2020
    8016:	233d                	.insn	2, 0x233d
    8018:	000a                	.insn	2, 0x000a
    801a:	0000                	.insn	2, 0x
    801c:	2020                	.insn	2, 0x2020
    801e:	2020                	.insn	2, 0x2020
    8020:	2020                	.insn	2, 0x2020
    8022:	2a20                	.insn	2, 0x2a20
    8024:	6f42                	.insn	2, 0x6f42
    8026:	6972                	.insn	2, 0x6972
    8028:	676e                	.insn	2, 0x676e
    802a:	6120                	.insn	2, 0x6120
    802c:	656e                	.insn	2, 0x656e
    802e:	746f6463          	bltu	t5,t1,8776 <__global_pointer+0x416e>
    8032:	2a65                	.insn	2, 0x2a65
    8034:	2020                	.insn	2, 0x2020
    8036:	3a20                	.insn	2, 0x3a20
    8038:	203a                	.insn	2, 0x203a
    803a:	4020                	.insn	2, 0x4020
    803c:	2020                	.insn	2, 0x2020
    803e:	2020                	.insn	2, 0x2020
    8040:	2020                	.insn	2, 0x2020
    8042:	2020                	.insn	2, 0x2020
    8044:	2020                	.insn	2, 0x2020
    8046:	2020                	.insn	2, 0x2020
    8048:	2020                	.insn	2, 0x2020
    804a:	2020                	.insn	2, 0x2020
    804c:	4020                	.insn	2, 0x4020
    804e:	2020                	.insn	2, 0x2020
    8050:	2020                	.insn	2, 0x2020
    8052:	2020                	.insn	2, 0x2020
    8054:	2020                	.insn	2, 0x2020
    8056:	2020                	.insn	2, 0x2020
    8058:	252d                	.insn	2, 0x252d
    805a:	2020                	.insn	2, 0x2020
    805c:	2020                	.insn	2, 0x2020
    805e:	2d2e                	.insn	2, 0x2d2e
    8060:	2020                	.insn	2, 0x2020
    8062:	2020                	.insn	2, 0x2020
    8064:	2020                	.insn	2, 0x2020
    8066:	2020                	.insn	2, 0x2020
    8068:	2020                	.insn	2, 0x2020
    806a:	2020                	.insn	2, 0x2020
    806c:	2020                	.insn	2, 0x2020
    806e:	2020                	.insn	2, 0x2020
    8070:	2020                	.insn	2, 0x2020
    8072:	2020                	.insn	2, 0x2020
    8074:	2040                	.insn	2, 0x2040
    8076:	2020                	.insn	2, 0x2020
    8078:	2020                	.insn	2, 0x2020
    807a:	2020                	.insn	2, 0x2020
    807c:	2020                	.insn	2, 0x2020
    807e:	2020                	.insn	2, 0x2020
    8080:	2020                	.insn	2, 0x2020
    8082:	2020                	.insn	2, 0x2020
    8084:	2020                	.insn	2, 0x2020
    8086:	2020                	.insn	2, 0x2020
    8088:	2020                	.insn	2, 0x2020
    808a:	2020                	.insn	2, 0x2020
    808c:	2d20                	.insn	2, 0x2d20
    808e:	2d3a                	.insn	2, 0x2d3a
    8090:	000a                	.insn	2, 0x000a
    8092:	0000                	.insn	2, 0x
    8094:	2020                	.insn	2, 0x2020
    8096:	2020                	.insn	2, 0x2020
    8098:	2020                	.insn	2, 0x2020
    809a:	2020                	.insn	2, 0x2020
    809c:	2020                	.insn	2, 0x2020
    809e:	2020                	.insn	2, 0x2020
    80a0:	7c20                	.insn	2, 0x7c20
    80a2:	2020202f          	.insn	4, 0x2020202f
    80a6:	2020                	.insn	2, 0x2020
    80a8:	2020                	.insn	2, 0x2020
    80aa:	2020                	.insn	2, 0x2020
    80ac:	2020                	.insn	2, 0x2020
    80ae:	3d2e                	.insn	2, 0x3d2e
    80b0:	4020202b          	.insn	4, 0x4020202b
    80b4:	2020                	.insn	2, 0x2020
    80b6:	2020                	.insn	2, 0x2020
    80b8:	3a20                	.insn	2, 0x3a20
    80ba:	202e2b2b          	.insn	4, 0x202e2b2b
    80be:	2020                	.insn	2, 0x2020
    80c0:	2020                	.insn	2, 0x2020
    80c2:	2020                	.insn	2, 0x2020
    80c4:	2520                	.insn	2, 0x2520
    80c6:	2020                	.insn	2, 0x2020
    80c8:	2020                	.insn	2, 0x2020
    80ca:	2020                	.insn	2, 0x2020
    80cc:	2020                	.insn	2, 0x2020
    80ce:	2020                	.insn	2, 0x2020
    80d0:	2320                	.insn	2, 0x2320
    80d2:	202d                	.insn	2, 0x202d
    80d4:	2020                	.insn	2, 0x2020
    80d6:	3a2e                	.insn	2, 0x3a2e
    80d8:	2020                	.insn	2, 0x2020
    80da:	2020                	.insn	2, 0x2020
    80dc:	2020                	.insn	2, 0x2020
    80de:	2020                	.insn	2, 0x2020
    80e0:	2020                	.insn	2, 0x2020
    80e2:	2020                	.insn	2, 0x2020
    80e4:	2020                	.insn	2, 0x2020
    80e6:	203a                	.insn	2, 0x203a
    80e8:	2020                	.insn	2, 0x2020
    80ea:	2020                	.insn	2, 0x2020
    80ec:	2040                	.insn	2, 0x2040
    80ee:	2020                	.insn	2, 0x2020
    80f0:	2020                	.insn	2, 0x2020
    80f2:	2020                	.insn	2, 0x2020
    80f4:	2020                	.insn	2, 0x2020
    80f6:	2020                	.insn	2, 0x2020
    80f8:	2020                	.insn	2, 0x2020
    80fa:	2020                	.insn	2, 0x2020
    80fc:	2020                	.insn	2, 0x2020
    80fe:	2020                	.insn	2, 0x2020
    8100:	2020                	.insn	2, 0x2020
    8102:	2020                	.insn	2, 0x2020
    8104:	3d20                	.insn	2, 0x3d20
    8106:	0a3d                	.insn	2, 0x0a3d
    8108:	0000                	.insn	2, 0x
    810a:	0000                	.insn	2, 0x
    810c:	2020                	.insn	2, 0x2020
    810e:	2020                	.insn	2, 0x2020
    8110:	2020                	.insn	2, 0x2020
    8112:	2020                	.insn	2, 0x2020
    8114:	2020                	.insn	2, 0x2020
    8116:	2d20                	.insn	2, 0x2d20
    8118:	2b3d                	.insn	2, 0x2b3d
    811a:	2d3a2b2b          	.insn	4, 0x2d3a2b2b
    811e:	3d3d                	.insn	2, 0x3d3d
    8120:	202d                	.insn	2, 0x202d
    8122:	2020                	.insn	2, 0x2020
    8124:	2020                	.insn	2, 0x2020
    8126:	2320                	.insn	2, 0x2320
    8128:	2020                	.insn	2, 0x2020
    812a:	2520                	.insn	2, 0x2520
    812c:	3a20                	.insn	2, 0x3a20
    812e:	2b3d                	.insn	2, 0x2b3d
    8130:	2b3d                	.insn	2, 0x2b3d
    8132:	203a2a23          	sw	gp,532(s4)
    8136:	2020                	.insn	2, 0x2020
    8138:	2020                	.insn	2, 0x2020
    813a:	2020                	.insn	2, 0x2020
    813c:	2520                	.insn	2, 0x2520
    813e:	3a2e                	.insn	2, 0x3a2e
    8140:	2e2e                	.insn	2, 0x2e2e
    8142:	2e2e                	.insn	2, 0x2e2e
    8144:	2e2e                	.insn	2, 0x2e2e
    8146:	2e2e                	.insn	2, 0x2e2e
    8148:	2e2e                	.insn	2, 0x2e2e
    814a:	3a25                	.insn	2, 0x3a25
    814c:	2e2e                	.insn	2, 0x2e2e
    814e:	3a2d                	.insn	2, 0x3a2d
    8150:	2020                	.insn	2, 0x2020
    8152:	2020                	.insn	2, 0x2020
    8154:	2020                	.insn	2, 0x2020
    8156:	2020                	.insn	2, 0x2020
    8158:	2a20                	.insn	2, 0x2a20
    815a:	2b3d                	.insn	2, 0x2b3d
    815c:	2b2a                	.insn	2, 0x2b2a
    815e:	2a25                	.insn	2, 0x2a25
    8160:	203d                	.insn	2, 0x203d
    8162:	2020                	.insn	2, 0x2020
    8164:	2040                	.insn	2, 0x2040
    8166:	2020                	.insn	2, 0x2020
    8168:	2020                	.insn	2, 0x2020
    816a:	2020                	.insn	2, 0x2020
    816c:	233a                	.insn	2, 0x233a
    816e:	3a2a                	.insn	2, 0x3a2a
    8170:	2b2a                	.insn	2, 0x2b2a
    8172:	402a                	.insn	2, 0x402a
    8174:	202d                	.insn	2, 0x202d
    8176:	2020                	.insn	2, 0x2020
    8178:	2020                	.insn	2, 0x2020
    817a:	2020                	.insn	2, 0x2020
    817c:	3d20                	.insn	2, 0x3d20
    817e:	000a                	.insn	2, 0x000a
    8180:	2020                	.insn	2, 0x2020
    8182:	2020                	.insn	2, 0x2020
    8184:	2020                	.insn	2, 0x2020
    8186:	2020                	.insn	2, 0x2020
    8188:	2d20                	.insn	2, 0x2d20
    818a:	2020                	.insn	2, 0x2020
    818c:	2020                	.insn	2, 0x2020
    818e:	2020                	.insn	2, 0x2020
    8190:	2020                	.insn	2, 0x2020
    8192:	202e                	.insn	2, 0x202e
    8194:	3a20                	.insn	2, 0x3a20
    8196:	20202023          	sw	sp,512(zero) # 200 <get_switches+0x20>
    819a:	2b20                	.insn	2, 0x2b20
    819c:	2020                	.insn	2, 0x2020
    819e:	3d2e                	.insn	2, 0x3d2e
    81a0:	2020                	.insn	2, 0x2020
    81a2:	2020                	.insn	2, 0x2020
    81a4:	2020                	.insn	2, 0x2020
    81a6:	2020                	.insn	2, 0x2020
    81a8:	3d20                	.insn	2, 0x3d20
    81aa:	202a                	.insn	2, 0x202a
    81ac:	2020                	.insn	2, 0x2020
    81ae:	2020                	.insn	2, 0x2020
    81b0:	2020                	.insn	2, 0x2020
    81b2:	2d2d                	.insn	2, 0x2d2d
    81b4:	2020                	.insn	2, 0x2020
    81b6:	2020                	.insn	2, 0x2020
    81b8:	2020                	.insn	2, 0x2020
    81ba:	2020                	.insn	2, 0x2020
    81bc:	2020                	.insn	2, 0x2020
    81be:	2b2d                	.insn	2, 0x2b2d
    81c0:	2020                	.insn	2, 0x2020
    81c2:	2020                	.insn	2, 0x2020
    81c4:	2020                	.insn	2, 0x2020
    81c6:	2020                	.insn	2, 0x2020
    81c8:	2020                	.insn	2, 0x2020
    81ca:	3a2d                	.insn	2, 0x3a2d
    81cc:	2020                	.insn	2, 0x2020
    81ce:	2020                	.insn	2, 0x2020
    81d0:	2020                	.insn	2, 0x2020
    81d2:	2020                	.insn	2, 0x2020
    81d4:	20202b2b          	.insn	4, 0x20202b2b
    81d8:	2040                	.insn	2, 0x2040
    81da:	2020                	.insn	2, 0x2020
    81dc:	2020                	.insn	2, 0x2020
    81de:	2020202b          	.insn	4, 0x2020202b
    81e2:	2e20                	.insn	2, 0x2e20
    81e4:	203a202b          	.insn	4, 0x203a202b
    81e8:	203d3d2b          	.insn	4, 0x203d3d2b
    81ec:	2020                	.insn	2, 0x2020
    81ee:	2020                	.insn	2, 0x2020
    81f0:	2d20                	.insn	2, 0x2d20
    81f2:	000a                	.insn	2, 0x000a
    81f4:	2020                	.insn	2, 0x2020
    81f6:	2020                	.insn	2, 0x2020
    81f8:	2020                	.insn	2, 0x2020
    81fa:	2020                	.insn	2, 0x2020
    81fc:	203d                	.insn	2, 0x203d
    81fe:	2020                	.insn	2, 0x2020
    8200:	2020                	.insn	2, 0x2020
    8202:	2d20                	.insn	2, 0x2d20
    8204:	203a                	.insn	2, 0x203a
    8206:	3a2d                	.insn	2, 0x3a2d
    8208:	2a2a                	.insn	2, 0x2a2a
    820a:	2b2e                	.insn	2, 0x2b2e
    820c:	2020                	.insn	2, 0x2020
    820e:	3d2e                	.insn	2, 0x3d2e
    8210:	2e20                	.insn	2, 0x2e20
    8212:	202d                	.insn	2, 0x202d
    8214:	2020                	.insn	2, 0x2020
    8216:	2020                	.insn	2, 0x2020
    8218:	2020                	.insn	2, 0x2020
    821a:	3a3a                	.insn	2, 0x3a3a
    821c:	2020                	.insn	2, 0x2020
    821e:	403d                	.insn	2, 0x403d
    8220:	2020                	.insn	2, 0x2020
    8222:	2020                	.insn	2, 0x2020
    8224:	2b20                	.insn	2, 0x2b20
    8226:	203d                	.insn	2, 0x203d
    8228:	2020                	.insn	2, 0x2020
    822a:	2020                	.insn	2, 0x2020
    822c:	2020                	.insn	2, 0x2020
    822e:	2020                	.insn	2, 0x2020
    8230:	2020                	.insn	2, 0x2020
    8232:	3d20                	.insn	2, 0x3d20
    8234:	20202023          	sw	sp,512(zero) # 200 <get_switches+0x20>
    8238:	2020                	.insn	2, 0x2020
    823a:	2020                	.insn	2, 0x2020
    823c:	2a20                	.insn	2, 0x2a20
    823e:	202e                	.insn	2, 0x202e
    8240:	2e20                	.insn	2, 0x2e20
    8242:	202e                	.insn	2, 0x202e
    8244:	2020                	.insn	2, 0x2020
    8246:	2020                	.insn	2, 0x2020
    8248:	2020                	.insn	2, 0x2020
    824a:	20402023          	sw	tp,512(zero) # 200 <get_switches+0x20>
    824e:	2020                	.insn	2, 0x2020
    8250:	2b20                	.insn	2, 0x2b20
    8252:	2020                	.insn	2, 0x2020
    8254:	2020                	.insn	2, 0x2020
    8256:	2020                	.insn	2, 0x2020
    8258:	2020                	.insn	2, 0x2020
    825a:	2020                	.insn	2, 0x2020
    825c:	2020                	.insn	2, 0x2020
    825e:	3d20                	.insn	2, 0x3d20
    8260:	2020                	.insn	2, 0x2020
    8262:	2020                	.insn	2, 0x2020
    8264:	2e2d                	.insn	2, 0x2e2d
    8266:	000a                	.insn	2, 0x000a
    8268:	2020                	.insn	2, 0x2020
    826a:	2020                	.insn	2, 0x2020
    826c:	2020                	.insn	2, 0x2020
    826e:	2d20                	.insn	2, 0x2d20
    8270:	202e                	.insn	2, 0x202e
    8272:	2020                	.insn	2, 0x2020
    8274:	2020                	.insn	2, 0x2020
    8276:	203d                	.insn	2, 0x203d
    8278:	2020                	.insn	2, 0x2020
    827a:	3d3d                	.insn	2, 0x3d3d
    827c:	2020                	.insn	2, 0x2020
    827e:	2020402b          	.insn	4, 0x2020402b
    8282:	3d20202b          	.insn	4, 0x3d20202b
    8286:	2020                	.insn	2, 0x2020
    8288:	2020                	.insn	2, 0x2020
    828a:	2020                	.insn	2, 0x2020
    828c:	2020                	.insn	2, 0x2020
    828e:	2520                	.insn	2, 0x2520
    8290:	20402d2b          	.insn	4, 0x20402d2b
    8294:	203d                	.insn	2, 0x203d
    8296:	2020                	.insn	2, 0x2020
    8298:	2520                	.insn	2, 0x2520
    829a:	202e                	.insn	2, 0x202e
    829c:	2020                	.insn	2, 0x2020
    829e:	2020                	.insn	2, 0x2020
    82a0:	2020                	.insn	2, 0x2020
    82a2:	2020                	.insn	2, 0x2020
    82a4:	2020                	.insn	2, 0x2020
    82a6:	2020                	.insn	2, 0x2020
    82a8:	2d2a                	.insn	2, 0x2d2a
    82aa:	2020                	.insn	2, 0x2020
    82ac:	2020                	.insn	2, 0x2020
    82ae:	2020                	.insn	2, 0x2020
    82b0:	2d3a                	.insn	2, 0x2d3a
    82b2:	202a                	.insn	2, 0x202a
    82b4:	3a40                	.insn	2, 0x3a40
    82b6:	2020                	.insn	2, 0x2020
    82b8:	2020                	.insn	2, 0x2020
    82ba:	2020                	.insn	2, 0x2020
    82bc:	2020                	.insn	2, 0x2020
    82be:	2320                	.insn	2, 0x2320
    82c0:	2040                	.insn	2, 0x2040
    82c2:	2020                	.insn	2, 0x2020
    82c4:	2e3d                	.insn	2, 0x2e3d
    82c6:	2b20                	.insn	2, 0x2b20
    82c8:	4040                	.insn	2, 0x4040
    82ca:	2d3d                	.insn	2, 0x2d3d
    82cc:	4040                	.insn	2, 0x4040
    82ce:	2020202b          	.insn	4, 0x2020202b
    82d2:	2a20                	.insn	2, 0x2a20
    82d4:	2020                	.insn	2, 0x2020
    82d6:	2020                	.insn	2, 0x2020
    82d8:	0a2a                	.insn	2, 0x0a2a
    82da:	0000                	.insn	2, 0x
    82dc:	2020                	.insn	2, 0x2020
    82de:	2020                	.insn	2, 0x2020
    82e0:	2020                	.insn	2, 0x2020
    82e2:	3d2e                	.insn	2, 0x3d2e
    82e4:	2020                	.insn	2, 0x2020
    82e6:	2020                	.insn	2, 0x2020
    82e8:	2020                	.insn	2, 0x2020
    82ea:	202d                	.insn	2, 0x202d
    82ec:	2020                	.insn	2, 0x2020
    82ee:	4020                	.insn	2, 0x4020
    82f0:	2d2e                	.insn	2, 0x2d2e
    82f2:	252d                	.insn	2, 0x252d
    82f4:	2020                	.insn	2, 0x2020
    82f6:	2d20202b          	.insn	4, 0x2d20202b
    82fa:	2020                	.insn	2, 0x2020
    82fc:	2020                	.insn	2, 0x2020
    82fe:	2020                	.insn	2, 0x2020
    8300:	2020                	.insn	2, 0x2020
    8302:	3a20                	.insn	2, 0x3a20
    8304:	2e2e                	.insn	2, 0x2e2e
    8306:	203a                	.insn	2, 0x203a
    8308:	2525252b          	.insn	4, 0x2525252b
    830c:	2d2e                	.insn	2, 0x2d2e
    830e:	2525                	.insn	2, 0x2525
    8310:	2525                	.insn	2, 0x2525
    8312:	2525                	.insn	2, 0x2525
    8314:	2525                	.insn	2, 0x2525
    8316:	2525                	.insn	2, 0x2525
    8318:	2525                	.insn	2, 0x2525
    831a:	2525                	.insn	2, 0x2525
    831c:	2b25                	.insn	2, 0x2b25
    831e:	2525252b          	.insn	4, 0x2525252b
    8322:	2025                	.insn	2, 0x2025
    8324:	3a3d                	.insn	2, 0x3a3d
    8326:	203a                	.insn	2, 0x203a
    8328:	203a                	.insn	2, 0x203a
    832a:	2020                	.insn	2, 0x2020
    832c:	2020                	.insn	2, 0x2020
    832e:	2020                	.insn	2, 0x2020
    8330:	2020                	.insn	2, 0x2020
    8332:	2b20                	.insn	2, 0x2b20
    8334:	2040                	.insn	2, 0x2040
    8336:	2020                	.insn	2, 0x2020
    8338:	2a20202b          	.insn	4, 0x2a20202b
    833c:	2a2a                	.insn	2, 0x2a2a
    833e:	2b3d                	.insn	2, 0x2b3d
    8340:	202a2a23          	sw	sp,532(s4)
    8344:	2020                	.insn	2, 0x2020
    8346:	2a20                	.insn	2, 0x2a20
    8348:	2020                	.insn	2, 0x2020
    834a:	3a20                	.insn	2, 0x3a20
    834c:	000a                	.insn	2, 0x000a
    834e:	0000                	.insn	2, 0x
    8350:	2020                	.insn	2, 0x2020
    8352:	2020                	.insn	2, 0x2020
    8354:	2020                	.insn	2, 0x2020
    8356:	202d                	.insn	2, 0x202d
    8358:	2020                	.insn	2, 0x2020
    835a:	2020                	.insn	2, 0x2020
    835c:	2020                	.insn	2, 0x2020
    835e:	202d                	.insn	2, 0x202d
    8360:	2020                	.insn	2, 0x2020
    8362:	3a20                	.insn	2, 0x3a20
    8364:	2e20                	.insn	2, 0x2e20
    8366:	2a20                	.insn	2, 0x2a20
    8368:	2020                	.insn	2, 0x2020
    836a:	202d                	.insn	2, 0x202d
    836c:	2a20                	.insn	2, 0x2a20
    836e:	2020                	.insn	2, 0x2020
    8370:	2020                	.insn	2, 0x2020
    8372:	2020                	.insn	2, 0x2020
    8374:	2020                	.insn	2, 0x2020
    8376:	2020                	.insn	2, 0x2020
    8378:	2020                	.insn	2, 0x2020
    837a:	2020                	.insn	2, 0x2020
    837c:	202d                	.insn	2, 0x202d
    837e:	2020                	.insn	2, 0x2020
    8380:	203d                	.insn	2, 0x203d
    8382:	2020                	.insn	2, 0x2020
    8384:	2020                	.insn	2, 0x2020
    8386:	2020                	.insn	2, 0x2020
    8388:	2020                	.insn	2, 0x2020
    838a:	2020                	.insn	2, 0x2020
    838c:	2020                	.insn	2, 0x2020
    838e:	2020                	.insn	2, 0x2020
    8390:	2b20                	.insn	2, 0x2b20
    8392:	203a2e2b          	.insn	4, 0x203a2e2b
    8396:	2020                	.insn	2, 0x2020
    8398:	203d                	.insn	2, 0x203d
    839a:	2020                	.insn	2, 0x2020
    839c:	2020                	.insn	2, 0x2020
    839e:	2d20                	.insn	2, 0x2d20
    83a0:	2020                	.insn	2, 0x2020
    83a2:	2020                	.insn	2, 0x2020
    83a4:	2020                	.insn	2, 0x2020
    83a6:	2a20                	.insn	2, 0x2a20
    83a8:	2020                	.insn	2, 0x2020
    83aa:	2020                	.insn	2, 0x2020
    83ac:	2b3a                	.insn	2, 0x2b3a
    83ae:	2020                	.insn	2, 0x2020
    83b0:	2020                	.insn	2, 0x2020
    83b2:	2020                	.insn	2, 0x2020
    83b4:	2020                	.insn	2, 0x2020
    83b6:	2020                	.insn	2, 0x2020
    83b8:	2020                	.insn	2, 0x2020
    83ba:	3d20                	.insn	2, 0x3d20
    83bc:	2020                	.insn	2, 0x2020
    83be:	2b20                	.insn	2, 0x2b20
    83c0:	000a                	.insn	2, 0x000a
    83c2:	0000                	.insn	2, 0x
    83c4:	2020                	.insn	2, 0x2020
    83c6:	2020                	.insn	2, 0x2020
    83c8:	3a20                	.insn	2, 0x3a20
    83ca:	203a                	.insn	2, 0x203a
    83cc:	2020                	.insn	2, 0x2020
    83ce:	2020                	.insn	2, 0x2020
    83d0:	3a20                	.insn	2, 0x3a20
    83d2:	203a                	.insn	2, 0x203a
    83d4:	2020                	.insn	2, 0x2020
    83d6:	2020                	.insn	2, 0x2020
    83d8:	2020                	.insn	2, 0x2020
    83da:	3d20                	.insn	2, 0x3d20
    83dc:	3a20                	.insn	2, 0x3a20
    83de:	203a                	.insn	2, 0x203a
    83e0:	2020                	.insn	2, 0x2020
    83e2:	20202023          	sw	sp,512(zero) # 200 <get_switches+0x20>
    83e6:	2020                	.insn	2, 0x2020
    83e8:	2020                	.insn	2, 0x2020
    83ea:	2020                	.insn	2, 0x2020
    83ec:	2020                	.insn	2, 0x2020
    83ee:	3a3a                	.insn	2, 0x3a3a
    83f0:	2020                	.insn	2, 0x2020
    83f2:	3a20                	.insn	2, 0x3a20
    83f4:	203a                	.insn	2, 0x203a
    83f6:	2020                	.insn	2, 0x2020
    83f8:	2020                	.insn	2, 0x2020
    83fa:	2020                	.insn	2, 0x2020
    83fc:	2020                	.insn	2, 0x2020
    83fe:	2020                	.insn	2, 0x2020
    8400:	2020                	.insn	2, 0x2020
    8402:	2020                	.insn	2, 0x2020
    8404:	2020                	.insn	2, 0x2020
    8406:	203a3d2b          	.insn	4, 0x203a3d2b
    840a:	2020                	.insn	2, 0x2020
    840c:	4020                	.insn	2, 0x4020
    840e:	3a2a232b          	.insn	4, 0x3a2a232b
    8412:	2020                	.insn	2, 0x2020
    8414:	2020                	.insn	2, 0x2020
    8416:	2020                	.insn	2, 0x2020
    8418:	2020                	.insn	2, 0x2020
    841a:	2020202b          	.insn	4, 0x2020202b
    841e:	2020                	.insn	2, 0x2020
    8420:	3a20                	.insn	2, 0x3a20
    8422:	2e202023          	sw	sp,736(zero) # 2e0 <handle_interrupt+0xc4>
    8426:	2e2e                	.insn	2, 0x2e2e
    8428:	202e                	.insn	2, 0x202e
    842a:	2020                	.insn	2, 0x2020
    842c:	2e20                	.insn	2, 0x2e20
    842e:	2020202b          	.insn	4, 0x2020202b
    8432:	0a3d                	.insn	2, 0x0a3d
    8434:	0000                	.insn	2, 0x
    8436:	0000                	.insn	2, 0x
    8438:	2020                	.insn	2, 0x2020
    843a:	2e20                	.insn	2, 0x2e20
    843c:	202e                	.insn	2, 0x202e
    843e:	2020                	.insn	2, 0x2020
    8440:	2020                	.insn	2, 0x2020
    8442:	2020                	.insn	2, 0x2020
    8444:	3d20                	.insn	2, 0x3d20
    8446:	202e                	.insn	2, 0x202e
    8448:	2020                	.insn	2, 0x2020
    844a:	2b3a                	.insn	2, 0x2b3a
    844c:	2e3d                	.insn	2, 0x2e3d
    844e:	25202023          	sw	s2,576(zero) # 240 <handle_interrupt+0x24>
    8452:	2020                	.insn	2, 0x2020
    8454:	2020                	.insn	2, 0x2020
    8456:	2e20                	.insn	2, 0x2e20
    8458:	3a25                	.insn	2, 0x3a25
    845a:	2020                	.insn	2, 0x2020
    845c:	2020                	.insn	2, 0x2020
    845e:	2020                	.insn	2, 0x2020
    8460:	2b2e                	.insn	2, 0x2b2e
    8462:	2020                	.insn	2, 0x2020
    8464:	2020                	.insn	2, 0x2020
    8466:	2d20                	.insn	2, 0x2d20
    8468:	2020                	.insn	2, 0x2020
    846a:	2020                	.insn	2, 0x2020
    846c:	2020                	.insn	2, 0x2020
    846e:	2020                	.insn	2, 0x2020
    8470:	2020                	.insn	2, 0x2020
    8472:	2020                	.insn	2, 0x2020
    8474:	2020                	.insn	2, 0x2020
    8476:	2020                	.insn	2, 0x2020
    8478:	2020                	.insn	2, 0x2020
    847a:	2e20                	.insn	2, 0x2e20
    847c:	202d                	.insn	2, 0x202d
    847e:	2020                	.insn	2, 0x2020
    8480:	2020                	.insn	2, 0x2020
    8482:	252d                	.insn	2, 0x252d
    8484:	2020                	.insn	2, 0x2020
    8486:	2020                	.insn	2, 0x2020
    8488:	2020                	.insn	2, 0x2020
    848a:	2020                	.insn	2, 0x2020
    848c:	3a2d                	.insn	2, 0x3a2d
    848e:	2020                	.insn	2, 0x2020
    8490:	2020                	.insn	2, 0x2020
    8492:	2020                	.insn	2, 0x2020
    8494:	2020                	.insn	2, 0x2020
    8496:	2e20                	.insn	2, 0x2e20
    8498:	3d25                	.insn	2, 0x3d25
    849a:	2020                	.insn	2, 0x2020
    849c:	2020                	.insn	2, 0x2020
    849e:	3d20                	.insn	2, 0x3d20
    84a0:	2d20202b          	.insn	4, 0x2d20202b
    84a4:	00000a2b          	.insn	4, 0x0a2b
    84a8:	2020                	.insn	2, 0x2020
    84aa:	2020                	.insn	2, 0x2020
    84ac:	2040                	.insn	2, 0x2040
    84ae:	2020                	.insn	2, 0x2020
    84b0:	2020                	.insn	2, 0x2020
    84b2:	2020                	.insn	2, 0x2020
    84b4:	2520                	.insn	2, 0x2520
    84b6:	2020                	.insn	2, 0x2020
    84b8:	2020                	.insn	2, 0x2020
    84ba:	2020                	.insn	2, 0x2020
    84bc:	202a                	.insn	2, 0x202a
    84be:	2020                	.insn	2, 0x2020
    84c0:	203a                	.insn	2, 0x203a
    84c2:	2020                	.insn	2, 0x2020
    84c4:	2020                	.insn	2, 0x2020
    84c6:	2020                	.insn	2, 0x2020
    84c8:	2020                	.insn	2, 0x2020
    84ca:	2d20                	.insn	2, 0x2d20
    84cc:	2020                	.insn	2, 0x2020
    84ce:	2020                	.insn	2, 0x2020
    84d0:	2020                	.insn	2, 0x2020
    84d2:	2020                	.insn	2, 0x2020
    84d4:	2020                	.insn	2, 0x2020
    84d6:	202a                	.insn	2, 0x202a
    84d8:	2020                	.insn	2, 0x2020
    84da:	2020                	.insn	2, 0x2020
    84dc:	2020                	.insn	2, 0x2020
    84de:	2020                	.insn	2, 0x2020
    84e0:	2020                	.insn	2, 0x2020
    84e2:	2020                	.insn	2, 0x2020
    84e4:	2020                	.insn	2, 0x2020
    84e6:	2020                	.insn	2, 0x2020
    84e8:	2020                	.insn	2, 0x2020
    84ea:	2020                	.insn	2, 0x2020
    84ec:	202a                	.insn	2, 0x202a
    84ee:	2020                	.insn	2, 0x2020
    84f0:	2020                	.insn	2, 0x2020
    84f2:	2020                	.insn	2, 0x2020
    84f4:	2020                	.insn	2, 0x2020
    84f6:	233d                	.insn	2, 0x233d
    84f8:	202e4023          	.insn	4, 0x202e4023
    84fc:	2020                	.insn	2, 0x2020
    84fe:	2020                	.insn	2, 0x2020
    8500:	2020                	.insn	2, 0x2020
    8502:	2020                	.insn	2, 0x2020
    8504:	2020                	.insn	2, 0x2020
    8506:	2020                	.insn	2, 0x2020
    8508:	2020                	.insn	2, 0x2020
    850a:	2d20                	.insn	2, 0x2d20
    850c:	20202023          	sw	sp,512(zero) # 200 <get_switches+0x20>
    8510:	000a2d23          	sw	zero,26(s4)
    8514:	2020                	.insn	2, 0x2020
    8516:	2020                	.insn	2, 0x2020
    8518:	2a20                	.insn	2, 0x2a20
    851a:	20202023          	sw	sp,512(zero) # 200 <get_switches+0x20>
    851e:	2020                	.insn	2, 0x2020
    8520:	2340                	.insn	2, 0x2340
    8522:	2a3d2a2b          	.insn	4, 0x2a3d2a2b
    8526:	2020202b          	.insn	4, 0x2020202b
    852a:	2b20                	.insn	2, 0x2b20
    852c:	202d                	.insn	2, 0x202d
    852e:	203d                	.insn	2, 0x203d
    8530:	2020                	.insn	2, 0x2020
    8532:	2020                	.insn	2, 0x2020
    8534:	2020                	.insn	2, 0x2020
    8536:	4040                	.insn	2, 0x4040
    8538:	3d2d3d23          	.insn	4, 0x3d2d3d23
    853c:	2020232b          	.insn	4, 0x2020232b
    8540:	3a20                	.insn	2, 0x3a20
    8542:	2020                	.insn	2, 0x2020
    8544:	2020                	.insn	2, 0x2020
    8546:	2020                	.insn	2, 0x2020
    8548:	2020                	.insn	2, 0x2020
    854a:	2020                	.insn	2, 0x2020
    854c:	2020                	.insn	2, 0x2020
    854e:	2020                	.insn	2, 0x2020
    8550:	2020                	.insn	2, 0x2020
    8552:	2020                	.insn	2, 0x2020
    8554:	2020                	.insn	2, 0x2020
    8556:	2020                	.insn	2, 0x2020
    8558:	2b2e                	.insn	2, 0x2b2e
    855a:	2020                	.insn	2, 0x2020
    855c:	2020                	.insn	2, 0x2020
    855e:	2020                	.insn	2, 0x2020
    8560:	202a                	.insn	2, 0x202a
    8562:	2b20                	.insn	2, 0x2b20
    8564:	4040                	.insn	2, 0x4040
    8566:	20202023          	sw	sp,512(zero) # 200 <get_switches+0x20>
    856a:	2020                	.insn	2, 0x2020
    856c:	2020                	.insn	2, 0x2020
    856e:	2020                	.insn	2, 0x2020
    8570:	202d                	.insn	2, 0x202d
    8572:	2d20                	.insn	2, 0x2d20
    8574:	202e                	.insn	2, 0x202e
    8576:	402d                	.insn	2, 0x402d
    8578:	3d40                	.insn	2, 0x3d40
    857a:	2020                	.insn	2, 0x2020
    857c:	2020                	.insn	2, 0x2020
    857e:	2a2e                	.insn	2, 0x2a2e
    8580:	4040                	.insn	2, 0x4040
    8582:	0a3d                	.insn	2, 0x0a3d
    8584:	0000                	.insn	2, 0x
    8586:	0000                	.insn	2, 0x
    8588:	2020                	.insn	2, 0x2020
    858a:	2020                	.insn	2, 0x2020
    858c:	2320                	.insn	2, 0x2320
    858e:	23232323          	sw	s2,550(t1)
    8592:	252a2323          	sw	s2,582(s4)
    8596:	25404023          	.insn	4, 0x25404023
    859a:	2d2a                	.insn	2, 0x2d2a
    859c:	2020                	.insn	2, 0x2020
    859e:	2020                	.insn	2, 0x2020
    85a0:	2020                	.insn	2, 0x2020
    85a2:	202a                	.insn	2, 0x202a
    85a4:	2020                	.insn	2, 0x2020
    85a6:	2020                	.insn	2, 0x2020
    85a8:	2e2d                	.insn	2, 0x2e2d
    85aa:	233d                	.insn	2, 0x233d
    85ac:	2020                	.insn	2, 0x2020
    85ae:	2a20                	.insn	2, 0x2a20
    85b0:	202e3d23          	.insn	4, 0x202e3d23
    85b4:	2d2e                	.insn	2, 0x2d2e
    85b6:	2020                	.insn	2, 0x2020
    85b8:	2020                	.insn	2, 0x2020
    85ba:	2020                	.insn	2, 0x2020
    85bc:	2020                	.insn	2, 0x2020
    85be:	2020                	.insn	2, 0x2020
    85c0:	2020                	.insn	2, 0x2020
    85c2:	2020                	.insn	2, 0x2020
    85c4:	2020                	.insn	2, 0x2020
    85c6:	2020                	.insn	2, 0x2020
    85c8:	2020                	.insn	2, 0x2020
    85ca:	2020                	.insn	2, 0x2020
    85cc:	2b20                	.insn	2, 0x2b20
    85ce:	2020                	.insn	2, 0x2020
    85d0:	2020                	.insn	2, 0x2020
    85d2:	3a20                	.insn	2, 0x3a20
    85d4:	20202e23          	sw	sp,540(zero) # 21c <handle_interrupt>
    85d8:	4020                	.insn	2, 0x4020
    85da:	2d2e                	.insn	2, 0x2d2e
    85dc:	2020                	.insn	2, 0x2020
    85de:	2020                	.insn	2, 0x2020
    85e0:	2020                	.insn	2, 0x2020
    85e2:	2020                	.insn	2, 0x2020
    85e4:	202d                	.insn	2, 0x202d
    85e6:	2b20                	.insn	2, 0x2b20
    85e8:	2020                	.insn	2, 0x2020
    85ea:	232d                	.insn	2, 0x232d
    85ec:	2020                	.insn	2, 0x2020
    85ee:	2020                	.insn	2, 0x2020
    85f0:	2020                	.insn	2, 0x2020
    85f2:	2020                	.insn	2, 0x2020
    85f4:	2020                	.insn	2, 0x2020
    85f6:	2020                	.insn	2, 0x2020
    85f8:	00000a23          	sb	zero,20(zero) # 14 <_isr_routine+0xc>
    85fc:	2020                	.insn	2, 0x2020
    85fe:	2020                	.insn	2, 0x2020
    8600:	3d20                	.insn	2, 0x3d20
    8602:	2020                	.insn	2, 0x2020
    8604:	2020                	.insn	2, 0x2020
    8606:	2020                	.insn	2, 0x2020
    8608:	403d                	.insn	2, 0x403d
    860a:	20202023          	sw	sp,512(zero) # 200 <get_switches+0x20>
    860e:	2b20                	.insn	2, 0x2b20
    8610:	203a                	.insn	2, 0x203a
    8612:	2020                	.insn	2, 0x2020
    8614:	2020                	.insn	2, 0x2020
    8616:	3a2d                	.insn	2, 0x3a2d
    8618:	2020                	.insn	2, 0x2020
    861a:	3d20                	.insn	2, 0x3d20
    861c:	202e                	.insn	2, 0x202e
    861e:	2d40                	.insn	2, 0x2d40
    8620:	2020                	.insn	2, 0x2020
    8622:	2020                	.insn	2, 0x2020
    8624:	2020                	.insn	2, 0x2020
    8626:	252d                	.insn	2, 0x252d
    8628:	203d                	.insn	2, 0x203d
    862a:	2020                	.insn	2, 0x2020
    862c:	2020                	.insn	2, 0x2020
    862e:	2020                	.insn	2, 0x2020
    8630:	2020                	.insn	2, 0x2020
    8632:	2020                	.insn	2, 0x2020
    8634:	2020                	.insn	2, 0x2020
    8636:	2020                	.insn	2, 0x2020
    8638:	2020                	.insn	2, 0x2020
    863a:	2020                	.insn	2, 0x2020
    863c:	2020                	.insn	2, 0x2020
    863e:	2020                	.insn	2, 0x2020
    8640:	2e20                	.insn	2, 0x2e20
    8642:	202a                	.insn	2, 0x202a
    8644:	2b3d                	.insn	2, 0x2b3d
    8646:	2e20                	.insn	2, 0x2e20
    8648:	202e                	.insn	2, 0x202e
    864a:	2020                	.insn	2, 0x2020
    864c:	403a                	.insn	2, 0x403a
    864e:	2a20                	.insn	2, 0x2a20
    8650:	2020                	.insn	2, 0x2020
    8652:	2020                	.insn	2, 0x2020
    8654:	2020                	.insn	2, 0x2020
    8656:	2020                	.insn	2, 0x2020
    8658:	203a                	.insn	2, 0x203a
    865a:	2d20                	.insn	2, 0x2d20
    865c:	2a20                	.insn	2, 0x2a20
    865e:	4020                	.insn	2, 0x4020
    8660:	2020                	.insn	2, 0x2020
    8662:	2020                	.insn	2, 0x2020
    8664:	2020                	.insn	2, 0x2020
    8666:	2020                	.insn	2, 0x2020
    8668:	2020                	.insn	2, 0x2020
    866a:	3a20                	.insn	2, 0x3a20
    866c:	000a                	.insn	2, 0x000a
    866e:	0000                	.insn	2, 0x
    8670:	2020                	.insn	2, 0x2020
    8672:	2020                	.insn	2, 0x2020
    8674:	2b20                	.insn	2, 0x2b20
    8676:	2020                	.insn	2, 0x2020
    8678:	2020                	.insn	2, 0x2020
    867a:	3d20                	.insn	2, 0x3d20
    867c:	3d3a202b          	.insn	4, 0x3d3a202b
    8680:	2020                	.insn	2, 0x2020
    8682:	2020                	.insn	2, 0x2020
    8684:	203d                	.insn	2, 0x203d
    8686:	2020                	.insn	2, 0x2020
    8688:	2020                	.insn	2, 0x2020
    868a:	2a20                	.insn	2, 0x2a20
    868c:	2020                	.insn	2, 0x2020
    868e:	202d                	.insn	2, 0x202d
    8690:	2020                	.insn	2, 0x2020
    8692:	2b40                	.insn	2, 0x2b40
    8694:	2020                	.insn	2, 0x2020
    8696:	2020                	.insn	2, 0x2020
    8698:	2020                	.insn	2, 0x2020
    869a:	2020202b          	.insn	4, 0x2020202b
    869e:	2020                	.insn	2, 0x2020
    86a0:	2020                	.insn	2, 0x2020
    86a2:	2020                	.insn	2, 0x2020
    86a4:	2020                	.insn	2, 0x2020
    86a6:	2020                	.insn	2, 0x2020
    86a8:	2020                	.insn	2, 0x2020
    86aa:	2020                	.insn	2, 0x2020
    86ac:	2020                	.insn	2, 0x2020
    86ae:	2020                	.insn	2, 0x2020
    86b0:	2020                	.insn	2, 0x2020
    86b2:	2020                	.insn	2, 0x2020
    86b4:	2020                	.insn	2, 0x2020
    86b6:	2020                	.insn	2, 0x2020
    86b8:	2020                	.insn	2, 0x2020
    86ba:	3a20                	.insn	2, 0x3a20
    86bc:	2020                	.insn	2, 0x2020
    86be:	2020                	.insn	2, 0x2020
    86c0:	4040                	.insn	2, 0x4040
    86c2:	2020                	.insn	2, 0x2020
    86c4:	20202023          	sw	sp,512(zero) # 200 <get_switches+0x20>
    86c8:	2020                	.insn	2, 0x2020
    86ca:	2a20                	.insn	2, 0x2a20
    86cc:	2020                	.insn	2, 0x2020
    86ce:	3a2e                	.insn	2, 0x3a2e
    86d0:	402d202b          	.insn	4, 0x402d202b
    86d4:	203a                	.insn	2, 0x203a
    86d6:	2020                	.insn	2, 0x2020
    86d8:	2020                	.insn	2, 0x2020
    86da:	2020                	.insn	2, 0x2020
    86dc:	2020                	.insn	2, 0x2020
    86de:	2b20                	.insn	2, 0x2b20
    86e0:	000a                	.insn	2, 0x000a
    86e2:	0000                	.insn	2, 0x
    86e4:	2020                	.insn	2, 0x2020
    86e6:	2020                	.insn	2, 0x2020
    86e8:	3d20                	.insn	2, 0x3d20
    86ea:	202e                	.insn	2, 0x202e
    86ec:	2020                	.insn	2, 0x2020
    86ee:	2b20                	.insn	2, 0x2b20
    86f0:	203d                	.insn	2, 0x203d
    86f2:	2a20                	.insn	2, 0x2a20
    86f4:	2020                	.insn	2, 0x2020
    86f6:	2020                	.insn	2, 0x2020
    86f8:	202a                	.insn	2, 0x202a
    86fa:	2020                	.insn	2, 0x2020
    86fc:	2020                	.insn	2, 0x2020
    86fe:	2b20                	.insn	2, 0x2b20
    8700:	3d20                	.insn	2, 0x3d20
    8702:	2020                	.insn	2, 0x2020
    8704:	3a20                	.insn	2, 0x3a20
    8706:	4040                	.insn	2, 0x4040
    8708:	2020                	.insn	2, 0x2020
    870a:	2020                	.insn	2, 0x2020
    870c:	2020                	.insn	2, 0x2020
    870e:	203a                	.insn	2, 0x203a
    8710:	2020                	.insn	2, 0x2020
    8712:	2020                	.insn	2, 0x2020
    8714:	2020                	.insn	2, 0x2020
    8716:	2020                	.insn	2, 0x2020
    8718:	2020                	.insn	2, 0x2020
    871a:	2020                	.insn	2, 0x2020
    871c:	2020                	.insn	2, 0x2020
    871e:	2020                	.insn	2, 0x2020
    8720:	2020                	.insn	2, 0x2020
    8722:	2020                	.insn	2, 0x2020
    8724:	2020                	.insn	2, 0x2020
    8726:	2020                	.insn	2, 0x2020
    8728:	2020                	.insn	2, 0x2020
    872a:	2020                	.insn	2, 0x2020
    872c:	2020                	.insn	2, 0x2020
    872e:	3d20                	.insn	2, 0x3d20
    8730:	2020                	.insn	2, 0x2020
    8732:	2e20                	.insn	2, 0x2e20
    8734:	2340                	.insn	2, 0x2340
    8736:	2020                	.insn	2, 0x2020
    8738:	202d                	.insn	2, 0x202d
    873a:	2020                	.insn	2, 0x2020
    873c:	2020                	.insn	2, 0x2020
    873e:	2320                	.insn	2, 0x2320
    8740:	2020                	.insn	2, 0x2020
    8742:	2b3d                	.insn	2, 0x2b3d
    8744:	2020                	.insn	2, 0x2020
    8746:	4040                	.insn	2, 0x4040
    8748:	202a                	.insn	2, 0x202a
    874a:	2020                	.insn	2, 0x2020
    874c:	2020                	.insn	2, 0x2020
    874e:	232b2b2b          	.insn	4, 0x232b2b2b
    8752:	2a2a2a23          	sw	sp,692(s4)
    8756:	0a2d                	.insn	2, 0x0a2d
    8758:	0000                	.insn	2, 0x
    875a:	0000                	.insn	2, 0x
    875c:	2020                	.insn	2, 0x2020
    875e:	2020                	.insn	2, 0x2020
    8760:	2020                	.insn	2, 0x2020
    8762:	2020202b          	.insn	4, 0x2020202b
    8766:	20202b23          	sw	sp,534(zero) # 216 <get_btn+0xa>
    876a:	3d20                	.insn	2, 0x3d20
    876c:	2020                	.insn	2, 0x2020
    876e:	2020                	.insn	2, 0x2020
    8770:	2b2e                	.insn	2, 0x2b2e
    8772:	2020                	.insn	2, 0x2020
    8774:	2020                	.insn	2, 0x2020
    8776:	2d20                	.insn	2, 0x2d20
    8778:	2e2a                	.insn	2, 0x2e2a
    877a:	2020                	.insn	2, 0x2020
    877c:	2d20                	.insn	2, 0x2d20
    877e:	4040                	.insn	2, 0x4040
    8780:	2020                	.insn	2, 0x2020
    8782:	2020                	.insn	2, 0x2020
    8784:	2a3d2d2b          	.insn	4, 0x2a3d2d2b
    8788:	252a                	.insn	2, 0x252a
    878a:	2a2b2b2b          	.insn	4, 0x2a2b2b2b
    878e:	2020                	.insn	2, 0x2020
    8790:	2020                	.insn	2, 0x2020
    8792:	2020                	.insn	2, 0x2020
    8794:	2020                	.insn	2, 0x2020
    8796:	2020                	.insn	2, 0x2020
    8798:	2020                	.insn	2, 0x2020
    879a:	2020                	.insn	2, 0x2020
    879c:	2020                	.insn	2, 0x2020
    879e:	2020                	.insn	2, 0x2020
    87a0:	2020                	.insn	2, 0x2020
    87a2:	2020                	.insn	2, 0x2020
    87a4:	2020                	.insn	2, 0x2020
    87a6:	2a20                	.insn	2, 0x2a20
    87a8:	2020                	.insn	2, 0x2020
    87aa:	4020                	.insn	2, 0x4020
    87ac:	2340                	.insn	2, 0x2340
    87ae:	2020                	.insn	2, 0x2020
    87b0:	2520                	.insn	2, 0x2520
    87b2:	2020                	.insn	2, 0x2020
    87b4:	2020                	.insn	2, 0x2020
    87b6:	2e3a                	.insn	2, 0x2e3a
    87b8:	2020                	.insn	2, 0x2020
    87ba:	202a                	.insn	2, 0x202a
    87bc:	3a20                	.insn	2, 0x3a20
    87be:	4040                	.insn	2, 0x4040
    87c0:	2025                	.insn	2, 0x2025
    87c2:	2020                	.insn	2, 0x2020
    87c4:	2d20                	.insn	2, 0x2d20
    87c6:	2020                	.insn	2, 0x2020
    87c8:	2020                	.insn	2, 0x2020
    87ca:	2020                	.insn	2, 0x2020
    87cc:	3d20                	.insn	2, 0x3d20
    87ce:	000a                	.insn	2, 0x000a
    87d0:	2020                	.insn	2, 0x2020
    87d2:	2020                	.insn	2, 0x2020
    87d4:	2020                	.insn	2, 0x2020
    87d6:	2d20202b          	.insn	4, 0x2d20202b
    87da:	2d2e                	.insn	2, 0x2d2e
    87dc:	2020                	.insn	2, 0x2020
    87de:	3a20                	.insn	2, 0x3a20
    87e0:	2020                	.insn	2, 0x2020
    87e2:	2020                	.insn	2, 0x2020
    87e4:	2a20                	.insn	2, 0x2a20
    87e6:	2020                	.insn	2, 0x2020
    87e8:	2020                	.insn	2, 0x2020
    87ea:	2d20                	.insn	2, 0x2d20
    87ec:	3a20                	.insn	2, 0x3a20
    87ee:	2b202a23          	sw	s2,692(zero) # 2b4 <handle_interrupt+0x98>
    87f2:	4040                	.insn	2, 0x4040
    87f4:	203d                	.insn	2, 0x203d
    87f6:	3a20                	.insn	2, 0x3a20
    87f8:	2020                	.insn	2, 0x2020
    87fa:	2020                	.insn	2, 0x2020
    87fc:	2020                	.insn	2, 0x2020
    87fe:	2020                	.insn	2, 0x2020
    8800:	3a2e                	.insn	2, 0x3a2e
    8802:	2020                	.insn	2, 0x2020
    8804:	2020                	.insn	2, 0x2020
    8806:	2020                	.insn	2, 0x2020
    8808:	2020                	.insn	2, 0x2020
    880a:	2020                	.insn	2, 0x2020
    880c:	2020                	.insn	2, 0x2020
    880e:	2020                	.insn	2, 0x2020
    8810:	2020                	.insn	2, 0x2020
    8812:	2020                	.insn	2, 0x2020
    8814:	2020                	.insn	2, 0x2020
    8816:	2020                	.insn	2, 0x2020
    8818:	2020                	.insn	2, 0x2020
    881a:	2e2d                	.insn	2, 0x2e2d
    881c:	2020                	.insn	2, 0x2020
    881e:	403a                	.insn	2, 0x403a
    8820:	2340                	.insn	2, 0x2340
    8822:	2020                	.insn	2, 0x2020
    8824:	2a20                	.insn	2, 0x2a20
    8826:	202e                	.insn	2, 0x202e
    8828:	2020                	.insn	2, 0x2020
    882a:	202d                	.insn	2, 0x202d
    882c:	2d20                	.insn	2, 0x2d20
    882e:	2020                	.insn	2, 0x2020
    8830:	4020                	.insn	2, 0x4020
    8832:	4040                	.insn	2, 0x4040
    8834:	2040                	.insn	2, 0x2040
    8836:	2020                	.insn	2, 0x2020
    8838:	203d                	.insn	2, 0x203d
    883a:	2020                	.insn	2, 0x2020
    883c:	2020                	.insn	2, 0x2020
    883e:	2020                	.insn	2, 0x2020
    8840:	2e3d                	.insn	2, 0x2e3d
    8842:	000a                	.insn	2, 0x000a
    8844:	2020                	.insn	2, 0x2020
    8846:	2020                	.insn	2, 0x2020
    8848:	2020                	.insn	2, 0x2020
    884a:	203a                	.insn	2, 0x203a
    884c:	2a20                	.insn	2, 0x2a20
    884e:	2025                	.insn	2, 0x2025
    8850:	2020                	.insn	2, 0x2020
    8852:	2e20                	.insn	2, 0x2e20
    8854:	2d2d202b          	.insn	4, 0x2d2d202b
    8858:	3d2d                	.insn	2, 0x3d2d
    885a:	3d3d                	.insn	2, 0x3d3d
    885c:	3d3d                	.insn	2, 0x3d3d
    885e:	2e3d                	.insn	2, 0x2e3d
    8860:	2e25                	.insn	2, 0x2e25
    8862:	2a202a2b          	.insn	4, 0x2a202a2b
    8866:	4040                	.insn	2, 0x4040
    8868:	2040                	.insn	2, 0x2040
    886a:	3d2e                	.insn	2, 0x3d2e
    886c:	2020                	.insn	2, 0x2020
    886e:	2020                	.insn	2, 0x2020
    8870:	2020                	.insn	2, 0x2020
    8872:	2020                	.insn	2, 0x2020
    8874:	203d                	.insn	2, 0x203d
    8876:	2020                	.insn	2, 0x2020
    8878:	2020                	.insn	2, 0x2020
    887a:	2020                	.insn	2, 0x2020
    887c:	2020                	.insn	2, 0x2020
    887e:	2020                	.insn	2, 0x2020
    8880:	2020                	.insn	2, 0x2020
    8882:	2020                	.insn	2, 0x2020
    8884:	2020                	.insn	2, 0x2020
    8886:	2e20                	.insn	2, 0x2e20
    8888:	2e2e                	.insn	2, 0x2e2e
    888a:	202e                	.insn	2, 0x202e
    888c:	2020                	.insn	2, 0x2020
    888e:	202d                	.insn	2, 0x202d
    8890:	2020                	.insn	2, 0x2020
    8892:	403d                	.insn	2, 0x403d
    8894:	2540                	.insn	2, 0x2540
    8896:	2020                	.insn	2, 0x2020
    8898:	2020                	.insn	2, 0x2020
    889a:	202d                	.insn	2, 0x202d
    889c:	2020                	.insn	2, 0x2020
    889e:	203a                	.insn	2, 0x203a
    88a0:	2e3d                	.insn	2, 0x2e3d
    88a2:	2020                	.insn	2, 0x2020
    88a4:	403a                	.insn	2, 0x403a
    88a6:	4040                	.insn	2, 0x4040
    88a8:	2040                	.insn	2, 0x2040
    88aa:	2020                	.insn	2, 0x2020
    88ac:	203a                	.insn	2, 0x203a
    88ae:	2020                	.insn	2, 0x2020
    88b0:	2020                	.insn	2, 0x2020
    88b2:	3a20                	.insn	2, 0x3a20
    88b4:	0a2e                	.insn	2, 0x0a2e
    88b6:	0000                	.insn	2, 0x
    88b8:	2020                	.insn	2, 0x2020
    88ba:	2020                	.insn	2, 0x2020
    88bc:	2020                	.insn	2, 0x2020
    88be:	2020                	.insn	2, 0x2020
    88c0:	3a20                	.insn	2, 0x3a20
    88c2:	203a                	.insn	2, 0x203a
    88c4:	2020                	.insn	2, 0x2020
    88c6:	2e2e                	.insn	2, 0x2e2e
    88c8:	2e2a                	.insn	2, 0x2e2a
    88ca:	3d2b252b          	.insn	4, 0x3d2b252b
    88ce:	2b25252b          	.insn	4, 0x2b25252b
    88d2:	3d3d                	.insn	2, 0x3d3d
    88d4:	2e3a2b2b          	.insn	4, 0x2e3a2b2b
    88d8:	2a3d                	.insn	2, 0x2a3d
    88da:	4040                	.insn	2, 0x4040
    88dc:	2b40                	.insn	2, 0x2b40
    88de:	2b2b2b23          	sw	s2,694(s6)
    88e2:	2b2b2b2b          	.insn	4, 0x2b2b2b2b
    88e6:	2e2e2b2b          	.insn	4, 0x2e2e2b2b
    88ea:	2e2e                	.insn	2, 0x2e2e
    88ec:	2e2e                	.insn	2, 0x2e2e
    88ee:	2e2e                	.insn	2, 0x2e2e
    88f0:	2e2e                	.insn	2, 0x2e2e
    88f2:	2e2e                	.insn	2, 0x2e2e
    88f4:	2e2e                	.insn	2, 0x2e2e
    88f6:	2e2e                	.insn	2, 0x2e2e
    88f8:	2b2e                	.insn	2, 0x2b2e
    88fa:	2e3a402b          	.insn	4, 0x2e3a402b
    88fe:	2e2e                	.insn	2, 0x2e2e
    8900:	2e2e                	.insn	2, 0x2e2e
    8902:	2e2e                	.insn	2, 0x2e2e
    8904:	3d2a                	.insn	2, 0x3d2a
    8906:	402a                	.insn	2, 0x402a
    8908:	2a40                	.insn	2, 0x2a40
    890a:	2e2e                	.insn	2, 0x2e2e
    890c:	2e2e                	.insn	2, 0x2e2e
    890e:	2e2d                	.insn	2, 0x2e2d
    8910:	3d2e                	.insn	2, 0x3d2e
    8912:	2e2e                	.insn	2, 0x2e2e
    8914:	2e2e3a2b          	.insn	4, 0x2e2e3a2b
    8918:	402d                	.insn	2, 0x402d
    891a:	4040                	.insn	2, 0x4040
    891c:	3d40                	.insn	2, 0x3d40
    891e:	3d2b2a2b          	.insn	4, 0x3d2b2a2b
    8922:	3d3d                	.insn	2, 0x3d3d
    8924:	3d3d                	.insn	2, 0x3d3d
    8926:	2d3d                	.insn	2, 0x2d3d
    8928:	000a                	.insn	2, 0x000a
    892a:	0000                	.insn	2, 0x
    892c:	2020                	.insn	2, 0x2020
    892e:	2020                	.insn	2, 0x2020
    8930:	2020                	.insn	2, 0x2020
    8932:	2d20                	.insn	2, 0x2d20
    8934:	2020                	.insn	2, 0x2020
    8936:	2020                	.insn	2, 0x2020
    8938:	2020                	.insn	2, 0x2020
    893a:	2020                	.insn	2, 0x2020
    893c:	2020                	.insn	2, 0x2020
    893e:	2020                	.insn	2, 0x2020
    8940:	2020                	.insn	2, 0x2020
    8942:	2020                	.insn	2, 0x2020
    8944:	2020                	.insn	2, 0x2020
    8946:	2020                	.insn	2, 0x2020
    8948:	2020                	.insn	2, 0x2020
    894a:	2020                	.insn	2, 0x2020
    894c:	2020                	.insn	2, 0x2020
    894e:	2020                	.insn	2, 0x2020
    8950:	2020                	.insn	2, 0x2020
    8952:	2020                	.insn	2, 0x2020
    8954:	2020                	.insn	2, 0x2020
    8956:	2020                	.insn	2, 0x2020
    8958:	2020                	.insn	2, 0x2020
    895a:	2020                	.insn	2, 0x2020
    895c:	2020                	.insn	2, 0x2020
    895e:	2020                	.insn	2, 0x2020
    8960:	2020                	.insn	2, 0x2020
    8962:	2020                	.insn	2, 0x2020
    8964:	2020                	.insn	2, 0x2020
    8966:	2020                	.insn	2, 0x2020
    8968:	2020                	.insn	2, 0x2020
    896a:	2020                	.insn	2, 0x2020
    896c:	2020                	.insn	2, 0x2020
    896e:	2020                	.insn	2, 0x2020
    8970:	2020                	.insn	2, 0x2020
    8972:	2020                	.insn	2, 0x2020
    8974:	2020                	.insn	2, 0x2020
    8976:	2020                	.insn	2, 0x2020
    8978:	2020                	.insn	2, 0x2020
    897a:	2020                	.insn	2, 0x2020
    897c:	2020                	.insn	2, 0x2020
    897e:	2020                	.insn	2, 0x2020
    8980:	2020                	.insn	2, 0x2020
    8982:	2020                	.insn	2, 0x2020
    8984:	2020                	.insn	2, 0x2020
    8986:	2020                	.insn	2, 0x2020
    8988:	2020                	.insn	2, 0x2020
    898a:	2020                	.insn	2, 0x2020
    898c:	2020                	.insn	2, 0x2020
    898e:	2020                	.insn	2, 0x2020
    8990:	2020                	.insn	2, 0x2020
    8992:	2020                	.insn	2, 0x2020
    8994:	2020                	.insn	2, 0x2020
    8996:	2020                	.insn	2, 0x2020
    8998:	2020                	.insn	2, 0x2020
    899a:	2b20                	.insn	2, 0x2b20
    899c:	000a                	.insn	2, 0x000a
    899e:	0000                	.insn	2, 0x
    89a0:	2020                	.insn	2, 0x2020
    89a2:	2020                	.insn	2, 0x2020
    89a4:	2020                	.insn	2, 0x2020
    89a6:	2020                	.insn	2, 0x2020
    89a8:	2020                	.insn	2, 0x2020
    89aa:	2020                	.insn	2, 0x2020
    89ac:	2020                	.insn	2, 0x2020
    89ae:	2020                	.insn	2, 0x2020
    89b0:	2020                	.insn	2, 0x2020
    89b2:	2020                	.insn	2, 0x2020
    89b4:	2020                	.insn	2, 0x2020
    89b6:	2020                	.insn	2, 0x2020
    89b8:	2020                	.insn	2, 0x2020
    89ba:	2020                	.insn	2, 0x2020
    89bc:	2020                	.insn	2, 0x2020
    89be:	4020                	.insn	2, 0x4020
    89c0:	2020                	.insn	2, 0x2020
    89c2:	2020                	.insn	2, 0x2020
    89c4:	2020                	.insn	2, 0x2020
    89c6:	2020                	.insn	2, 0x2020
    89c8:	2020                	.insn	2, 0x2020
    89ca:	2020                	.insn	2, 0x2020
    89cc:	2020                	.insn	2, 0x2020
    89ce:	2020                	.insn	2, 0x2020
    89d0:	4020                	.insn	2, 0x4020
    89d2:	2020                	.insn	2, 0x2020
    89d4:	2020                	.insn	2, 0x2020
    89d6:	2020                	.insn	2, 0x2020
    89d8:	2020                	.insn	2, 0x2020
    89da:	3a20                	.insn	2, 0x3a20
    89dc:	202a                	.insn	2, 0x202a
    89de:	2020                	.insn	2, 0x2020
    89e0:	2020                	.insn	2, 0x2020
    89e2:	3a2e                	.insn	2, 0x3a2e
    89e4:	3d2e                	.insn	2, 0x3d2e
    89e6:	2a2a                	.insn	2, 0x2a2a
    89e8:	2020                	.insn	2, 0x2020
    89ea:	2020                	.insn	2, 0x2020
    89ec:	2020                	.insn	2, 0x2020
    89ee:	2020                	.insn	2, 0x2020
    89f0:	2020                	.insn	2, 0x2020
    89f2:	2020                	.insn	2, 0x2020
    89f4:	2020                	.insn	2, 0x2020
    89f6:	2020                	.insn	2, 0x2020
    89f8:	0a40                	.insn	2, 0x0a40
    89fa:	0000                	.insn	2, 0x
    89fc:	2020                	.insn	2, 0x2020
    89fe:	2020                	.insn	2, 0x2020
    8a00:	2020                	.insn	2, 0x2020
    8a02:	2020                	.insn	2, 0x2020
    8a04:	2020                	.insn	2, 0x2020
    8a06:	2020                	.insn	2, 0x2020
    8a08:	2020                	.insn	2, 0x2020
    8a0a:	2020                	.insn	2, 0x2020
    8a0c:	2020                	.insn	2, 0x2020
    8a0e:	2020                	.insn	2, 0x2020
    8a10:	2020                	.insn	2, 0x2020
    8a12:	2020                	.insn	2, 0x2020
    8a14:	2020                	.insn	2, 0x2020
    8a16:	3a20                	.insn	2, 0x3a20
    8a18:	203a                	.insn	2, 0x203a
    8a1a:	4020                	.insn	2, 0x4020
    8a1c:	2020                	.insn	2, 0x2020
    8a1e:	2020                	.insn	2, 0x2020
    8a20:	2020                	.insn	2, 0x2020
    8a22:	2020                	.insn	2, 0x2020
    8a24:	2020                	.insn	2, 0x2020
    8a26:	2020                	.insn	2, 0x2020
    8a28:	2020                	.insn	2, 0x2020
    8a2a:	2020                	.insn	2, 0x2020
    8a2c:	4020                	.insn	2, 0x4020
    8a2e:	2020                	.insn	2, 0x2020
    8a30:	2020                	.insn	2, 0x2020
    8a32:	2020                	.insn	2, 0x2020
    8a34:	2020                	.insn	2, 0x2020
    8a36:	2020                	.insn	2, 0x2020
    8a38:	252d                	.insn	2, 0x252d
    8a3a:	2020                	.insn	2, 0x2020
    8a3c:	2020                	.insn	2, 0x2020
    8a3e:	2d2e                	.insn	2, 0x2d2e
    8a40:	2020                	.insn	2, 0x2020
    8a42:	2020                	.insn	2, 0x2020
    8a44:	2020                	.insn	2, 0x2020
    8a46:	2020                	.insn	2, 0x2020
    8a48:	2020                	.insn	2, 0x2020
    8a4a:	2020                	.insn	2, 0x2020
    8a4c:	2020                	.insn	2, 0x2020
    8a4e:	2020                	.insn	2, 0x2020
    8a50:	2020                	.insn	2, 0x2020
    8a52:	2020                	.insn	2, 0x2020
    8a54:	0a40                	.insn	2, 0x0a40
    8a56:	0000                	.insn	2, 0x
    8a58:	2020                	.insn	2, 0x2020
    8a5a:	2020                	.insn	2, 0x2020
    8a5c:	2020                	.insn	2, 0x2020
    8a5e:	2020                	.insn	2, 0x2020
    8a60:	2020                	.insn	2, 0x2020
    8a62:	2020                	.insn	2, 0x2020
    8a64:	2020                	.insn	2, 0x2020
    8a66:	2020                	.insn	2, 0x2020
    8a68:	2020                	.insn	2, 0x2020
    8a6a:	2020                	.insn	2, 0x2020
    8a6c:	2020                	.insn	2, 0x2020
    8a6e:	2020                	.insn	2, 0x2020
    8a70:	2020                	.insn	2, 0x2020
    8a72:	3d2e                	.insn	2, 0x3d2e
    8a74:	4020202b          	.insn	4, 0x4020202b
    8a78:	2020                	.insn	2, 0x2020
    8a7a:	2020                	.insn	2, 0x2020
    8a7c:	3a20                	.insn	2, 0x3a20
    8a7e:	202e2b2b          	.insn	4, 0x202e2b2b
    8a82:	2020                	.insn	2, 0x2020
    8a84:	2020                	.insn	2, 0x2020
    8a86:	2020                	.insn	2, 0x2020
    8a88:	2520                	.insn	2, 0x2520
    8a8a:	2020                	.insn	2, 0x2020
    8a8c:	2020                	.insn	2, 0x2020
    8a8e:	2020                	.insn	2, 0x2020
    8a90:	2020                	.insn	2, 0x2020
    8a92:	2020                	.insn	2, 0x2020
    8a94:	2320                	.insn	2, 0x2320
    8a96:	202d                	.insn	2, 0x202d
    8a98:	2020                	.insn	2, 0x2020
    8a9a:	3a2e                	.insn	2, 0x3a2e
    8a9c:	2020                	.insn	2, 0x2020
    8a9e:	2020                	.insn	2, 0x2020
    8aa0:	2020                	.insn	2, 0x2020
    8aa2:	2020                	.insn	2, 0x2020
    8aa4:	2020                	.insn	2, 0x2020
    8aa6:	2020                	.insn	2, 0x2020
    8aa8:	2020                	.insn	2, 0x2020
    8aaa:	203a                	.insn	2, 0x203a
    8aac:	2020                	.insn	2, 0x2020
    8aae:	2020                	.insn	2, 0x2020
    8ab0:	0a40                	.insn	2, 0x0a40
    8ab2:	0000                	.insn	2, 0x
    8ab4:	2020                	.insn	2, 0x2020
    8ab6:	2020                	.insn	2, 0x2020
    8ab8:	2020                	.insn	2, 0x2020
    8aba:	2020                	.insn	2, 0x2020
    8abc:	2020                	.insn	2, 0x2020
    8abe:	2d20                	.insn	2, 0x2d20
    8ac0:	2b3d                	.insn	2, 0x2b3d
    8ac2:	2d3a2b2b          	.insn	4, 0x2d3a2b2b
    8ac6:	3d3d                	.insn	2, 0x3d3d
    8ac8:	202d                	.insn	2, 0x202d
    8aca:	2020                	.insn	2, 0x2020
    8acc:	2020                	.insn	2, 0x2020
    8ace:	2320                	.insn	2, 0x2320
    8ad0:	2020                	.insn	2, 0x2020
    8ad2:	2520                	.insn	2, 0x2520
    8ad4:	3a20                	.insn	2, 0x3a20
    8ad6:	2b3d                	.insn	2, 0x2b3d
    8ad8:	2b3d                	.insn	2, 0x2b3d
    8ada:	203a2a23          	sw	gp,532(s4)
    8ade:	2020                	.insn	2, 0x2020
    8ae0:	2020                	.insn	2, 0x2020
    8ae2:	2020                	.insn	2, 0x2020
    8ae4:	2520                	.insn	2, 0x2520
    8ae6:	3a2e                	.insn	2, 0x3a2e
    8ae8:	2e2e                	.insn	2, 0x2e2e
    8aea:	2e2e                	.insn	2, 0x2e2e
    8aec:	2e2e                	.insn	2, 0x2e2e
    8aee:	2e2e                	.insn	2, 0x2e2e
    8af0:	2e2e                	.insn	2, 0x2e2e
    8af2:	3a25                	.insn	2, 0x3a25
    8af4:	2e2e                	.insn	2, 0x2e2e
    8af6:	3a2d                	.insn	2, 0x3a2d
    8af8:	2020                	.insn	2, 0x2020
    8afa:	2020                	.insn	2, 0x2020
    8afc:	2020                	.insn	2, 0x2020
    8afe:	2020                	.insn	2, 0x2020
    8b00:	2a20                	.insn	2, 0x2a20
    8b02:	2b3d                	.insn	2, 0x2b3d
    8b04:	2b2a                	.insn	2, 0x2b2a
    8b06:	2a25                	.insn	2, 0x2a25
    8b08:	203d                	.insn	2, 0x203d
    8b0a:	2020                	.insn	2, 0x2020
    8b0c:	2040                	.insn	2, 0x2040
    8b0e:	2020                	.insn	2, 0x2020
    8b10:	2020                	.insn	2, 0x2020
    8b12:	2020                	.insn	2, 0x2020
    8b14:	233a                	.insn	2, 0x233a
    8b16:	3a2a                	.insn	2, 0x3a2a
    8b18:	2b2a                	.insn	2, 0x2b2a
    8b1a:	402a                	.insn	2, 0x402a
    8b1c:	0a2d                	.insn	2, 0x0a2d
    8b1e:	0000                	.insn	2, 0x
    8b20:	2020                	.insn	2, 0x2020
    8b22:	2020                	.insn	2, 0x2020
    8b24:	2020                	.insn	2, 0x2020
    8b26:	2020                	.insn	2, 0x2020
    8b28:	2d20                	.insn	2, 0x2d20
    8b2a:	2020                	.insn	2, 0x2020
    8b2c:	2020                	.insn	2, 0x2020
    8b2e:	2020                	.insn	2, 0x2020
    8b30:	2020                	.insn	2, 0x2020
    8b32:	202e                	.insn	2, 0x202e
    8b34:	3a20                	.insn	2, 0x3a20
    8b36:	20202023          	sw	sp,512(zero) # 200 <get_switches+0x20>
    8b3a:	2b20                	.insn	2, 0x2b20
    8b3c:	2020                	.insn	2, 0x2020
    8b3e:	3d2e                	.insn	2, 0x3d2e
    8b40:	2020                	.insn	2, 0x2020
    8b42:	2020                	.insn	2, 0x2020
    8b44:	2020                	.insn	2, 0x2020
    8b46:	2020                	.insn	2, 0x2020
    8b48:	3d20                	.insn	2, 0x3d20
    8b4a:	202a                	.insn	2, 0x202a
    8b4c:	2020                	.insn	2, 0x2020
    8b4e:	2020                	.insn	2, 0x2020
    8b50:	2020                	.insn	2, 0x2020
    8b52:	2d2d                	.insn	2, 0x2d2d
    8b54:	2020                	.insn	2, 0x2020
    8b56:	2020                	.insn	2, 0x2020
    8b58:	2020                	.insn	2, 0x2020
    8b5a:	2020                	.insn	2, 0x2020
    8b5c:	2020                	.insn	2, 0x2020
    8b5e:	2b2d                	.insn	2, 0x2b2d
    8b60:	2020                	.insn	2, 0x2020
    8b62:	2020                	.insn	2, 0x2020
    8b64:	2020                	.insn	2, 0x2020
    8b66:	2020                	.insn	2, 0x2020
    8b68:	2020                	.insn	2, 0x2020
    8b6a:	3a2d                	.insn	2, 0x3a2d
    8b6c:	2020                	.insn	2, 0x2020
    8b6e:	2020                	.insn	2, 0x2020
    8b70:	2020                	.insn	2, 0x2020
    8b72:	2020                	.insn	2, 0x2020
    8b74:	20202b2b          	.insn	4, 0x20202b2b
    8b78:	2040                	.insn	2, 0x2040
    8b7a:	2020                	.insn	2, 0x2020
    8b7c:	2020                	.insn	2, 0x2020
    8b7e:	2020202b          	.insn	4, 0x2020202b
    8b82:	2e20                	.insn	2, 0x2e20
    8b84:	203a202b          	.insn	4, 0x203a202b
    8b88:	0a3d3d2b          	.insn	4, 0x0a3d3d2b
    8b8c:	0000                	.insn	2, 0x
    8b8e:	0000                	.insn	2, 0x
    8b90:	2020                	.insn	2, 0x2020
    8b92:	2020                	.insn	2, 0x2020
    8b94:	2020                	.insn	2, 0x2020
    8b96:	2020                	.insn	2, 0x2020
    8b98:	203d                	.insn	2, 0x203d
    8b9a:	2020                	.insn	2, 0x2020
    8b9c:	2020                	.insn	2, 0x2020
    8b9e:	2d20                	.insn	2, 0x2d20
    8ba0:	203a                	.insn	2, 0x203a
    8ba2:	3a2d                	.insn	2, 0x3a2d
    8ba4:	2a2a                	.insn	2, 0x2a2a
    8ba6:	2b2e                	.insn	2, 0x2b2e
    8ba8:	2020                	.insn	2, 0x2020
    8baa:	3d2e                	.insn	2, 0x3d2e
    8bac:	2e20                	.insn	2, 0x2e20
    8bae:	202d                	.insn	2, 0x202d
    8bb0:	2020                	.insn	2, 0x2020
    8bb2:	205c                	.insn	2, 0x205c
    8bb4:	2020                	.insn	2, 0x2020
    8bb6:	2f20                	.insn	2, 0x2f20
    8bb8:	2020                	.insn	2, 0x2020
    8bba:	403d                	.insn	2, 0x403d
    8bbc:	2020                	.insn	2, 0x2020
    8bbe:	2020                	.insn	2, 0x2020
    8bc0:	2b20                	.insn	2, 0x2b20
    8bc2:	203d                	.insn	2, 0x203d
    8bc4:	2020                	.insn	2, 0x2020
    8bc6:	2020                	.insn	2, 0x2020
    8bc8:	2020                	.insn	2, 0x2020
    8bca:	2020                	.insn	2, 0x2020
    8bcc:	2020                	.insn	2, 0x2020
    8bce:	3d20                	.insn	2, 0x3d20
    8bd0:	20202023          	sw	sp,512(zero) # 200 <get_switches+0x20>
    8bd4:	2020                	.insn	2, 0x2020
    8bd6:	2020                	.insn	2, 0x2020
    8bd8:	2a20                	.insn	2, 0x2a20
    8bda:	202e                	.insn	2, 0x202e
    8bdc:	5c20                	.insn	2, 0x5c20
    8bde:	2020                	.insn	2, 0x2020
    8be0:	2020                	.insn	2, 0x2020
    8be2:	2f20                	.insn	2, 0x2f20
    8be4:	2020                	.insn	2, 0x2020
    8be6:	20402023          	sw	tp,512(zero) # 200 <get_switches+0x20>
    8bea:	2020                	.insn	2, 0x2020
    8bec:	2b20                	.insn	2, 0x2b20
    8bee:	2020                	.insn	2, 0x2020
    8bf0:	5c20                	.insn	2, 0x5c20
    8bf2:	2020                	.insn	2, 0x2020
    8bf4:	2020                	.insn	2, 0x2020
    8bf6:	2f20                	.insn	2, 0x2f20
    8bf8:	2020                	.insn	2, 0x2020
    8bfa:	3d20                	.insn	2, 0x3d20
    8bfc:	000a                	.insn	2, 0x000a
    8bfe:	0000                	.insn	2, 0x
    8c00:	2020                	.insn	2, 0x2020
    8c02:	2020                	.insn	2, 0x2020
    8c04:	2020                	.insn	2, 0x2020
    8c06:	2d20                	.insn	2, 0x2d20
    8c08:	202e                	.insn	2, 0x202e
    8c0a:	2020                	.insn	2, 0x2020
    8c0c:	2020                	.insn	2, 0x2020
    8c0e:	203d                	.insn	2, 0x203d
    8c10:	5c20                	.insn	2, 0x5c20
    8c12:	2020                	.insn	2, 0x2020
    8c14:	5c20202f          	.insn	4, 0x5c20202f
    8c18:	2020                	.insn	2, 0x2020
    8c1a:	3d20202b          	.insn	4, 0x3d20202b
    8c1e:	2020                	.insn	2, 0x2020
    8c20:	2020                	.insn	2, 0x2020
    8c22:	2040                	.insn	2, 0x2040
    8c24:	2020                	.insn	2, 0x2020
    8c26:	4020                	.insn	2, 0x4020
    8c28:	2020                	.insn	2, 0x2020
    8c2a:	2020                	.insn	2, 0x2020
    8c2c:	203d                	.insn	2, 0x203d
    8c2e:	2020                	.insn	2, 0x2020
    8c30:	2520                	.insn	2, 0x2520
    8c32:	202e                	.insn	2, 0x202e
    8c34:	2020                	.insn	2, 0x2020
    8c36:	2020                	.insn	2, 0x2020
    8c38:	2020                	.insn	2, 0x2020
    8c3a:	2020                	.insn	2, 0x2020
    8c3c:	2020                	.insn	2, 0x2020
    8c3e:	2020                	.insn	2, 0x2020
    8c40:	2d2a                	.insn	2, 0x2d2a
    8c42:	2020                	.insn	2, 0x2020
    8c44:	2020                	.insn	2, 0x2020
    8c46:	2020                	.insn	2, 0x2020
    8c48:	2d3a                	.insn	2, 0x2d3a
    8c4a:	2020                	.insn	2, 0x2020
    8c4c:	4020                	.insn	2, 0x4020
    8c4e:	2020                	.insn	2, 0x2020
    8c50:	2020                	.insn	2, 0x2020
    8c52:	4020                	.insn	2, 0x4020
    8c54:	2020                	.insn	2, 0x2020
    8c56:	20204023          	.insn	4, 0x20204023
    8c5a:	3d20                	.insn	2, 0x3d20
    8c5c:	202e                	.insn	2, 0x202e
    8c5e:	2020                	.insn	2, 0x2020
    8c60:	2040                	.insn	2, 0x2040
    8c62:	2020                	.insn	2, 0x2020
    8c64:	2020                	.insn	2, 0x2020
    8c66:	2040                	.insn	2, 0x2040
    8c68:	2020                	.insn	2, 0x2020
    8c6a:	0a2a                	.insn	2, 0x0a2a
    8c6c:	0000                	.insn	2, 0x
    8c6e:	0000                	.insn	2, 0x
    8c70:	2020                	.insn	2, 0x2020
    8c72:	2020                	.insn	2, 0x2020
    8c74:	2020                	.insn	2, 0x2020
    8c76:	3d2e                	.insn	2, 0x3d2e
    8c78:	2020                	.insn	2, 0x2020
    8c7a:	2020                	.insn	2, 0x2020
    8c7c:	2020                	.insn	2, 0x2020
    8c7e:	202d                	.insn	2, 0x202d
    8c80:	2040                	.insn	2, 0x2040
    8c82:	2020                	.insn	2, 0x2020
    8c84:	2040                	.insn	2, 0x2040
    8c86:	2520                	.insn	2, 0x2520
    8c88:	2020                	.insn	2, 0x2020
    8c8a:	2d20202b          	.insn	4, 0x2d20202b
    8c8e:	2020                	.insn	2, 0x2020
    8c90:	2020                	.insn	2, 0x2020
    8c92:	2020                	.insn	2, 0x2020
    8c94:	2020                	.insn	2, 0x2020
    8c96:	2020                	.insn	2, 0x2020
    8c98:	2020                	.insn	2, 0x2020
    8c9a:	2020                	.insn	2, 0x2020
    8c9c:	2525252b          	.insn	4, 0x2525252b
    8ca0:	2d2e                	.insn	2, 0x2d2e
    8ca2:	2525                	.insn	2, 0x2525
    8ca4:	2525                	.insn	2, 0x2525
    8ca6:	2525                	.insn	2, 0x2525
    8ca8:	2525                	.insn	2, 0x2525
    8caa:	2525                	.insn	2, 0x2525
    8cac:	2525                	.insn	2, 0x2525
    8cae:	2525                	.insn	2, 0x2525
    8cb0:	2b25                	.insn	2, 0x2b25
    8cb2:	2525252b          	.insn	4, 0x2525252b
    8cb6:	2025                	.insn	2, 0x2025
    8cb8:	203d                	.insn	2, 0x203d
    8cba:	2020                	.insn	2, 0x2020
    8cbc:	2020                	.insn	2, 0x2020
    8cbe:	2020                	.insn	2, 0x2020
    8cc0:	2020                	.insn	2, 0x2020
    8cc2:	2020                	.insn	2, 0x2020
    8cc4:	2020                	.insn	2, 0x2020
    8cc6:	2b20                	.insn	2, 0x2b20
    8cc8:	2040                	.insn	2, 0x2040
    8cca:	2020                	.insn	2, 0x2020
    8ccc:	2020202b          	.insn	4, 0x2020202b
    8cd0:	2020                	.insn	2, 0x2020
    8cd2:	2020                	.insn	2, 0x2020
    8cd4:	2020                	.insn	2, 0x2020
    8cd6:	2020                	.insn	2, 0x2020
    8cd8:	2020                	.insn	2, 0x2020
    8cda:	2a20                	.insn	2, 0x2a20
    8cdc:	000a                	.insn	2, 0x000a
    8cde:	0000                	.insn	2, 0x
    8ce0:	2020                	.insn	2, 0x2020
    8ce2:	2020                	.insn	2, 0x2020
    8ce4:	2020                	.insn	2, 0x2020
    8ce6:	202d                	.insn	2, 0x202d
    8ce8:	2020                	.insn	2, 0x2020
    8cea:	2020                	.insn	2, 0x2020
    8cec:	2020                	.insn	2, 0x2020
    8cee:	202d                	.insn	2, 0x202d
    8cf0:	2020                	.insn	2, 0x2020
    8cf2:	2020                	.insn	2, 0x2020
    8cf4:	2020                	.insn	2, 0x2020
    8cf6:	2a20                	.insn	2, 0x2a20
    8cf8:	2020                	.insn	2, 0x2020
    8cfa:	202d                	.insn	2, 0x202d
    8cfc:	2a20                	.insn	2, 0x2a20
    8cfe:	2020                	.insn	2, 0x2020
    8d00:	2020                	.insn	2, 0x2020
    8d02:	2020                	.insn	2, 0x2020
    8d04:	2020                	.insn	2, 0x2020
    8d06:	2020                	.insn	2, 0x2020
    8d08:	2020                	.insn	2, 0x2020
    8d0a:	2020                	.insn	2, 0x2020
    8d0c:	202d                	.insn	2, 0x202d
    8d0e:	2020                	.insn	2, 0x2020
    8d10:	203d                	.insn	2, 0x203d
    8d12:	2020                	.insn	2, 0x2020
    8d14:	2020                	.insn	2, 0x2020
    8d16:	2020                	.insn	2, 0x2020
    8d18:	2020                	.insn	2, 0x2020
    8d1a:	2020                	.insn	2, 0x2020
    8d1c:	2020                	.insn	2, 0x2020
    8d1e:	2020                	.insn	2, 0x2020
    8d20:	2b20                	.insn	2, 0x2b20
    8d22:	203a2e2b          	.insn	4, 0x203a2e2b
    8d26:	2020                	.insn	2, 0x2020
    8d28:	203d                	.insn	2, 0x203d
    8d2a:	2020                	.insn	2, 0x2020
    8d2c:	2020                	.insn	2, 0x2020
    8d2e:	2020                	.insn	2, 0x2020
    8d30:	2020                	.insn	2, 0x2020
    8d32:	2020                	.insn	2, 0x2020
    8d34:	2020                	.insn	2, 0x2020
    8d36:	2a20                	.insn	2, 0x2a20
    8d38:	2020                	.insn	2, 0x2020
    8d3a:	2020                	.insn	2, 0x2020
    8d3c:	2b3a                	.insn	2, 0x2b3a
    8d3e:	2020                	.insn	2, 0x2020
    8d40:	2020                	.insn	2, 0x2020
    8d42:	2020                	.insn	2, 0x2020
    8d44:	2020                	.insn	2, 0x2020
    8d46:	2020                	.insn	2, 0x2020
    8d48:	2020                	.insn	2, 0x2020
    8d4a:	3d20                	.insn	2, 0x3d20
    8d4c:	000a                	.insn	2, 0x000a
    8d4e:	0000                	.insn	2, 0x
    8d50:	2020                	.insn	2, 0x2020
    8d52:	2020                	.insn	2, 0x2020
    8d54:	3a20                	.insn	2, 0x3a20
    8d56:	203a                	.insn	2, 0x203a
    8d58:	2020                	.insn	2, 0x2020
    8d5a:	2020                	.insn	2, 0x2020
    8d5c:	3a20                	.insn	2, 0x3a20
    8d5e:	203a                	.insn	2, 0x203a
    8d60:	2020                	.insn	2, 0x2020
    8d62:	2020                	.insn	2, 0x2020
    8d64:	2020                	.insn	2, 0x2020
    8d66:	3d20                	.insn	2, 0x3d20
    8d68:	3a20                	.insn	2, 0x3a20
    8d6a:	203a                	.insn	2, 0x203a
    8d6c:	2020                	.insn	2, 0x2020
    8d6e:	20202023          	sw	sp,512(zero) # 200 <get_switches+0x20>
    8d72:	2020                	.insn	2, 0x2020
    8d74:	206e                	.insn	2, 0x206e
    8d76:	2020                	.insn	2, 0x2020
    8d78:	2020                	.insn	2, 0x2020
    8d7a:	3a3a                	.insn	2, 0x3a3a
    8d7c:	2020                	.insn	2, 0x2020
    8d7e:	3a20                	.insn	2, 0x3a20
    8d80:	203a                	.insn	2, 0x203a
    8d82:	2020                	.insn	2, 0x2020
    8d84:	2020                	.insn	2, 0x2020
    8d86:	2020                	.insn	2, 0x2020
    8d88:	2020                	.insn	2, 0x2020
    8d8a:	2020                	.insn	2, 0x2020
    8d8c:	2020                	.insn	2, 0x2020
    8d8e:	2020                	.insn	2, 0x2020
    8d90:	2020                	.insn	2, 0x2020
    8d92:	203a3d2b          	.insn	4, 0x203a3d2b
    8d96:	2020                	.insn	2, 0x2020
    8d98:	4020                	.insn	2, 0x4020
    8d9a:	2020                	.insn	2, 0x2020
    8d9c:	2020                	.insn	2, 0x2020
    8d9e:	2020                	.insn	2, 0x2020
    8da0:	206e                	.insn	2, 0x206e
    8da2:	2020                	.insn	2, 0x2020
    8da4:	2020                	.insn	2, 0x2020
    8da6:	2020202b          	.insn	4, 0x2020202b
    8daa:	2020                	.insn	2, 0x2020
    8dac:	3a20                	.insn	2, 0x3a20
    8dae:	20202023          	sw	sp,512(zero) # 200 <get_switches+0x20>
    8db2:	2020                	.insn	2, 0x2020
    8db4:	206e                	.insn	2, 0x206e
    8db6:	2020                	.insn	2, 0x2020
    8db8:	2e20                	.insn	2, 0x2e20
    8dba:	00000a2b          	.insn	4, 0x0a2b
    8dbe:	0000                	.insn	2, 0x
    8dc0:	2020                	.insn	2, 0x2020
    8dc2:	2e20                	.insn	2, 0x2e20
    8dc4:	202e                	.insn	2, 0x202e
    8dc6:	2020                	.insn	2, 0x2020
    8dc8:	2020                	.insn	2, 0x2020
    8dca:	2020                	.insn	2, 0x2020
    8dcc:	3d20                	.insn	2, 0x3d20
    8dce:	202e                	.insn	2, 0x202e
    8dd0:	2020                	.insn	2, 0x2020
    8dd2:	206e                	.insn	2, 0x206e
    8dd4:	2020                	.insn	2, 0x2020
    8dd6:	25202023          	sw	s2,576(zero) # 240 <handle_interrupt+0x24>
    8dda:	2020                	.insn	2, 0x2020
    8ddc:	2020                	.insn	2, 0x2020
    8dde:	2e20                	.insn	2, 0x2e20
    8de0:	3a25                	.insn	2, 0x3a25
    8de2:	2020                	.insn	2, 0x2020
    8de4:	2020                	.insn	2, 0x2020
    8de6:	2020                	.insn	2, 0x2020
    8de8:	2b2e                	.insn	2, 0x2b2e
    8dea:	2020                	.insn	2, 0x2020
    8dec:	2020                	.insn	2, 0x2020
    8dee:	2d20                	.insn	2, 0x2d20
    8df0:	2020                	.insn	2, 0x2020
    8df2:	2020                	.insn	2, 0x2020
    8df4:	2020                	.insn	2, 0x2020
    8df6:	2020                	.insn	2, 0x2020
    8df8:	2020                	.insn	2, 0x2020
    8dfa:	2020                	.insn	2, 0x2020
    8dfc:	2020                	.insn	2, 0x2020
    8dfe:	2020                	.insn	2, 0x2020
    8e00:	2020                	.insn	2, 0x2020
    8e02:	2e20                	.insn	2, 0x2e20
    8e04:	202d                	.insn	2, 0x202d
    8e06:	2020                	.insn	2, 0x2020
    8e08:	2020                	.insn	2, 0x2020
    8e0a:	252d                	.insn	2, 0x252d
    8e0c:	2020                	.insn	2, 0x2020
    8e0e:	2020                	.insn	2, 0x2020
    8e10:	2020                	.insn	2, 0x2020
    8e12:	2020                	.insn	2, 0x2020
    8e14:	3a2d                	.insn	2, 0x3a2d
    8e16:	2020                	.insn	2, 0x2020
    8e18:	2020                	.insn	2, 0x2020
    8e1a:	2020                	.insn	2, 0x2020
    8e1c:	2020                	.insn	2, 0x2020
    8e1e:	2e20                	.insn	2, 0x2e20
    8e20:	3d25                	.insn	2, 0x3d25
    8e22:	2020                	.insn	2, 0x2020
    8e24:	2020                	.insn	2, 0x2020
    8e26:	3d20                	.insn	2, 0x3d20
    8e28:	00000a2b          	.insn	4, 0x0a2b
    8e2c:	2020                	.insn	2, 0x2020
    8e2e:	2020                	.insn	2, 0x2020
    8e30:	2020                	.insn	2, 0x2020
    8e32:	2020                	.insn	2, 0x2020
    8e34:	203d                	.insn	2, 0x203d
    8e36:	2020                	.insn	2, 0x2020
    8e38:	2020                	.insn	2, 0x2020
    8e3a:	2d20                	.insn	2, 0x2d20
    8e3c:	203a                	.insn	2, 0x203a
    8e3e:	3a2d                	.insn	2, 0x3a2d
    8e40:	2a2a                	.insn	2, 0x2a2a
    8e42:	2b2e                	.insn	2, 0x2b2e
    8e44:	2020                	.insn	2, 0x2020
    8e46:	3d2e                	.insn	2, 0x3d2e
    8e48:	2e20                	.insn	2, 0x2e20
    8e4a:	202d                	.insn	2, 0x202d
    8e4c:	2020                	.insn	2, 0x2020
    8e4e:	2020                	.insn	2, 0x2020
    8e50:	2020                	.insn	2, 0x2020
    8e52:	2020                	.insn	2, 0x2020
    8e54:	2020                	.insn	2, 0x2020
    8e56:	403d                	.insn	2, 0x403d
    8e58:	2020                	.insn	2, 0x2020
    8e5a:	2020                	.insn	2, 0x2020
    8e5c:	2b20                	.insn	2, 0x2b20
    8e5e:	203d                	.insn	2, 0x203d
    8e60:	2020                	.insn	2, 0x2020
    8e62:	2020                	.insn	2, 0x2020
    8e64:	2020                	.insn	2, 0x2020
    8e66:	2020                	.insn	2, 0x2020
    8e68:	2020                	.insn	2, 0x2020
    8e6a:	3d20                	.insn	2, 0x3d20
    8e6c:	20202023          	sw	sp,512(zero) # 200 <get_switches+0x20>
    8e70:	2020                	.insn	2, 0x2020
    8e72:	2020                	.insn	2, 0x2020
    8e74:	2a20                	.insn	2, 0x2a20
    8e76:	202e                	.insn	2, 0x202e
    8e78:	2020                	.insn	2, 0x2020
    8e7a:	2020                	.insn	2, 0x2020
    8e7c:	2020                	.insn	2, 0x2020
    8e7e:	2020                	.insn	2, 0x2020
    8e80:	2020                	.insn	2, 0x2020
    8e82:	20402023          	sw	tp,512(zero) # 200 <get_switches+0x20>
    8e86:	2020                	.insn	2, 0x2020
    8e88:	2b20                	.insn	2, 0x2b20
    8e8a:	2020                	.insn	2, 0x2020
    8e8c:	2020                	.insn	2, 0x2020
    8e8e:	2020                	.insn	2, 0x2020
    8e90:	2020                	.insn	2, 0x2020
    8e92:	2020                	.insn	2, 0x2020
    8e94:	2020                	.insn	2, 0x2020
    8e96:	3d20                	.insn	2, 0x3d20
    8e98:	000a                	.insn	2, 0x000a
    8e9a:	0000                	.insn	2, 0x
    8e9c:	2020                	.insn	2, 0x2020
    8e9e:	2020                	.insn	2, 0x2020
    8ea0:	2020                	.insn	2, 0x2020
    8ea2:	2d20                	.insn	2, 0x2d20
    8ea4:	202e                	.insn	2, 0x202e
    8ea6:	2020                	.insn	2, 0x2020
    8ea8:	2020                	.insn	2, 0x2020
    8eaa:	203d                	.insn	2, 0x203d
    8eac:	2020                	.insn	2, 0x2020
    8eae:	2020                	.insn	2, 0x2020
    8eb0:	2020                	.insn	2, 0x2020
    8eb2:	5c20                	.insn	2, 0x5c20
    8eb4:	2020                	.insn	2, 0x2020
    8eb6:	3d20202b          	.insn	4, 0x3d20202b
    8eba:	2020                	.insn	2, 0x2020
    8ebc:	2020                	.insn	2, 0x2020
    8ebe:	2040                	.insn	2, 0x2040
    8ec0:	2020                	.insn	2, 0x2020
    8ec2:	4020                	.insn	2, 0x4020
    8ec4:	2020                	.insn	2, 0x2020
    8ec6:	2020                	.insn	2, 0x2020
    8ec8:	203d                	.insn	2, 0x203d
    8eca:	2020                	.insn	2, 0x2020
    8ecc:	2520                	.insn	2, 0x2520
    8ece:	202e                	.insn	2, 0x202e
    8ed0:	2020                	.insn	2, 0x2020
    8ed2:	2020                	.insn	2, 0x2020
    8ed4:	2020                	.insn	2, 0x2020
    8ed6:	2020                	.insn	2, 0x2020
    8ed8:	2020                	.insn	2, 0x2020
    8eda:	2020                	.insn	2, 0x2020
    8edc:	2d2a                	.insn	2, 0x2d2a
    8ede:	2020                	.insn	2, 0x2020
    8ee0:	2020                	.insn	2, 0x2020
    8ee2:	2020                	.insn	2, 0x2020
    8ee4:	2d3a                	.insn	2, 0x2d3a
    8ee6:	2020                	.insn	2, 0x2020
    8ee8:	4020                	.insn	2, 0x4020
    8eea:	2020                	.insn	2, 0x2020
    8eec:	2020                	.insn	2, 0x2020
    8eee:	4020                	.insn	2, 0x4020
    8ef0:	2020                	.insn	2, 0x2020
    8ef2:	20204023          	.insn	4, 0x20204023
    8ef6:	3d20                	.insn	2, 0x3d20
    8ef8:	202e                	.insn	2, 0x202e
    8efa:	2020                	.insn	2, 0x2020
    8efc:	2040                	.insn	2, 0x2040
    8efe:	2020                	.insn	2, 0x2020
    8f00:	2020                	.insn	2, 0x2020
    8f02:	2040                	.insn	2, 0x2040
    8f04:	2020                	.insn	2, 0x2020
    8f06:	0a2a                	.insn	2, 0x0a2a
    8f08:	0000                	.insn	2, 0x
    8f0a:	0000                	.insn	2, 0x
    8f0c:	2020                	.insn	2, 0x2020
    8f0e:	2020                	.insn	2, 0x2020
    8f10:	3a20                	.insn	2, 0x3a20
    8f12:	203a                	.insn	2, 0x203a
    8f14:	2020                	.insn	2, 0x2020
    8f16:	2020                	.insn	2, 0x2020
    8f18:	3a20                	.insn	2, 0x3a20
    8f1a:	203a                	.insn	2, 0x203a
    8f1c:	2020                	.insn	2, 0x2020
    8f1e:	2020                	.insn	2, 0x2020
    8f20:	2020                	.insn	2, 0x2020
    8f22:	3d20                	.insn	2, 0x3d20
    8f24:	3a20                	.insn	2, 0x3a20
    8f26:	203a                	.insn	2, 0x203a
    8f28:	2020                	.insn	2, 0x2020
    8f2a:	20202023          	sw	sp,512(zero) # 200 <get_switches+0x20>
    8f2e:	2020                	.insn	2, 0x2020
    8f30:	2055                	.insn	2, 0x2055
    8f32:	2020                	.insn	2, 0x2020
    8f34:	2020                	.insn	2, 0x2020
    8f36:	3a3a                	.insn	2, 0x3a3a
    8f38:	2020                	.insn	2, 0x2020
    8f3a:	3a20                	.insn	2, 0x3a20
    8f3c:	203a                	.insn	2, 0x203a
    8f3e:	2020                	.insn	2, 0x2020
    8f40:	2020                	.insn	2, 0x2020
    8f42:	2020                	.insn	2, 0x2020
    8f44:	2020                	.insn	2, 0x2020
    8f46:	2020                	.insn	2, 0x2020
    8f48:	2020                	.insn	2, 0x2020
    8f4a:	2020                	.insn	2, 0x2020
    8f4c:	2020                	.insn	2, 0x2020
    8f4e:	203a3d2b          	.insn	4, 0x203a3d2b
    8f52:	2020                	.insn	2, 0x2020
    8f54:	4020                	.insn	2, 0x4020
    8f56:	2020                	.insn	2, 0x2020
    8f58:	2020                	.insn	2, 0x2020
    8f5a:	2020                	.insn	2, 0x2020
    8f5c:	2055                	.insn	2, 0x2055
    8f5e:	2020                	.insn	2, 0x2020
    8f60:	2020                	.insn	2, 0x2020
    8f62:	2020202b          	.insn	4, 0x2020202b
    8f66:	2020                	.insn	2, 0x2020
    8f68:	3a20                	.insn	2, 0x3a20
    8f6a:	20202023          	sw	sp,512(zero) # 200 <get_switches+0x20>
    8f6e:	2020                	.insn	2, 0x2020
    8f70:	2055                	.insn	2, 0x2055
    8f72:	2020                	.insn	2, 0x2020
    8f74:	2e20                	.insn	2, 0x2e20
    8f76:	00000a2b          	.insn	4, 0x0a2b
    8f7a:	0000                	.insn	2, 0x
    8f7c:	2020                	.insn	2, 0x2020
    8f7e:	2e20                	.insn	2, 0x2e20
    8f80:	202e                	.insn	2, 0x202e
    8f82:	2020                	.insn	2, 0x2020
    8f84:	2020                	.insn	2, 0x2020
    8f86:	2020                	.insn	2, 0x2020
    8f88:	3d20                	.insn	2, 0x3d20
    8f8a:	202e                	.insn	2, 0x202e
    8f8c:	2020                	.insn	2, 0x2020
    8f8e:	2055                	.insn	2, 0x2055
    8f90:	2020                	.insn	2, 0x2020
    8f92:	25202023          	sw	s2,576(zero) # 240 <handle_interrupt+0x24>
    8f96:	2020                	.insn	2, 0x2020
    8f98:	2020                	.insn	2, 0x2020
    8f9a:	2e20                	.insn	2, 0x2e20
    8f9c:	3a25                	.insn	2, 0x3a25
    8f9e:	2020                	.insn	2, 0x2020
    8fa0:	2020                	.insn	2, 0x2020
    8fa2:	2020                	.insn	2, 0x2020
    8fa4:	2b2e                	.insn	2, 0x2b2e
    8fa6:	2020                	.insn	2, 0x2020
    8fa8:	2020                	.insn	2, 0x2020
    8faa:	2d20                	.insn	2, 0x2d20
    8fac:	2020                	.insn	2, 0x2020
    8fae:	2020                	.insn	2, 0x2020
    8fb0:	2020                	.insn	2, 0x2020
    8fb2:	2020                	.insn	2, 0x2020
    8fb4:	2020                	.insn	2, 0x2020
    8fb6:	2020                	.insn	2, 0x2020
    8fb8:	2020                	.insn	2, 0x2020
    8fba:	2020                	.insn	2, 0x2020
    8fbc:	2020                	.insn	2, 0x2020
    8fbe:	2e20                	.insn	2, 0x2e20
    8fc0:	202d                	.insn	2, 0x202d
    8fc2:	2020                	.insn	2, 0x2020
    8fc4:	2020                	.insn	2, 0x2020
    8fc6:	252d                	.insn	2, 0x252d
    8fc8:	2020                	.insn	2, 0x2020
    8fca:	2020                	.insn	2, 0x2020
    8fcc:	2020                	.insn	2, 0x2020
    8fce:	2020                	.insn	2, 0x2020
    8fd0:	3a2d                	.insn	2, 0x3a2d
    8fd2:	2020                	.insn	2, 0x2020
    8fd4:	2020                	.insn	2, 0x2020
    8fd6:	2020                	.insn	2, 0x2020
    8fd8:	2020                	.insn	2, 0x2020
    8fda:	2e20                	.insn	2, 0x2e20
    8fdc:	3d25                	.insn	2, 0x3d25
    8fde:	2020                	.insn	2, 0x2020
    8fe0:	2020                	.insn	2, 0x2020
    8fe2:	3d20                	.insn	2, 0x3d20
    8fe4:	00000a2b          	.insn	4, 0x0a2b
    8fe8:	2020                	.insn	2, 0x2020
    8fea:	2020                	.insn	2, 0x2020
    8fec:	3a20                	.insn	2, 0x3a20
    8fee:	203a                	.insn	2, 0x203a
    8ff0:	2020                	.insn	2, 0x2020
    8ff2:	2020                	.insn	2, 0x2020
    8ff4:	3a20                	.insn	2, 0x3a20
    8ff6:	203a                	.insn	2, 0x203a
    8ff8:	2020                	.insn	2, 0x2020
    8ffa:	2020                	.insn	2, 0x2020
    8ffc:	2020                	.insn	2, 0x2020
    8ffe:	3d20                	.insn	2, 0x3d20
    9000:	3a20                	.insn	2, 0x3a20
    9002:	203a                	.insn	2, 0x203a
    9004:	2020                	.insn	2, 0x2020
    9006:	20202023          	sw	sp,512(zero) # 200 <get_switches+0x20>
    900a:	2020                	.insn	2, 0x2020
    900c:	2020                	.insn	2, 0x2020
    900e:	2020                	.insn	2, 0x2020
    9010:	2020                	.insn	2, 0x2020
    9012:	3a3a                	.insn	2, 0x3a3a
    9014:	2020                	.insn	2, 0x2020
    9016:	3a20                	.insn	2, 0x3a20
    9018:	203a                	.insn	2, 0x203a
    901a:	2020                	.insn	2, 0x2020
    901c:	2020                	.insn	2, 0x2020
    901e:	2020                	.insn	2, 0x2020
    9020:	2020                	.insn	2, 0x2020
    9022:	2020                	.insn	2, 0x2020
    9024:	2020                	.insn	2, 0x2020
    9026:	2020                	.insn	2, 0x2020
    9028:	2020                	.insn	2, 0x2020
    902a:	203a3d2b          	.insn	4, 0x203a3d2b
    902e:	2020                	.insn	2, 0x2020
    9030:	4020                	.insn	2, 0x4020
    9032:	2020                	.insn	2, 0x2020
    9034:	2020                	.insn	2, 0x2020
    9036:	2020                	.insn	2, 0x2020
    9038:	2020                	.insn	2, 0x2020
    903a:	2020                	.insn	2, 0x2020
    903c:	2020                	.insn	2, 0x2020
    903e:	2020202b          	.insn	4, 0x2020202b
    9042:	2020                	.insn	2, 0x2020
    9044:	3a20                	.insn	2, 0x3a20
    9046:	20202023          	sw	sp,512(zero) # 200 <get_switches+0x20>
    904a:	2020                	.insn	2, 0x2020
    904c:	2020                	.insn	2, 0x2020
    904e:	2020                	.insn	2, 0x2020
    9050:	2e20                	.insn	2, 0x2e20
    9052:	00000a2b          	.insn	4, 0x0a2b
    9056:	0000                	.insn	2, 0x
    9058:	2020                	.insn	2, 0x2020
    905a:	2e20                	.insn	2, 0x2e20
    905c:	202e                	.insn	2, 0x202e
    905e:	2020                	.insn	2, 0x2020
    9060:	2020                	.insn	2, 0x2020
    9062:	2020                	.insn	2, 0x2020
    9064:	3d20                	.insn	2, 0x3d20
    9066:	202e                	.insn	2, 0x202e
    9068:	2020                	.insn	2, 0x2020
    906a:	2020                	.insn	2, 0x2020
    906c:	2020                	.insn	2, 0x2020
    906e:	25202023          	sw	s2,576(zero) # 240 <handle_interrupt+0x24>
    9072:	2020                	.insn	2, 0x2020
    9074:	2020                	.insn	2, 0x2020
    9076:	2e20                	.insn	2, 0x2e20
    9078:	3a25                	.insn	2, 0x3a25
    907a:	2020                	.insn	2, 0x2020
    907c:	2020                	.insn	2, 0x2020
    907e:	2020                	.insn	2, 0x2020
    9080:	2b2e                	.insn	2, 0x2b2e
    9082:	2020                	.insn	2, 0x2020
    9084:	2020                	.insn	2, 0x2020
    9086:	2d20                	.insn	2, 0x2d20
    9088:	2020                	.insn	2, 0x2020
    908a:	2020                	.insn	2, 0x2020
    908c:	2020                	.insn	2, 0x2020
    908e:	2020                	.insn	2, 0x2020
    9090:	2020                	.insn	2, 0x2020
    9092:	2020                	.insn	2, 0x2020
    9094:	2020                	.insn	2, 0x2020
    9096:	2020                	.insn	2, 0x2020
    9098:	2020                	.insn	2, 0x2020
    909a:	2e20                	.insn	2, 0x2e20
    909c:	202d                	.insn	2, 0x202d
    909e:	2020                	.insn	2, 0x2020
    90a0:	2020                	.insn	2, 0x2020
    90a2:	252d                	.insn	2, 0x252d
    90a4:	2020                	.insn	2, 0x2020
    90a6:	2020                	.insn	2, 0x2020
    90a8:	2020                	.insn	2, 0x2020
    90aa:	2020                	.insn	2, 0x2020
    90ac:	3a2d                	.insn	2, 0x3a2d
    90ae:	2020                	.insn	2, 0x2020
    90b0:	2020                	.insn	2, 0x2020
    90b2:	2020                	.insn	2, 0x2020
    90b4:	2020                	.insn	2, 0x2020
    90b6:	2e20                	.insn	2, 0x2e20
    90b8:	3d25                	.insn	2, 0x3d25
    90ba:	2020                	.insn	2, 0x2020
    90bc:	2020                	.insn	2, 0x2020
    90be:	3d20                	.insn	2, 0x3d20
    90c0:	00000a2b          	.insn	4, 0x0a2b
    90c4:	2020                	.insn	2, 0x2020
    90c6:	2020                	.insn	2, 0x2020
    90c8:	2020                	.insn	2, 0x2020
    90ca:	2020                	.insn	2, 0x2020
    90cc:	2020                	.insn	2, 0x2020
    90ce:	2020                	.insn	2, 0x2020
    90d0:	2020                	.insn	2, 0x2020
    90d2:	2020                	.insn	2, 0x2020
    90d4:	2020                	.insn	2, 0x2020
    90d6:	2020                	.insn	2, 0x2020
    90d8:	2020                	.insn	2, 0x2020
    90da:	2020                	.insn	2, 0x2020
    90dc:	2020                	.insn	2, 0x2020
    90de:	3a20                	.insn	2, 0x3a20
    90e0:	203a                	.insn	2, 0x203a
    90e2:	4020                	.insn	2, 0x4020
    90e4:	2020                	.insn	2, 0x2020
    90e6:	2020                	.insn	2, 0x2020
    90e8:	2020                	.insn	2, 0x2020
    90ea:	2020                	.insn	2, 0x2020
    90ec:	2020                	.insn	2, 0x2020
    90ee:	2020                	.insn	2, 0x2020
    90f0:	2020                	.insn	2, 0x2020
    90f2:	2020                	.insn	2, 0x2020
    90f4:	4020                	.insn	2, 0x4020
    90f6:	2020                	.insn	2, 0x2020
    90f8:	2020                	.insn	2, 0x2020
    90fa:	2020                	.insn	2, 0x2020
    90fc:	2020                	.insn	2, 0x2020
    90fe:	2020                	.insn	2, 0x2020
    9100:	252d                	.insn	2, 0x252d
    9102:	2020                	.insn	2, 0x2020
    9104:	2020                	.insn	2, 0x2020
    9106:	2d2e                	.insn	2, 0x2d2e
    9108:	2020                	.insn	2, 0x2020
    910a:	2020                	.insn	2, 0x2020
    910c:	2020                	.insn	2, 0x2020
    910e:	2020                	.insn	2, 0x2020
    9110:	2020                	.insn	2, 0x2020
    9112:	2020                	.insn	2, 0x2020
    9114:	2020                	.insn	2, 0x2020
    9116:	2020                	.insn	2, 0x2020
    9118:	2020                	.insn	2, 0x2020
    911a:	2020                	.insn	2, 0x2020
    911c:	2040                	.insn	2, 0x2040
    911e:	2020                	.insn	2, 0x2020
    9120:	2020                	.insn	2, 0x2020
    9122:	2020                	.insn	2, 0x2020
    9124:	462a                	.insn	2, 0x462a
    9126:	6e75                	.insn	2, 0x6e75
    9128:	796e                	.insn	2, 0x796e
    912a:	6120                	.insn	2, 0x6120
    912c:	656e                	.insn	2, 0x656e
    912e:	746f6463          	bltu	t5,t1,9876 <__global_pointer+0x526e>
    9132:	2a65                	.insn	2, 0x2a65
    9134:	000a                	.insn	2, 0x000a
    9136:	0000                	.insn	2, 0x
    9138:	2020                	.insn	2, 0x2020
    913a:	2020                	.insn	2, 0x2020
    913c:	2020                	.insn	2, 0x2020
    913e:	2020                	.insn	2, 0x2020
    9140:	2020                	.insn	2, 0x2020
    9142:	2020                	.insn	2, 0x2020
    9144:	2020                	.insn	2, 0x2020
    9146:	2020                	.insn	2, 0x2020
    9148:	2020                	.insn	2, 0x2020
    914a:	2020                	.insn	2, 0x2020
    914c:	2020                	.insn	2, 0x2020
    914e:	2020                	.insn	2, 0x2020
    9150:	2020                	.insn	2, 0x2020
    9152:	3d2e                	.insn	2, 0x3d2e
    9154:	4020202b          	.insn	4, 0x4020202b
    9158:	2020                	.insn	2, 0x2020
    915a:	2020                	.insn	2, 0x2020
    915c:	3a20                	.insn	2, 0x3a20
    915e:	202e2b2b          	.insn	4, 0x202e2b2b
    9162:	2020                	.insn	2, 0x2020
    9164:	2020                	.insn	2, 0x2020
    9166:	2020                	.insn	2, 0x2020
    9168:	2520                	.insn	2, 0x2520
    916a:	2020                	.insn	2, 0x2020
    916c:	2020                	.insn	2, 0x2020
    916e:	2020                	.insn	2, 0x2020
    9170:	2020                	.insn	2, 0x2020
    9172:	2020                	.insn	2, 0x2020
    9174:	2320                	.insn	2, 0x2320
    9176:	202d                	.insn	2, 0x202d
    9178:	2020                	.insn	2, 0x2020
    917a:	3a2e                	.insn	2, 0x3a2e
    917c:	2020                	.insn	2, 0x2020
    917e:	2020                	.insn	2, 0x2020
    9180:	2020                	.insn	2, 0x2020
    9182:	2020                	.insn	2, 0x2020
    9184:	2020                	.insn	2, 0x2020
    9186:	2020                	.insn	2, 0x2020
    9188:	2020                	.insn	2, 0x2020
    918a:	203a                	.insn	2, 0x203a
    918c:	2020                	.insn	2, 0x2020
    918e:	2020                	.insn	2, 0x2020
    9190:	2040                	.insn	2, 0x2040
    9192:	2020                	.insn	2, 0x2020
    9194:	2020                	.insn	2, 0x2020
    9196:	2020                	.insn	2, 0x2020
    9198:	2020                	.insn	2, 0x2020
    919a:	2020                	.insn	2, 0x2020
    919c:	2020                	.insn	2, 0x2020
    919e:	7c20                	.insn	2, 0x7c20
    91a0:	00000a2f          	.insn	4, 0x0a2f
    91a4:	2020                	.insn	2, 0x2020
    91a6:	2020                	.insn	2, 0x2020
    91a8:	2020                	.insn	2, 0x2020
    91aa:	2020                	.insn	2, 0x2020
    91ac:	203d                	.insn	2, 0x203d
    91ae:	2020                	.insn	2, 0x2020
    91b0:	2020                	.insn	2, 0x2020
    91b2:	2d20                	.insn	2, 0x2d20
    91b4:	203a                	.insn	2, 0x203a
    91b6:	3a2d                	.insn	2, 0x3a2d
    91b8:	2a2a                	.insn	2, 0x2a2a
    91ba:	2b2e                	.insn	2, 0x2b2e
    91bc:	2020                	.insn	2, 0x2020
    91be:	3d2e                	.insn	2, 0x3d2e
    91c0:	2e20                	.insn	2, 0x2e20
    91c2:	202d                	.insn	2, 0x202d
    91c4:	2020                	.insn	2, 0x2020
    91c6:	2020                	.insn	2, 0x2020
    91c8:	2020                	.insn	2, 0x2020
    91ca:	3a3a                	.insn	2, 0x3a3a
    91cc:	2020                	.insn	2, 0x2020
    91ce:	403d                	.insn	2, 0x403d
    91d0:	2020                	.insn	2, 0x2020
    91d2:	2020                	.insn	2, 0x2020
    91d4:	2b20                	.insn	2, 0x2b20
    91d6:	203d                	.insn	2, 0x203d
    91d8:	2020                	.insn	2, 0x2020
    91da:	2020                	.insn	2, 0x2020
    91dc:	2020                	.insn	2, 0x2020
    91de:	2020                	.insn	2, 0x2020
    91e0:	2020                	.insn	2, 0x2020
    91e2:	3d20                	.insn	2, 0x3d20
    91e4:	20202023          	sw	sp,512(zero) # 200 <get_switches+0x20>
    91e8:	2020                	.insn	2, 0x2020
    91ea:	2020                	.insn	2, 0x2020
    91ec:	2a20                	.insn	2, 0x2a20
    91ee:	202e                	.insn	2, 0x202e
    91f0:	2e20                	.insn	2, 0x2e20
    91f2:	202e                	.insn	2, 0x202e
    91f4:	2020                	.insn	2, 0x2020
    91f6:	2020                	.insn	2, 0x2020
    91f8:	2020                	.insn	2, 0x2020
    91fa:	20402023          	sw	tp,512(zero) # 200 <get_switches+0x20>
    91fe:	2020                	.insn	2, 0x2020
    9200:	2b20                	.insn	2, 0x2b20
    9202:	2020                	.insn	2, 0x2020
    9204:	2020                	.insn	2, 0x2020
    9206:	2020                	.insn	2, 0x2020
    9208:	2020                	.insn	2, 0x2020
    920a:	2020                	.insn	2, 0x2020
    920c:	2020                	.insn	2, 0x2020
    920e:	3d20                	.insn	2, 0x3d20
    9210:	000a                	.insn	2, 0x000a
    9212:	0000                	.insn	2, 0x
    9214:	2020                	.insn	2, 0x2020
    9216:	2020                	.insn	2, 0x2020
    9218:	2020                	.insn	2, 0x2020
    921a:	2d20                	.insn	2, 0x2d20
    921c:	202e                	.insn	2, 0x202e
    921e:	2020                	.insn	2, 0x2020
    9220:	2020                	.insn	2, 0x2020
    9222:	203d                	.insn	2, 0x203d
    9224:	2020                	.insn	2, 0x2020
    9226:	3d3d                	.insn	2, 0x3d3d
    9228:	2020                	.insn	2, 0x2020
    922a:	2020402b          	.insn	4, 0x2020402b
    922e:	3d20202b          	.insn	4, 0x3d20202b
    9232:	2020                	.insn	2, 0x2020
    9234:	2020                	.insn	2, 0x2020
    9236:	2020                	.insn	2, 0x2020
    9238:	2020                	.insn	2, 0x2020
    923a:	2520                	.insn	2, 0x2520
    923c:	20402d2b          	.insn	4, 0x20402d2b
    9240:	203d                	.insn	2, 0x203d
    9242:	2020                	.insn	2, 0x2020
    9244:	2520                	.insn	2, 0x2520
    9246:	202e                	.insn	2, 0x202e
    9248:	2020                	.insn	2, 0x2020
    924a:	2020                	.insn	2, 0x2020
    924c:	2020                	.insn	2, 0x2020
    924e:	2020                	.insn	2, 0x2020
    9250:	2020                	.insn	2, 0x2020
    9252:	2020                	.insn	2, 0x2020
    9254:	2d2a                	.insn	2, 0x2d2a
    9256:	2020                	.insn	2, 0x2020
    9258:	2020                	.insn	2, 0x2020
    925a:	2020                	.insn	2, 0x2020
    925c:	2d3a                	.insn	2, 0x2d3a
    925e:	202a                	.insn	2, 0x202a
    9260:	3a40                	.insn	2, 0x3a40
    9262:	2020                	.insn	2, 0x2020
    9264:	2020                	.insn	2, 0x2020
    9266:	2020                	.insn	2, 0x2020
    9268:	2020                	.insn	2, 0x2020
    926a:	2320                	.insn	2, 0x2320
    926c:	2040                	.insn	2, 0x2040
    926e:	2020                	.insn	2, 0x2020
    9270:	2e3d                	.insn	2, 0x2e3d
    9272:	2b20                	.insn	2, 0x2b20
    9274:	4040                	.insn	2, 0x4040
    9276:	2d3d                	.insn	2, 0x2d3d
    9278:	4040                	.insn	2, 0x4040
    927a:	2020202b          	.insn	4, 0x2020202b
    927e:	2a20                	.insn	2, 0x2a20
    9280:	000a                	.insn	2, 0x000a
    9282:	0000                	.insn	2, 0x
    9284:	2020                	.insn	2, 0x2020
    9286:	2020                	.insn	2, 0x2020
    9288:	2020                	.insn	2, 0x2020
    928a:	3d2e                	.insn	2, 0x3d2e
    928c:	2020                	.insn	2, 0x2020
    928e:	2020                	.insn	2, 0x2020
    9290:	2020                	.insn	2, 0x2020
    9292:	202d                	.insn	2, 0x202d
    9294:	2020                	.insn	2, 0x2020
    9296:	4020                	.insn	2, 0x4020
    9298:	2d2e                	.insn	2, 0x2d2e
    929a:	252d                	.insn	2, 0x252d
    929c:	2020                	.insn	2, 0x2020
    929e:	2d20202b          	.insn	4, 0x2d20202b
    92a2:	2020                	.insn	2, 0x2020
    92a4:	2020                	.insn	2, 0x2020
    92a6:	2020                	.insn	2, 0x2020
    92a8:	2020                	.insn	2, 0x2020
    92aa:	3a20                	.insn	2, 0x3a20
    92ac:	2e2e                	.insn	2, 0x2e2e
    92ae:	203a                	.insn	2, 0x203a
    92b0:	2525252b          	.insn	4, 0x2525252b
    92b4:	2d2e                	.insn	2, 0x2d2e
    92b6:	2525                	.insn	2, 0x2525
    92b8:	2525                	.insn	2, 0x2525
    92ba:	2525                	.insn	2, 0x2525
    92bc:	2525                	.insn	2, 0x2525
    92be:	2525                	.insn	2, 0x2525
    92c0:	2525                	.insn	2, 0x2525
    92c2:	2525                	.insn	2, 0x2525
    92c4:	2b25                	.insn	2, 0x2b25
    92c6:	2525252b          	.insn	4, 0x2525252b
    92ca:	2025                	.insn	2, 0x2025
    92cc:	3a3d                	.insn	2, 0x3a3d
    92ce:	203a                	.insn	2, 0x203a
    92d0:	203a                	.insn	2, 0x203a
    92d2:	2020                	.insn	2, 0x2020
    92d4:	2020                	.insn	2, 0x2020
    92d6:	2020                	.insn	2, 0x2020
    92d8:	2020                	.insn	2, 0x2020
    92da:	2b20                	.insn	2, 0x2b20
    92dc:	2040                	.insn	2, 0x2040
    92de:	2020                	.insn	2, 0x2020
    92e0:	2a20202b          	.insn	4, 0x2a20202b
    92e4:	2a2a                	.insn	2, 0x2a2a
    92e6:	2b3d                	.insn	2, 0x2b3d
    92e8:	202a2a23          	sw	sp,532(s4)
    92ec:	2020                	.insn	2, 0x2020
    92ee:	2a20                	.insn	2, 0x2a20
    92f0:	000a                	.insn	2, 0x000a
    92f2:	0000                	.insn	2, 0x
    92f4:	2020                	.insn	2, 0x2020
    92f6:	2020                	.insn	2, 0x2020
    92f8:	2020                	.insn	2, 0x2020
    92fa:	202d                	.insn	2, 0x202d
    92fc:	2020                	.insn	2, 0x2020
    92fe:	2020                	.insn	2, 0x2020
    9300:	2020                	.insn	2, 0x2020
    9302:	202d                	.insn	2, 0x202d
    9304:	2020                	.insn	2, 0x2020
    9306:	3a20                	.insn	2, 0x3a20
    9308:	2e20                	.insn	2, 0x2e20
    930a:	2a20                	.insn	2, 0x2a20
    930c:	2020                	.insn	2, 0x2020
    930e:	202d                	.insn	2, 0x202d
    9310:	2a20                	.insn	2, 0x2a20
    9312:	2020                	.insn	2, 0x2020
    9314:	2020                	.insn	2, 0x2020
    9316:	2020                	.insn	2, 0x2020
    9318:	2020                	.insn	2, 0x2020
    931a:	2020                	.insn	2, 0x2020
    931c:	2020                	.insn	2, 0x2020
    931e:	2020                	.insn	2, 0x2020
    9320:	202d                	.insn	2, 0x202d
    9322:	2020                	.insn	2, 0x2020
    9324:	203d                	.insn	2, 0x203d
    9326:	2020                	.insn	2, 0x2020
    9328:	2020                	.insn	2, 0x2020
    932a:	2020                	.insn	2, 0x2020
    932c:	2020                	.insn	2, 0x2020
    932e:	2020                	.insn	2, 0x2020
    9330:	2020                	.insn	2, 0x2020
    9332:	2020                	.insn	2, 0x2020
    9334:	2b20                	.insn	2, 0x2b20
    9336:	203a2e2b          	.insn	4, 0x203a2e2b
    933a:	2020                	.insn	2, 0x2020
    933c:	203d                	.insn	2, 0x203d
    933e:	2020                	.insn	2, 0x2020
    9340:	2020                	.insn	2, 0x2020
    9342:	2d20                	.insn	2, 0x2d20
    9344:	2020                	.insn	2, 0x2020
    9346:	2020                	.insn	2, 0x2020
    9348:	2020                	.insn	2, 0x2020
    934a:	2a20                	.insn	2, 0x2a20
    934c:	2020                	.insn	2, 0x2020
    934e:	2020                	.insn	2, 0x2020
    9350:	2b3a                	.insn	2, 0x2b3a
    9352:	2020                	.insn	2, 0x2020
    9354:	2020                	.insn	2, 0x2020
    9356:	2020                	.insn	2, 0x2020
    9358:	2020                	.insn	2, 0x2020
    935a:	2020                	.insn	2, 0x2020
    935c:	2020                	.insn	2, 0x2020
    935e:	3d20                	.insn	2, 0x3d20
    9360:	000a                	.insn	2, 0x000a
    9362:	0000                	.insn	2, 0x
    9364:	2020                	.insn	2, 0x2020
    9366:	2020                	.insn	2, 0x2020
    9368:	3a20                	.insn	2, 0x3a20
    936a:	203a                	.insn	2, 0x203a
    936c:	2020                	.insn	2, 0x2020
    936e:	2020                	.insn	2, 0x2020
    9370:	3a20                	.insn	2, 0x3a20
    9372:	203a                	.insn	2, 0x203a
    9374:	2020                	.insn	2, 0x2020
    9376:	2020                	.insn	2, 0x2020
    9378:	2020                	.insn	2, 0x2020
    937a:	3d20                	.insn	2, 0x3d20
    937c:	3a20                	.insn	2, 0x3a20
    937e:	203a                	.insn	2, 0x203a
    9380:	2020                	.insn	2, 0x2020
    9382:	20202023          	sw	sp,512(zero) # 200 <get_switches+0x20>
    9386:	2020                	.insn	2, 0x2020
    9388:	2020                	.insn	2, 0x2020
    938a:	2020                	.insn	2, 0x2020
    938c:	2020                	.insn	2, 0x2020
    938e:	3a3a                	.insn	2, 0x3a3a
    9390:	2020                	.insn	2, 0x2020
    9392:	3a20                	.insn	2, 0x3a20
    9394:	203a                	.insn	2, 0x203a
    9396:	2020                	.insn	2, 0x2020
    9398:	2020                	.insn	2, 0x2020
    939a:	2020                	.insn	2, 0x2020
    939c:	2020                	.insn	2, 0x2020
    939e:	2020                	.insn	2, 0x2020
    93a0:	2020                	.insn	2, 0x2020
    93a2:	2020                	.insn	2, 0x2020
    93a4:	2020                	.insn	2, 0x2020
    93a6:	203a3d2b          	.insn	4, 0x203a3d2b
    93aa:	2020                	.insn	2, 0x2020
    93ac:	4020                	.insn	2, 0x4020
    93ae:	3a2a232b          	.insn	4, 0x3a2a232b
    93b2:	2020                	.insn	2, 0x2020
    93b4:	2020                	.insn	2, 0x2020
    93b6:	2020                	.insn	2, 0x2020
    93b8:	2020                	.insn	2, 0x2020
    93ba:	2020202b          	.insn	4, 0x2020202b
    93be:	2020                	.insn	2, 0x2020
    93c0:	3a20                	.insn	2, 0x3a20
    93c2:	2e202023          	sw	sp,736(zero) # 2e0 <handle_interrupt+0xc4>
    93c6:	2e2e                	.insn	2, 0x2e2e
    93c8:	202e                	.insn	2, 0x202e
    93ca:	2020                	.insn	2, 0x2020
    93cc:	2e20                	.insn	2, 0x2e20
    93ce:	00000a2b          	.insn	4, 0x0a2b
    93d2:	0000                	.insn	2, 0x
    93d4:	2020                	.insn	2, 0x2020
    93d6:	2e20                	.insn	2, 0x2e20
    93d8:	202e                	.insn	2, 0x202e
    93da:	2020                	.insn	2, 0x2020
    93dc:	2020                	.insn	2, 0x2020
    93de:	2020                	.insn	2, 0x2020
    93e0:	3d20                	.insn	2, 0x3d20
    93e2:	202e                	.insn	2, 0x202e
    93e4:	2020                	.insn	2, 0x2020
    93e6:	2b3a                	.insn	2, 0x2b3a
    93e8:	2e3d                	.insn	2, 0x2e3d
    93ea:	25202023          	sw	s2,576(zero) # 240 <handle_interrupt+0x24>
    93ee:	2020                	.insn	2, 0x2020
    93f0:	2020                	.insn	2, 0x2020
    93f2:	2e20                	.insn	2, 0x2e20
    93f4:	3a25                	.insn	2, 0x3a25
    93f6:	2020                	.insn	2, 0x2020
    93f8:	2020                	.insn	2, 0x2020
    93fa:	2020                	.insn	2, 0x2020
    93fc:	2b2e                	.insn	2, 0x2b2e
    93fe:	2020                	.insn	2, 0x2020
    9400:	2020                	.insn	2, 0x2020
    9402:	2d20                	.insn	2, 0x2d20
    9404:	2020                	.insn	2, 0x2020
    9406:	2020                	.insn	2, 0x2020
    9408:	2020                	.insn	2, 0x2020
    940a:	2020                	.insn	2, 0x2020
    940c:	2020                	.insn	2, 0x2020
    940e:	2020                	.insn	2, 0x2020
    9410:	2020                	.insn	2, 0x2020
    9412:	2020                	.insn	2, 0x2020
    9414:	2020                	.insn	2, 0x2020
    9416:	2e20                	.insn	2, 0x2e20
    9418:	202d                	.insn	2, 0x202d
    941a:	2020                	.insn	2, 0x2020
    941c:	2020                	.insn	2, 0x2020
    941e:	252d                	.insn	2, 0x252d
    9420:	2020                	.insn	2, 0x2020
    9422:	2020                	.insn	2, 0x2020
    9424:	2020                	.insn	2, 0x2020
    9426:	2020                	.insn	2, 0x2020
    9428:	3a2d                	.insn	2, 0x3a2d
    942a:	2020                	.insn	2, 0x2020
    942c:	2020                	.insn	2, 0x2020
    942e:	2020                	.insn	2, 0x2020
    9430:	2020                	.insn	2, 0x2020
    9432:	2e20                	.insn	2, 0x2e20
    9434:	3d25                	.insn	2, 0x3d25
    9436:	2020                	.insn	2, 0x2020
    9438:	2020                	.insn	2, 0x2020
    943a:	3d20                	.insn	2, 0x3d20
    943c:	00000a2b          	.insn	4, 0x0a2b
    9440:	2020                	.insn	2, 0x2020
    9442:	2020                	.insn	2, 0x2020
    9444:	2020                	.insn	2, 0x2020
    9446:	2020                	.insn	2, 0x2020
    9448:	2020                	.insn	2, 0x2020
    944a:	2020                	.insn	2, 0x2020
    944c:	2020                	.insn	2, 0x2020
    944e:	2020                	.insn	2, 0x2020
    9450:	2020                	.insn	2, 0x2020
    9452:	2020                	.insn	2, 0x2020
    9454:	2020                	.insn	2, 0x2020
    9456:	2020                	.insn	2, 0x2020
    9458:	2020                	.insn	2, 0x2020
    945a:	2020                	.insn	2, 0x2020
    945c:	2020                	.insn	2, 0x2020
    945e:	4020                	.insn	2, 0x4020
    9460:	2020                	.insn	2, 0x2020
    9462:	2020                	.insn	2, 0x2020
    9464:	2020                	.insn	2, 0x2020
    9466:	2020                	.insn	2, 0x2020
    9468:	2020                	.insn	2, 0x2020
    946a:	2020                	.insn	2, 0x2020
    946c:	2020                	.insn	2, 0x2020
    946e:	2020                	.insn	2, 0x2020
    9470:	4020                	.insn	2, 0x4020
    9472:	2020                	.insn	2, 0x2020
    9474:	2020                	.insn	2, 0x2020
    9476:	2020                	.insn	2, 0x2020
    9478:	2020                	.insn	2, 0x2020
    947a:	3a20                	.insn	2, 0x3a20
    947c:	202a                	.insn	2, 0x202a
    947e:	2020                	.insn	2, 0x2020
    9480:	2020                	.insn	2, 0x2020
    9482:	3a2e                	.insn	2, 0x3a2e
    9484:	3d2e                	.insn	2, 0x3d2e
    9486:	2a2a                	.insn	2, 0x2a2a
    9488:	2020                	.insn	2, 0x2020
    948a:	2020                	.insn	2, 0x2020
    948c:	4220                	.insn	2, 0x4220
    948e:	616c                	.insn	2, 0x616c
    9490:	202c                	.insn	2, 0x202c
    9492:	6c62                	.insn	2, 0x6c62
    9494:	2c61                	.insn	2, 0x2c61
    9496:	6220                	.insn	2, 0x6220
    9498:	616c                	.insn	2, 0x616c
    949a:	2020                	.insn	2, 0x2020
    949c:	2020                	.insn	2, 0x2020
    949e:	2020                	.insn	2, 0x2020
    94a0:	2020                	.insn	2, 0x2020
    94a2:	2020                	.insn	2, 0x2020
    94a4:	2020                	.insn	2, 0x2020
    94a6:	2020                	.insn	2, 0x2020
    94a8:	2020                	.insn	2, 0x2020
    94aa:	2020                	.insn	2, 0x2020
    94ac:	2020                	.insn	2, 0x2020
    94ae:	2020                	.insn	2, 0x2020
    94b0:	2020                	.insn	2, 0x2020
    94b2:	233d                	.insn	2, 0x233d
    94b4:	000a                	.insn	2, 0x000a
    94b6:	0000                	.insn	2, 0x
    94b8:	2020                	.insn	2, 0x2020
    94ba:	2020                	.insn	2, 0x2020
    94bc:	2020                	.insn	2, 0x2020
    94be:	2020                	.insn	2, 0x2020
    94c0:	2020                	.insn	2, 0x2020
    94c2:	2020                	.insn	2, 0x2020
    94c4:	2020                	.insn	2, 0x2020
    94c6:	2020                	.insn	2, 0x2020
    94c8:	2020                	.insn	2, 0x2020
    94ca:	2020                	.insn	2, 0x2020
    94cc:	2020                	.insn	2, 0x2020
    94ce:	2020                	.insn	2, 0x2020
    94d0:	2020                	.insn	2, 0x2020
    94d2:	3a20                	.insn	2, 0x3a20
    94d4:	203a                	.insn	2, 0x203a
    94d6:	4020                	.insn	2, 0x4020
    94d8:	2020                	.insn	2, 0x2020
    94da:	2020                	.insn	2, 0x2020
    94dc:	2020                	.insn	2, 0x2020
    94de:	2020                	.insn	2, 0x2020
    94e0:	2020                	.insn	2, 0x2020
    94e2:	2020                	.insn	2, 0x2020
    94e4:	2020                	.insn	2, 0x2020
    94e6:	2020                	.insn	2, 0x2020
    94e8:	4020                	.insn	2, 0x4020
    94ea:	2020                	.insn	2, 0x2020
    94ec:	2020                	.insn	2, 0x2020
    94ee:	2020                	.insn	2, 0x2020
    94f0:	2020                	.insn	2, 0x2020
    94f2:	2020                	.insn	2, 0x2020
    94f4:	252d                	.insn	2, 0x252d
    94f6:	2020                	.insn	2, 0x2020
    94f8:	2020                	.insn	2, 0x2020
    94fa:	2d2e                	.insn	2, 0x2d2e
    94fc:	2020                	.insn	2, 0x2020
    94fe:	2020                	.insn	2, 0x2020
    9500:	2020                	.insn	2, 0x2020
    9502:	2020                	.insn	2, 0x2020
    9504:	2020                	.insn	2, 0x2020
    9506:	2020                	.insn	2, 0x2020
    9508:	2f7c                	.insn	2, 0x2f7c
    950a:	2020                	.insn	2, 0x2020
    950c:	2020                	.insn	2, 0x2020
    950e:	2020                	.insn	2, 0x2020
    9510:	2040                	.insn	2, 0x2040
    9512:	2020                	.insn	2, 0x2020
    9514:	2020                	.insn	2, 0x2020
    9516:	2020                	.insn	2, 0x2020
    9518:	2020                	.insn	2, 0x2020
    951a:	2020                	.insn	2, 0x2020
    951c:	2020                	.insn	2, 0x2020
    951e:	2020                	.insn	2, 0x2020
    9520:	2020                	.insn	2, 0x2020
    9522:	2020                	.insn	2, 0x2020
    9524:	2020                	.insn	2, 0x2020
    9526:	2020                	.insn	2, 0x2020
    9528:	2d20                	.insn	2, 0x2d20
    952a:	2d3a                	.insn	2, 0x2d3a
    952c:	000a                	.insn	2, 0x000a
    952e:	0000                	.insn	2, 0x
    9530:	2020                	.insn	2, 0x2020
    9532:	2020                	.insn	2, 0x2020
    9534:	2020                	.insn	2, 0x2020
    9536:	2020                	.insn	2, 0x2020
    9538:	2020                	.insn	2, 0x2020
    953a:	2020                	.insn	2, 0x2020
    953c:	2020                	.insn	2, 0x2020
    953e:	2020                	.insn	2, 0x2020
    9540:	2020                	.insn	2, 0x2020
    9542:	2020                	.insn	2, 0x2020
    9544:	2020                	.insn	2, 0x2020
    9546:	2020                	.insn	2, 0x2020
    9548:	2020                	.insn	2, 0x2020
    954a:	3d2e                	.insn	2, 0x3d2e
    954c:	4020202b          	.insn	4, 0x4020202b
    9550:	2020                	.insn	2, 0x2020
    9552:	2020                	.insn	2, 0x2020
    9554:	3a20                	.insn	2, 0x3a20
    9556:	202e2b2b          	.insn	4, 0x202e2b2b
    955a:	2020                	.insn	2, 0x2020
    955c:	2020                	.insn	2, 0x2020
    955e:	2020                	.insn	2, 0x2020
    9560:	2520                	.insn	2, 0x2520
    9562:	2020                	.insn	2, 0x2020
    9564:	2020                	.insn	2, 0x2020
    9566:	2020                	.insn	2, 0x2020
    9568:	2020                	.insn	2, 0x2020
    956a:	2020                	.insn	2, 0x2020
    956c:	2320                	.insn	2, 0x2320
    956e:	202d                	.insn	2, 0x202d
    9570:	2020                	.insn	2, 0x2020
    9572:	3a2e                	.insn	2, 0x3a2e
    9574:	2020                	.insn	2, 0x2020
    9576:	2020                	.insn	2, 0x2020
    9578:	2020                	.insn	2, 0x2020
    957a:	2020                	.insn	2, 0x2020
    957c:	2020                	.insn	2, 0x2020
    957e:	2020                	.insn	2, 0x2020
    9580:	2020                	.insn	2, 0x2020
    9582:	203a                	.insn	2, 0x203a
    9584:	2020                	.insn	2, 0x2020
    9586:	2020                	.insn	2, 0x2020
    9588:	2040                	.insn	2, 0x2040
    958a:	2020                	.insn	2, 0x2020
    958c:	2020                	.insn	2, 0x2020
    958e:	2020                	.insn	2, 0x2020
    9590:	2020                	.insn	2, 0x2020
    9592:	2020                	.insn	2, 0x2020
    9594:	2020                	.insn	2, 0x2020
    9596:	2020                	.insn	2, 0x2020
    9598:	2020                	.insn	2, 0x2020
    959a:	2020                	.insn	2, 0x2020
    959c:	2020                	.insn	2, 0x2020
    959e:	2020                	.insn	2, 0x2020
    95a0:	3d20                	.insn	2, 0x3d20
    95a2:	0a3d                	.insn	2, 0x0a3d
    95a4:	0000                	.insn	2, 0x
    95a6:	0000                	.insn	2, 0x
    95a8:	2020                	.insn	2, 0x2020
    95aa:	2020                	.insn	2, 0x2020
    95ac:	2020                	.insn	2, 0x2020
    95ae:	2020                	.insn	2, 0x2020
    95b0:	2020                	.insn	2, 0x2020
    95b2:	2020                	.insn	2, 0x2020
    95b4:	2020                	.insn	2, 0x2020
    95b6:	2020                	.insn	2, 0x2020
    95b8:	2020                	.insn	2, 0x2020
    95ba:	2020                	.insn	2, 0x2020
    95bc:	2020                	.insn	2, 0x2020
    95be:	2020                	.insn	2, 0x2020
    95c0:	2020                	.insn	2, 0x2020
    95c2:	2020                	.insn	2, 0x2020
    95c4:	2020                	.insn	2, 0x2020
    95c6:	4020                	.insn	2, 0x4020
    95c8:	2020                	.insn	2, 0x2020
    95ca:	2020                	.insn	2, 0x2020
    95cc:	2020                	.insn	2, 0x2020
    95ce:	2020                	.insn	2, 0x2020
    95d0:	2020                	.insn	2, 0x2020
    95d2:	2020                	.insn	2, 0x2020
    95d4:	2020                	.insn	2, 0x2020
    95d6:	2020                	.insn	2, 0x2020
    95d8:	4020                	.insn	2, 0x4020
    95da:	2020                	.insn	2, 0x2020
    95dc:	2020                	.insn	2, 0x2020
    95de:	2020                	.insn	2, 0x2020
    95e0:	2020                	.insn	2, 0x2020
    95e2:	3a20                	.insn	2, 0x3a20
    95e4:	202a                	.insn	2, 0x202a
    95e6:	2020                	.insn	2, 0x2020
    95e8:	2020                	.insn	2, 0x2020
    95ea:	3a2e                	.insn	2, 0x3a2e
    95ec:	3d2e                	.insn	2, 0x3d2e
    95ee:	2a2a                	.insn	2, 0x2a2a
    95f0:	2020                	.insn	2, 0x2020
    95f2:	2020                	.insn	2, 0x2020
    95f4:	4220                	.insn	2, 0x4220
    95f6:	616c                	.insn	2, 0x616c
    95f8:	202c                	.insn	2, 0x202c
    95fa:	6c62                	.insn	2, 0x6c62
    95fc:	2c61                	.insn	2, 0x2c61
    95fe:	6220                	.insn	2, 0x6220
    9600:	616c                	.insn	2, 0x616c
    9602:	2e2e                	.insn	2, 0x2e2e
    9604:	202e                	.insn	2, 0x202e
    9606:	2020                	.insn	2, 0x2020
    9608:	2020                	.insn	2, 0x2020
    960a:	2020                	.insn	2, 0x2020
    960c:	2020                	.insn	2, 0x2020
    960e:	2020                	.insn	2, 0x2020
    9610:	2020                	.insn	2, 0x2020
    9612:	2020                	.insn	2, 0x2020
    9614:	2020                	.insn	2, 0x2020
    9616:	2020                	.insn	2, 0x2020
    9618:	2020                	.insn	2, 0x2020
    961a:	233d                	.insn	2, 0x233d
    961c:	000a                	.insn	2, 0x000a
    961e:	0000                	.insn	2, 0x
    9620:	2020                	.insn	2, 0x2020
    9622:	2020                	.insn	2, 0x2020
    9624:	2020                	.insn	2, 0x2020
    9626:	2020                	.insn	2, 0x2020
    9628:	2020                	.insn	2, 0x2020
    962a:	2020                	.insn	2, 0x2020
    962c:	2020                	.insn	2, 0x2020
    962e:	2020                	.insn	2, 0x2020
    9630:	2020                	.insn	2, 0x2020
    9632:	2020                	.insn	2, 0x2020
    9634:	2020                	.insn	2, 0x2020
    9636:	2020                	.insn	2, 0x2020
    9638:	2020                	.insn	2, 0x2020
    963a:	2020                	.insn	2, 0x2020
    963c:	2020                	.insn	2, 0x2020
    963e:	4020                	.insn	2, 0x4020
    9640:	2020                	.insn	2, 0x2020
    9642:	2020                	.insn	2, 0x2020
    9644:	2020                	.insn	2, 0x2020
    9646:	2020                	.insn	2, 0x2020
    9648:	2020                	.insn	2, 0x2020
    964a:	2020                	.insn	2, 0x2020
    964c:	2020                	.insn	2, 0x2020
    964e:	2020                	.insn	2, 0x2020
    9650:	4020                	.insn	2, 0x4020
    9652:	2020                	.insn	2, 0x2020
    9654:	2020                	.insn	2, 0x2020
    9656:	2020                	.insn	2, 0x2020
    9658:	2020                	.insn	2, 0x2020
    965a:	3a20                	.insn	2, 0x3a20
    965c:	202a                	.insn	2, 0x202a
    965e:	2020                	.insn	2, 0x2020
    9660:	2020                	.insn	2, 0x2020
    9662:	3a2e                	.insn	2, 0x3a2e
    9664:	3d2e                	.insn	2, 0x3d2e
    9666:	2a2a                	.insn	2, 0x2a2a
    9668:	2020                	.insn	2, 0x2020
    966a:	2020                	.insn	2, 0x2020
    966c:	4220                	.insn	2, 0x4220
    966e:	616c                	.insn	2, 0x616c
    9670:	202c                	.insn	2, 0x202c
    9672:	6c62                	.insn	2, 0x6c62
    9674:	2c61                	.insn	2, 0x2c61
    9676:	6220                	.insn	2, 0x6220
    9678:	616c                	.insn	2, 0x616c
    967a:	2e2e                	.insn	2, 0x2e2e
    967c:	2020                	.insn	2, 0x2020
    967e:	2020                	.insn	2, 0x2020
    9680:	2020                	.insn	2, 0x2020
    9682:	2020                	.insn	2, 0x2020
    9684:	2020                	.insn	2, 0x2020
    9686:	2020                	.insn	2, 0x2020
    9688:	2020                	.insn	2, 0x2020
    968a:	2020                	.insn	2, 0x2020
    968c:	2020                	.insn	2, 0x2020
    968e:	2020                	.insn	2, 0x2020
    9690:	2020                	.insn	2, 0x2020
    9692:	233d                	.insn	2, 0x233d
    9694:	000a                	.insn	2, 0x000a
    9696:	0000                	.insn	2, 0x
    9698:	2020                	.insn	2, 0x2020
    969a:	2020                	.insn	2, 0x2020
    969c:	2020                	.insn	2, 0x2020
    969e:	2020                	.insn	2, 0x2020
    96a0:	2020                	.insn	2, 0x2020
    96a2:	2020                	.insn	2, 0x2020
    96a4:	2020                	.insn	2, 0x2020
    96a6:	2020                	.insn	2, 0x2020
    96a8:	2020                	.insn	2, 0x2020
    96aa:	2020                	.insn	2, 0x2020
    96ac:	2020                	.insn	2, 0x2020
    96ae:	2020                	.insn	2, 0x2020
    96b0:	2020                	.insn	2, 0x2020
    96b2:	2020                	.insn	2, 0x2020
    96b4:	2020                	.insn	2, 0x2020
    96b6:	4020                	.insn	2, 0x4020
    96b8:	2020                	.insn	2, 0x2020
    96ba:	2020                	.insn	2, 0x2020
    96bc:	2020                	.insn	2, 0x2020
    96be:	2020                	.insn	2, 0x2020
    96c0:	2020                	.insn	2, 0x2020
    96c2:	2020                	.insn	2, 0x2020
    96c4:	2020                	.insn	2, 0x2020
    96c6:	2020                	.insn	2, 0x2020
    96c8:	4020                	.insn	2, 0x4020
    96ca:	2020                	.insn	2, 0x2020
    96cc:	2020                	.insn	2, 0x2020
    96ce:	2020                	.insn	2, 0x2020
    96d0:	2020                	.insn	2, 0x2020
    96d2:	3a20                	.insn	2, 0x3a20
    96d4:	202a                	.insn	2, 0x202a
    96d6:	2020                	.insn	2, 0x2020
    96d8:	2020                	.insn	2, 0x2020
    96da:	3a2e                	.insn	2, 0x3a2e
    96dc:	3d2e                	.insn	2, 0x3d2e
    96de:	2a2a                	.insn	2, 0x2a2a
    96e0:	2020                	.insn	2, 0x2020
    96e2:	2020                	.insn	2, 0x2020
    96e4:	4220                	.insn	2, 0x4220
    96e6:	616c                	.insn	2, 0x616c
    96e8:	202c                	.insn	2, 0x202c
    96ea:	6c62                	.insn	2, 0x6c62
    96ec:	2c61                	.insn	2, 0x2c61
    96ee:	6220                	.insn	2, 0x6220
    96f0:	616c                	.insn	2, 0x616c
    96f2:	202e                	.insn	2, 0x202e
    96f4:	2020                	.insn	2, 0x2020
    96f6:	2020                	.insn	2, 0x2020
    96f8:	2020                	.insn	2, 0x2020
    96fa:	2020                	.insn	2, 0x2020
    96fc:	2020                	.insn	2, 0x2020
    96fe:	2020                	.insn	2, 0x2020
    9700:	2020                	.insn	2, 0x2020
    9702:	2020                	.insn	2, 0x2020
    9704:	2020                	.insn	2, 0x2020
    9706:	2020                	.insn	2, 0x2020
    9708:	2020                	.insn	2, 0x2020
    970a:	233d                	.insn	2, 0x233d
    970c:	000a                	.insn	2, 0x000a
    970e:	0000                	.insn	2, 0x
    9710:	2020                	.insn	2, 0x2020
    9712:	2020                	.insn	2, 0x2020
    9714:	2020                	.insn	2, 0x2020
    9716:	2020                	.insn	2, 0x2020
    9718:	2020                	.insn	2, 0x2020
    971a:	2020                	.insn	2, 0x2020
    971c:	2020                	.insn	2, 0x2020
    971e:	2020                	.insn	2, 0x2020
    9720:	2020                	.insn	2, 0x2020
    9722:	2020                	.insn	2, 0x2020
    9724:	2020                	.insn	2, 0x2020
    9726:	2020                	.insn	2, 0x2020
    9728:	2020                	.insn	2, 0x2020
    972a:	3a20                	.insn	2, 0x3a20
    972c:	203a                	.insn	2, 0x203a
    972e:	4020                	.insn	2, 0x4020
    9730:	2020                	.insn	2, 0x2020
    9732:	2020                	.insn	2, 0x2020
    9734:	2020                	.insn	2, 0x2020
    9736:	2020                	.insn	2, 0x2020
    9738:	2020                	.insn	2, 0x2020
    973a:	2020                	.insn	2, 0x2020
    973c:	2020                	.insn	2, 0x2020
    973e:	2020                	.insn	2, 0x2020
    9740:	4020                	.insn	2, 0x4020
    9742:	2020                	.insn	2, 0x2020
    9744:	2020                	.insn	2, 0x2020
    9746:	2020                	.insn	2, 0x2020
    9748:	2020                	.insn	2, 0x2020
    974a:	2020                	.insn	2, 0x2020
    974c:	252d                	.insn	2, 0x252d
    974e:	2020                	.insn	2, 0x2020
    9750:	2020                	.insn	2, 0x2020
    9752:	2d2e                	.insn	2, 0x2d2e
    9754:	2020                	.insn	2, 0x2020
    9756:	2020                	.insn	2, 0x2020
    9758:	2020                	.insn	2, 0x2020
    975a:	2020                	.insn	2, 0x2020
    975c:	2020                	.insn	2, 0x2020
    975e:	2020                	.insn	2, 0x2020
    9760:	2020                	.insn	2, 0x2020
    9762:	2020                	.insn	2, 0x2020
    9764:	2020                	.insn	2, 0x2020
    9766:	2020                	.insn	2, 0x2020
    9768:	2040                	.insn	2, 0x2040
    976a:	2020                	.insn	2, 0x2020
    976c:	2020                	.insn	2, 0x2020
    976e:	2020                	.insn	2, 0x2020
    9770:	2020                	.insn	2, 0x2020
    9772:	2020                	.insn	2, 0x2020
    9774:	2020                	.insn	2, 0x2020
    9776:	2020                	.insn	2, 0x2020
    9778:	2020                	.insn	2, 0x2020
    977a:	2020                	.insn	2, 0x2020
    977c:	2020                	.insn	2, 0x2020
    977e:	2020                	.insn	2, 0x2020
    9780:	2d20                	.insn	2, 0x2d20
    9782:	2d3a                	.insn	2, 0x2d3a
    9784:	000a                	.insn	2, 0x000a
    9786:	0000                	.insn	2, 0x
    9788:	5b0a                	.insn	2, 0x5b0a
    978a:	5845                	.insn	2, 0x5845
    978c:	54504543          	.insn	4, 0x54504543
    9790:	4f49                	.insn	2, 0x4f49
    9792:	5d4e                	.insn	2, 0x5d4e
    9794:	4920                	.insn	2, 0x4920
    9796:	736e                	.insn	2, 0x736e
    9798:	7274                	.insn	2, 0x7274
    979a:	6375                	.insn	2, 0x6375
    979c:	6974                	.insn	2, 0x6974
    979e:	61206e6f          	jal	t3,fdb0 <__global_pointer+0xb7a8>
    97a2:	6464                	.insn	2, 0x6464
    97a4:	6572                	.insn	2, 0x6572
    97a6:	6d207373          	csrrci	t1,0x6d2,0
    97aa:	7369                	.insn	2, 0x7369
    97ac:	6c61                	.insn	2, 0x6c61
    97ae:	6769                	.insn	2, 0x6769
    97b0:	6d6e                	.insn	2, 0x6d6e
    97b2:	6e65                	.insn	2, 0x6e65
    97b4:	2e74                	.insn	2, 0x2e74
    97b6:	0020                	.insn	2, 0x0020
    97b8:	5b0a                	.insn	2, 0x5b0a
    97ba:	5845                	.insn	2, 0x5845
    97bc:	54504543          	.insn	4, 0x54504543
    97c0:	4f49                	.insn	2, 0x4f49
    97c2:	5d4e                	.insn	2, 0x5d4e
    97c4:	4920                	.insn	2, 0x4920
    97c6:	6c6c                	.insn	2, 0x6c6c
    97c8:	6765                	.insn	2, 0x6765
    97ca:	6c61                	.insn	2, 0x6c61
    97cc:	6920                	.insn	2, 0x6920
    97ce:	736e                	.insn	2, 0x736e
    97d0:	7274                	.insn	2, 0x7274
    97d2:	6375                	.insn	2, 0x6375
    97d4:	6974                	.insn	2, 0x6974
    97d6:	202e6e6f          	jal	t3,ef9d8 <__global_pointer+0xeb3d0>
    97da:	0000                	.insn	2, 0x
    97dc:	5b0a                	.insn	2, 0x5b0a
    97de:	5845                	.insn	2, 0x5845
    97e0:	54504543          	.insn	4, 0x54504543
    97e4:	4f49                	.insn	2, 0x4f49
    97e6:	5d4e                	.insn	2, 0x5d4e
    97e8:	5520                	.insn	2, 0x5520
    97ea:	6b6e                	.insn	2, 0x6b6e
    97ec:	6f6e                	.insn	2, 0x6f6e
    97ee:	65206e77          	.insn	4, 0x65206e77
    97f2:	7272                	.insn	2, 0x7272
    97f4:	202e726f          	jal	tp,f09f6 <__global_pointer+0xec3ee>
    97f8:	0000                	.insn	2, 0x
    97fa:	0000                	.insn	2, 0x
    97fc:	7845                	.insn	2, 0x7845
    97fe:	74706563          	bltu	zero,t2,9f48 <__global_pointer+0x5940>
    9802:	6f69                	.insn	2, 0x6f69
    9804:	206e                	.insn	2, 0x206e
    9806:	6441                	.insn	2, 0x6441
    9808:	7264                	.insn	2, 0x7264
    980a:	7365                	.insn	2, 0x7365
    980c:	00203a73          	csrrc	s4,frm,zero

Disassembly of section .comment:

00000000 <.comment>:
   0:	3a434347          	.insn	4, 0x3a434347
   4:	2820                	.insn	2, 0x2820
   6:	2029                	.insn	2, 0x2029
   8:	3331                	.insn	2, 0x3331
   a:	322e                	.insn	2, 0x322e
   c:	302e                	.insn	2, 0x302e
	...

Disassembly of section .riscv.attributes:

00000000 <.riscv.attributes>:
   0:	3641                	.insn	2, 0x3641
   2:	0000                	.insn	2, 0x
   4:	7200                	.insn	2, 0x7200
   6:	7369                	.insn	2, 0x7369
   8:	01007663          	bgeu	zero,a6,14 <_isr_routine+0xc>
   c:	002c                	.insn	2, 0x002c
   e:	0000                	.insn	2, 0x
  10:	1004                	.insn	2, 0x1004
  12:	7205                	.insn	2, 0x7205
  14:	3376                	.insn	2, 0x3376
  16:	6932                	.insn	2, 0x6932
  18:	7032                	.insn	2, 0x7032
  1a:	5f31                	.insn	2, 0x5f31
  1c:	326d                	.insn	2, 0x326d
  1e:	3070                	.insn	2, 0x3070
  20:	7a5f 6369 7273      	.insn	6, 0x727363697a5f
  26:	7032                	.insn	2, 0x7032
  28:	5f30                	.insn	2, 0x5f30
  2a:	6d7a                	.insn	2, 0x6d7a
  2c:	756d                	.insn	2, 0x756d
  2e:	316c                	.insn	2, 0x316c
  30:	3070                	.insn	2, 0x3070
  32:	0800                	.insn	2, 0x0800
  34:	0a01                	.insn	2, 0x0a01
  36:	Address 0x36 is out of bounds.

