
main.elf:     file format elf32-littleriscv


Disassembly of section .text:

00000000 <_isr_handler>:
       0:	0080006f          	j	8 <_isr_routine>
       4:	1440006f          	j	148 <_start>

00000008 <_isr_routine>:
       8:	f8010113          	addi	sp,sp,-128
       c:	00112023          	sw	ra,0(sp)
      10:	00312423          	sw	gp,8(sp)
      14:	00412623          	sw	tp,12(sp)
      18:	00512823          	sw	t0,16(sp)
      1c:	00612a23          	sw	t1,20(sp)
      20:	00712c23          	sw	t2,24(sp)
      24:	00812e23          	sw	s0,28(sp)
      28:	02912023          	sw	s1,32(sp)
      2c:	02a12223          	sw	a0,36(sp)
      30:	02b12423          	sw	a1,40(sp)
      34:	02c12623          	sw	a2,44(sp)
      38:	02d12823          	sw	a3,48(sp)
      3c:	02e12a23          	sw	a4,52(sp)
      40:	02f12c23          	sw	a5,56(sp)
      44:	03012e23          	sw	a6,60(sp)
      48:	05112023          	sw	a7,64(sp)
      4c:	05212223          	sw	s2,68(sp)
      50:	05312423          	sw	s3,72(sp)
      54:	05412623          	sw	s4,76(sp)
      58:	05512823          	sw	s5,80(sp)
      5c:	05612a23          	sw	s6,84(sp)
      60:	05712c23          	sw	s7,88(sp)
      64:	05812e23          	sw	s8,92(sp)
      68:	07912023          	sw	s9,96(sp)
      6c:	07a12223          	sw	s10,100(sp)
      70:	07b12423          	sw	s11,104(sp)
      74:	07c12623          	sw	t3,108(sp)
      78:	07d12823          	sw	t4,112(sp)
      7c:	07e12a23          	sw	t5,116(sp)
      80:	07f12c23          	sw	t6,120(sp)
      84:	342022f3          	csrr	t0,mcause
      88:	80000337          	lui	t1,0x80000
      8c:	02536463          	bltu	t1,t0,b4 <external_irq>
      90:	00028833          	add	a6,t0,zero
      94:	00b00313          	li	t1,11
      98:	00628463          	beq	t0,t1,a0 <skip_init_args>
      9c:	34102573          	csrr	a0,mepc

000000a0 <skip_init_args>:
      a0:	314030ef          	jal	33b4 <handle_exception>
      a4:	341022f3          	csrr	t0,mepc
      a8:	00428293          	addi	t0,t0,4
      ac:	34129073          	csrw	mepc,t0
      b0:	0180006f          	j	c8 <restore>

000000b4 <external_irq>:
      b4:	800002b7          	lui	t0,0x80000
      b8:	fff28293          	addi	t0,t0,-1 # 7fffffff <_stack_end+0x7fef67ef>
      bc:	34202373          	csrr	t1,mcause
      c0:	0062f533          	and	a0,t0,t1
      c4:	158000ef          	jal	21c <handle_interrupt>

000000c8 <restore>:
      c8:	00012083          	lw	ra,0(sp)
      cc:	00812183          	lw	gp,8(sp)
      d0:	00c12203          	lw	tp,12(sp)
      d4:	01012283          	lw	t0,16(sp)
      d8:	01412303          	lw	t1,20(sp)
      dc:	01812383          	lw	t2,24(sp)
      e0:	01c12403          	lw	s0,28(sp)
      e4:	02012483          	lw	s1,32(sp)
      e8:	02412503          	lw	a0,36(sp)
      ec:	02812583          	lw	a1,40(sp)
      f0:	02c12603          	lw	a2,44(sp)
      f4:	03012683          	lw	a3,48(sp)
      f8:	03412703          	lw	a4,52(sp)
      fc:	03812783          	lw	a5,56(sp)
     100:	03c12803          	lw	a6,60(sp)
     104:	04012883          	lw	a7,64(sp)
     108:	04412903          	lw	s2,68(sp)
     10c:	04812983          	lw	s3,72(sp)
     110:	04c12a03          	lw	s4,76(sp)
     114:	05012a83          	lw	s5,80(sp)
     118:	05412b03          	lw	s6,84(sp)
     11c:	05812b83          	lw	s7,88(sp)
     120:	05c12c03          	lw	s8,92(sp)
     124:	06012c83          	lw	s9,96(sp)
     128:	06412d03          	lw	s10,100(sp)
     12c:	06812d83          	lw	s11,104(sp)
     130:	06c12e03          	lw	t3,108(sp)
     134:	07012e83          	lw	t4,112(sp)
     138:	07412f03          	lw	t5,116(sp)
     13c:	07812f83          	lw	t6,120(sp)
     140:	08010113          	addi	sp,sp,128
     144:	30200073          	mret

00000148 <_start>:
     148:	30401073          	csrw	mie,zero
     14c:	00109117          	auipc	sp,0x109
     150:	6c410113          	addi	sp,sp,1732 # 109810 <_stack_end>
     154:	00004197          	auipc	gp,0x4
     158:	4b418193          	addi	gp,gp,1204 # 4608 <__global_pointer>
     15c:	00003517          	auipc	a0,0x3
     160:	4e450513          	addi	a0,a0,1252 # 3640 <welcome_msg>
     164:	00400893          	li	a7,4
     168:	00000073          	ecall
     16c:	028030ef          	jal	3194 <main>

00000170 <loop>:
     170:	0000006f          	j	170 <loop>

00000174 <disable_interrupts>:
     174:	30406073          	csrsi	mie,0
     178:	30006073          	csrsi	mstatus,0
     17c:	00008067          	ret

00000180 <enable_interrupts>:
     180:	3048e073          	csrsi	mie,17
     184:	3001e073          	csrsi	mstatus,3
     188:	00008067          	ret

0000018c <create_player>:
     18c:	03200713          	li	a4,50
     190:	00e52023          	sw	a4,0(a0)
     194:	3e800713          	li	a4,1000
     198:	00e52223          	sw	a4,4(a0)
     19c:	00500713          	li	a4,5
     1a0:	00e52423          	sw	a4,8(a0)
     1a4:	00600713          	li	a4,6
     1a8:	00e52623          	sw	a4,12(a0)
     1ac:	00052823          	sw	zero,16(a0)
     1b0:	00052a23          	sw	zero,20(a0)
     1b4:	00052c23          	sw	zero,24(a0)
     1b8:	00052e23          	sw	zero,28(a0)
     1bc:	02052023          	sw	zero,32(a0)
     1c0:	02052223          	sw	zero,36(a0)
     1c4:	02052423          	sw	zero,40(a0)
     1c8:	02052623          	sw	zero,44(a0)
     1cc:	02052823          	sw	zero,48(a0)
     1d0:	02052a23          	sw	zero,52(a0)
     1d4:	02052c23          	sw	zero,56(a0)
     1d8:	02052e23          	sw	zero,60(a0)
     1dc:	00008067          	ret

000001e0 <get_switches>:
     1e0:	00a04863          	bgtz	a0,1f0 <get_switches+0x10>
     1e4:	040007b7          	lui	a5,0x4000
     1e8:	0107a503          	lw	a0,16(a5) # 4000010 <_stack_end+0x3ef6800>
     1ec:	00008067          	ret
     1f0:	04000737          	lui	a4,0x4000
     1f4:	01072683          	lw	a3,16(a4) # 4000010 <_stack_end+0x3ef6800>
     1f8:	00100793          	li	a5,1
     1fc:	00a79533          	sll	a0,a5,a0
     200:	fff50513          	addi	a0,a0,-1
     204:	00d57533          	and	a0,a0,a3
     208:	00008067          	ret

0000020c <get_btn>:
     20c:	040007b7          	lui	a5,0x4000
     210:	0d07c503          	lbu	a0,208(a5) # 40000d0 <_stack_end+0x3ef68c0>
     214:	00157513          	andi	a0,a0,1
     218:	00008067          	ret

0000021c <handle_interrupt>:
     21c:	040007b7          	lui	a5,0x4000
     220:	06400713          	li	a4,100
     224:	0007ae23          	sw	zero,28(a5) # 400001c <_stack_end+0x3ef680c>
     228:	000077b7          	lui	a5,0x7
     22c:	53078793          	addi	a5,a5,1328 # 7530 <__global_pointer+0x2f28>
     230:	00000013          	nop
     234:	fff78793          	addi	a5,a5,-1
     238:	fe079ce3          	bnez	a5,230 <handle_interrupt+0x14>
     23c:	fff70713          	addi	a4,a4,-1
     240:	fe0714e3          	bnez	a4,228 <handle_interrupt+0xc>
     244:	000046b7          	lui	a3,0x4
     248:	e086a783          	lw	a5,-504(a3) # 3e08 <coffee>
     24c:	08078863          	beqz	a5,2dc <handle_interrupt+0xc0>
     250:	fff78793          	addi	a5,a5,-1
     254:	e0f6a423          	sw	a5,-504(a3)
     258:	00a00713          	li	a4,10
     25c:	000047b7          	lui	a5,0x4
     260:	e0e7a623          	sw	a4,-500(a5) # 3e0c <c_energy>
     264:	fff00613          	li	a2,-1
     268:	04000737          	lui	a4,0x4000
     26c:	00c70023          	sb	a2,0(a4) # 4000000 <_stack_end+0x3ef67f0>
     270:	040007b7          	lui	a5,0x4000
     274:	04c78823          	sb	a2,80(a5) # 4000050 <_stack_end+0x3ef6840>
     278:	06c70023          	sb	a2,96(a4)
     27c:	06c70823          	sb	a2,112(a4)
     280:	08c70023          	sb	a2,128(a4)
     284:	08c70823          	sb	a2,144(a4)
     288:	0ac70023          	sb	a2,160(a4)
     28c:	e086a603          	lw	a2,-504(a3)
     290:	05078793          	addi	a5,a5,80
     294:	04060463          	beqz	a2,2dc <handle_interrupt+0xc0>
     298:	00100713          	li	a4,1
     29c:	04e60263          	beq	a2,a4,2e0 <handle_interrupt+0xc4>
     2a0:	ff000713          	li	a4,-16
     2a4:	00e78023          	sb	a4,0(a5)
     2a8:	e086a603          	lw	a2,-504(a3)
     2ac:	00200713          	li	a4,2
     2b0:	02c75263          	bge	a4,a2,2d4 <handle_interrupt+0xb8>
     2b4:	00300713          	li	a4,3
     2b8:	ff600513          	li	a0,-10
     2bc:	00a78823          	sb	a0,16(a5)
     2c0:	e086a583          	lw	a1,-504(a3)
     2c4:	00070613          	mv	a2,a4
     2c8:	01078793          	addi	a5,a5,16
     2cc:	00170713          	addi	a4,a4,1
     2d0:	feb646e3          	blt	a2,a1,2bc <handle_interrupt+0xa0>
     2d4:	fc600713          	li	a4,-58
     2d8:	00e78823          	sb	a4,16(a5)
     2dc:	00008067          	ret
     2e0:	fc000713          	li	a4,-64
     2e4:	00e78023          	sb	a4,0(a5)
     2e8:	00008067          	ret

000002ec <clear_screen>:
     2ec:	00004537          	lui	a0,0x4
     2f0:	e1050513          	addi	a0,a0,-496 # 3e10 <c_energy+0x4>
     2f4:	7790206f          	j	326c <print>

000002f8 <clear_row>:
     2f8:	00004537          	lui	a0,0x4
     2fc:	e1850513          	addi	a0,a0,-488 # 3e18 <c_energy+0xc>
     300:	76d0206f          	j	326c <print>

00000304 <error_message>:
     304:	00004537          	lui	a0,0x4
     308:	ff010113          	addi	sp,sp,-16
     30c:	e2450513          	addi	a0,a0,-476 # 3e24 <c_energy+0x18>
     310:	00112623          	sw	ra,12(sp)
     314:	759020ef          	jal	326c <print>
     318:	06400713          	li	a4,100
     31c:	000077b7          	lui	a5,0x7
     320:	53078793          	addi	a5,a5,1328 # 7530 <__global_pointer+0x2f28>
     324:	00000013          	nop
     328:	fff78793          	addi	a5,a5,-1
     32c:	fe079ce3          	bnez	a5,324 <error_message+0x20>
     330:	fff70713          	addi	a4,a4,-1
     334:	fe0714e3          	bnez	a4,31c <error_message+0x18>
     338:	00c12083          	lw	ra,12(sp)
     33c:	00004537          	lui	a0,0x4
     340:	e1850513          	addi	a0,a0,-488 # 3e18 <c_energy+0xc>
     344:	01010113          	addi	sp,sp,16
     348:	7250206f          	j	326c <print>

0000034c <set_leds>:
     34c:	0ff57513          	zext.b	a0,a0
     350:	040007b7          	lui	a5,0x4000
     354:	00a78023          	sb	a0,0(a5) # 4000000 <_stack_end+0x3ef67f0>
     358:	00008067          	ret

0000035c <pretty_print>:
     35c:	fd010113          	addi	sp,sp,-48
     360:	02112623          	sw	ra,44(sp)
     364:	02812423          	sw	s0,40(sp)
     368:	02912223          	sw	s1,36(sp)
     36c:	00054403          	lbu	s0,0(a0)
     370:	06040c63          	beqz	s0,3e8 <pretty_print+0x8c>
     374:	03212023          	sw	s2,32(sp)
     378:	42003937          	lui	s2,0x42003
     37c:	01312e23          	sw	s3,28(sp)
     380:	00150493          	addi	s1,a0,1
     384:	01e00993          	li	s3,30
     388:	80190913          	addi	s2,s2,-2047 # 42002801 <_stack_end+0x41ef8ff1>
     38c:	00c10513          	addi	a0,sp,12
     390:	00810623          	sb	s0,12(sp)
     394:	000106a3          	sb	zero,13(sp)
     398:	6d5020ef          	jal	326c <print>
     39c:	fdf40793          	addi	a5,s0,-33
     3a0:	0ff7f793          	zext.b	a5,a5
     3a4:	04f9ec63          	bltu	s3,a5,3fc <pretty_print+0xa0>
     3a8:	00f957b3          	srl	a5,s2,a5
     3ac:	0017f793          	andi	a5,a5,1
     3b0:	07800713          	li	a4,120
     3b4:	04078463          	beqz	a5,3fc <pretty_print+0xa0>
     3b8:	000077b7          	lui	a5,0x7
     3bc:	53078793          	addi	a5,a5,1328 # 7530 <__global_pointer+0x2f28>
     3c0:	00000013          	nop
     3c4:	fff78793          	addi	a5,a5,-1
     3c8:	fe079ce3          	bnez	a5,3c0 <pretty_print+0x64>
     3cc:	fff70713          	addi	a4,a4,-1
     3d0:	fe0714e3          	bnez	a4,3b8 <pretty_print+0x5c>
     3d4:	0004c403          	lbu	s0,0(s1)
     3d8:	00148493          	addi	s1,s1,1
     3dc:	fa0418e3          	bnez	s0,38c <pretty_print+0x30>
     3e0:	02012903          	lw	s2,32(sp)
     3e4:	01c12983          	lw	s3,28(sp)
     3e8:	02c12083          	lw	ra,44(sp)
     3ec:	02812403          	lw	s0,40(sp)
     3f0:	02412483          	lw	s1,36(sp)
     3f4:	03010113          	addi	sp,sp,48
     3f8:	00008067          	ret
     3fc:	01400713          	li	a4,20
     400:	000077b7          	lui	a5,0x7
     404:	53078793          	addi	a5,a5,1328 # 7530 <__global_pointer+0x2f28>
     408:	00000013          	nop
     40c:	fff78793          	addi	a5,a5,-1
     410:	fe079ce3          	bnez	a5,408 <pretty_print+0xac>
     414:	fff70713          	addi	a4,a4,-1
     418:	fe0714e3          	bnez	a4,400 <pretty_print+0xa4>
     41c:	0004c403          	lbu	s0,0(s1)
     420:	00148493          	addi	s1,s1,1
     424:	f60414e3          	bnez	s0,38c <pretty_print+0x30>
     428:	fb9ff06f          	j	3e0 <pretty_print+0x84>

0000042c <delay>:
     42c:	00050693          	mv	a3,a0
     430:	02050263          	beqz	a0,454 <delay+0x28>
     434:	00000713          	li	a4,0
     438:	000077b7          	lui	a5,0x7
     43c:	53078793          	addi	a5,a5,1328 # 7530 <__global_pointer+0x2f28>
     440:	00000013          	nop
     444:	fff78793          	addi	a5,a5,-1
     448:	fe079ce3          	bnez	a5,440 <delay+0x14>
     44c:	00170713          	addi	a4,a4,1
     450:	fed714e3          	bne	a4,a3,438 <delay+0xc>
     454:	00008067          	ret

00000458 <print_status>:
     458:	ff010113          	addi	sp,sp,-16
     45c:	00812423          	sw	s0,8(sp)
     460:	00050413          	mv	s0,a0
     464:	00004537          	lui	a0,0x4
     468:	e6050513          	addi	a0,a0,-416 # 3e60 <c_energy+0x54>
     46c:	00112623          	sw	ra,12(sp)
     470:	00912223          	sw	s1,4(sp)
     474:	5f9020ef          	jal	326c <print>
     478:	00042503          	lw	a0,0(s0)
     47c:	000047b7          	lui	a5,0x4
     480:	e7c78793          	addi	a5,a5,-388 # 3e7c <c_energy+0x70>
     484:	00a78533          	add	a0,a5,a0
     488:	000044b7          	lui	s1,0x4
     48c:	5e1020ef          	jal	326c <print>
     490:	e8848513          	addi	a0,s1,-376 # 3e88 <c_energy+0x7c>
     494:	5d9020ef          	jal	326c <print>
     498:	00442503          	lw	a0,4(s0)
     49c:	000047b7          	lui	a5,0x4
     4a0:	e8c78793          	addi	a5,a5,-372 # 3e8c <c_energy+0x80>
     4a4:	00a78533          	add	a0,a5,a0
     4a8:	5c5020ef          	jal	326c <print>
     4ac:	e8848513          	addi	a0,s1,-376
     4b0:	5bd020ef          	jal	326c <print>
     4b4:	00842503          	lw	a0,8(s0)
     4b8:	000047b7          	lui	a5,0x4
     4bc:	e9478793          	addi	a5,a5,-364 # 3e94 <c_energy+0x88>
     4c0:	00a78533          	add	a0,a5,a0
     4c4:	5a9020ef          	jal	326c <print>
     4c8:	e8848513          	addi	a0,s1,-376
     4cc:	5a1020ef          	jal	326c <print>
     4d0:	00c42503          	lw	a0,12(s0)
     4d4:	000047b7          	lui	a5,0x4
     4d8:	ea078793          	addi	a5,a5,-352 # 3ea0 <c_energy+0x94>
     4dc:	00a78533          	add	a0,a5,a0
     4e0:	58d020ef          	jal	326c <print>
     4e4:	e8848513          	addi	a0,s1,-376
     4e8:	585020ef          	jal	326c <print>
     4ec:	00004537          	lui	a0,0x4
     4f0:	ea850513          	addi	a0,a0,-344 # 3ea8 <c_energy+0x9c>
     4f4:	579020ef          	jal	326c <print>
     4f8:	01042783          	lw	a5,16(s0)
     4fc:	08079263          	bnez	a5,580 <print_status+0x128>
     500:	01442783          	lw	a5,20(s0)
     504:	06079663          	bnez	a5,570 <print_status+0x118>
     508:	01c42783          	lw	a5,28(s0)
     50c:	04079a63          	bnez	a5,560 <print_status+0x108>
     510:	02042783          	lw	a5,32(s0)
     514:	02079e63          	bnez	a5,550 <print_status+0xf8>
     518:	01042783          	lw	a5,16(s0)
     51c:	00079e63          	bnez	a5,538 <print_status+0xe0>
     520:	01442783          	lw	a5,20(s0)
     524:	00079a63          	bnez	a5,538 <print_status+0xe0>
     528:	01c42783          	lw	a5,28(s0)
     52c:	00079663          	bnez	a5,538 <print_status+0xe0>
     530:	02042783          	lw	a5,32(s0)
     534:	04078e63          	beqz	a5,590 <print_status+0x138>
     538:	00812403          	lw	s0,8(sp)
     53c:	00c12083          	lw	ra,12(sp)
     540:	e8848513          	addi	a0,s1,-376
     544:	00412483          	lw	s1,4(sp)
     548:	01010113          	addi	sp,sp,16
     54c:	5210206f          	j	326c <print>
     550:	00004537          	lui	a0,0x4
     554:	eec50513          	addi	a0,a0,-276 # 3eec <c_energy+0xe0>
     558:	515020ef          	jal	326c <print>
     55c:	fbdff06f          	j	518 <print_status+0xc0>
     560:	00004537          	lui	a0,0x4
     564:	ed450513          	addi	a0,a0,-300 # 3ed4 <c_energy+0xc8>
     568:	505020ef          	jal	326c <print>
     56c:	fa5ff06f          	j	510 <print_status+0xb8>
     570:	00004537          	lui	a0,0x4
     574:	ec450513          	addi	a0,a0,-316 # 3ec4 <c_energy+0xb8>
     578:	4f5020ef          	jal	326c <print>
     57c:	f8dff06f          	j	508 <print_status+0xb0>
     580:	00004537          	lui	a0,0x4
     584:	eb450513          	addi	a0,a0,-332 # 3eb4 <c_energy+0xa8>
     588:	4e5020ef          	jal	326c <print>
     58c:	f75ff06f          	j	500 <print_status+0xa8>
     590:	00004537          	lui	a0,0x4
     594:	f0050513          	addi	a0,a0,-256 # 3f00 <c_energy+0xf4>
     598:	4d5020ef          	jal	326c <print>
     59c:	f9dff06f          	j	538 <print_status+0xe0>

000005a0 <timer_init>:
     5a0:	ffffc6b7          	lui	a3,0xffffc
     5a4:	040007b7          	lui	a5,0x4000
     5a8:	6bf68693          	addi	a3,a3,1727 # ffffc6bf <_stack_end+0xffef2eaf>
     5ac:	02d79423          	sh	a3,40(a5) # 4000028 <_stack_end+0x3ef6818>
     5b0:	04000737          	lui	a4,0x4000
     5b4:	02d00693          	li	a3,45
     5b8:	02d71623          	sh	a3,44(a4) # 400002c <_stack_end+0x3ef681c>
     5bc:	040007b7          	lui	a5,0x4000
     5c0:	00600713          	li	a4,6
     5c4:	02e79223          	sh	a4,36(a5) # 4000024 <_stack_end+0x3ef6814>
     5c8:	00008067          	ret

000005cc <get_random_bit>:
     5cc:	040007b7          	lui	a5,0x4000
     5d0:	02079823          	sh	zero,48(a5) # 4000030 <_stack_end+0x3ef6820>
     5d4:	0307d503          	lhu	a0,48(a5)
     5d8:	00157513          	andi	a0,a0,1
     5dc:	00008067          	ret

000005e0 <close_display>:
     5e0:	fff00713          	li	a4,-1
     5e4:	040006b7          	lui	a3,0x4000
     5e8:	040007b7          	lui	a5,0x4000
     5ec:	04e68823          	sb	a4,80(a3) # 4000050 <_stack_end+0x3ef6840>
     5f0:	06e78023          	sb	a4,96(a5) # 4000060 <_stack_end+0x3ef6850>
     5f4:	06e78823          	sb	a4,112(a5)
     5f8:	08e78023          	sb	a4,128(a5)
     5fc:	08e78823          	sb	a4,144(a5)
     600:	0ae78023          	sb	a4,160(a5)
     604:	00008067          	ret

00000608 <draw_road>:
     608:	fb010113          	addi	sp,sp,-80
     60c:	03712623          	sw	s7,44(sp)
     610:	03812423          	sw	s8,40(sp)
     614:	00003bb7          	lui	s7,0x3
     618:	00050c13          	mv	s8,a0
     61c:	00004537          	lui	a0,0x4
     620:	04812423          	sw	s0,72(sp)
     624:	6d4b8b93          	addi	s7,s7,1748 # 36d4 <enemy_lanes>
     628:	e1050513          	addi	a0,a0,-496 # 3e10 <c_energy+0x4>
     62c:	013c0413          	addi	s0,s8,19
     630:	04912223          	sw	s1,68(sp)
     634:	05212023          	sw	s2,64(sp)
     638:	03312e23          	sw	s3,60(sp)
     63c:	03412c23          	sw	s4,56(sp)
     640:	03512a23          	sw	s5,52(sp)
     644:	03612823          	sw	s6,48(sp)
     648:	03912223          	sw	s9,36(sp)
     64c:	03a12023          	sw	s10,32(sp)
     650:	01b12e23          	sw	s11,28(sp)
     654:	04112623          	sw	ra,76(sp)
     658:	00058d93          	mv	s11,a1
     65c:	00060d13          	mv	s10,a2
     660:	008b8433          	add	s0,s7,s0
     664:	409020ef          	jal	326c <print>
     668:	018b8b33          	add	s6,s7,s8
     66c:	00011623          	sh	zero,12(sp)
     670:	000049b7          	lui	s3,0x4
     674:	00004937          	lui	s2,0x4
     678:	00004ab7          	lui	s5,0x4
     67c:	00004a37          	lui	s4,0x4
     680:	03000493          	li	s1,48
     684:	02000c93          	li	s9,32
     688:	0280006f          	j	6b0 <draw_road+0xa8>
     68c:	00044783          	lbu	a5,0(s0)
     690:	00f10623          	sb	a5,12(sp)
     694:	3d9020ef          	jal	326c <print>
     698:	f14a8513          	addi	a0,s5,-236 # 3f14 <c_energy+0x108>
     69c:	3d1020ef          	jal	326c <print>
     6a0:	e88a0513          	addi	a0,s4,-376 # 3e88 <c_energy+0x7c>
     6a4:	fff40413          	addi	s0,s0,-1
     6a8:	3c5020ef          	jal	326c <print>
     6ac:	07640463          	beq	s0,s6,714 <draw_road+0x10c>
     6b0:	f0c98513          	addi	a0,s3,-244 # 3f0c <c_energy+0x100>
     6b4:	3b9020ef          	jal	326c <print>
     6b8:	00044783          	lbu	a5,0(s0)
     6bc:	00c10513          	addi	a0,sp,12
     6c0:	00979463          	bne	a5,s1,6c8 <draw_road+0xc0>
     6c4:	02000793          	li	a5,32
     6c8:	00f10623          	sb	a5,12(sp)
     6cc:	3a1020ef          	jal	326c <print>
     6d0:	f1090513          	addi	a0,s2,-240 # 3f10 <c_energy+0x104>
     6d4:	399020ef          	jal	326c <print>
     6d8:	00144703          	lbu	a4,1(s0)
     6dc:	00c10513          	addi	a0,sp,12
     6e0:	02000793          	li	a5,32
     6e4:	00970463          	beq	a4,s1,6ec <draw_road+0xe4>
     6e8:	00044783          	lbu	a5,0(s0)
     6ec:	00f10623          	sb	a5,12(sp)
     6f0:	37d020ef          	jal	326c <print>
     6f4:	f1090513          	addi	a0,s2,-240
     6f8:	375020ef          	jal	326c <print>
     6fc:	00244783          	lbu	a5,2(s0)
     700:	00c10513          	addi	a0,sp,12
     704:	f89794e3          	bne	a5,s1,68c <draw_road+0x84>
     708:	00c10513          	addi	a0,sp,12
     70c:	01910623          	sb	s9,12(sp)
     710:	f85ff06f          	j	694 <draw_road+0x8c>
     714:	001c1413          	slli	s0,s8,0x1
     718:	f0c98513          	addi	a0,s3,-244
     71c:	01840433          	add	s0,s0,s8
     720:	34d020ef          	jal	326c <print>
     724:	008b8bb3          	add	s7,s7,s0
     728:	00340493          	addi	s1,s0,3
     72c:	03000993          	li	s3,48
     730:	038467b3          	rem	a5,s0,s8
     734:	00c10513          	addi	a0,sp,12
     738:	07a78463          	beq	a5,s10,7a0 <draw_road+0x198>
     73c:	000bc783          	lbu	a5,0(s7)
     740:	01379463          	bne	a5,s3,748 <draw_road+0x140>
     744:	02000793          	li	a5,32
     748:	00f10623          	sb	a5,12(sp)
     74c:	321020ef          	jal	326c <print>
     750:	f1090513          	addi	a0,s2,-240
     754:	00140413          	addi	s0,s0,1
     758:	315020ef          	jal	326c <print>
     75c:	001b8b93          	addi	s7,s7,1
     760:	fc9418e3          	bne	s0,s1,730 <draw_road+0x128>
     764:	04c12083          	lw	ra,76(sp)
     768:	04812403          	lw	s0,72(sp)
     76c:	04412483          	lw	s1,68(sp)
     770:	04012903          	lw	s2,64(sp)
     774:	03c12983          	lw	s3,60(sp)
     778:	03812a03          	lw	s4,56(sp)
     77c:	03412a83          	lw	s5,52(sp)
     780:	03012b03          	lw	s6,48(sp)
     784:	02c12b83          	lw	s7,44(sp)
     788:	02812c03          	lw	s8,40(sp)
     78c:	02412c83          	lw	s9,36(sp)
     790:	02012d03          	lw	s10,32(sp)
     794:	01c12d83          	lw	s11,28(sp)
     798:	05010113          	addi	sp,sp,80
     79c:	00008067          	ret
     7a0:	00004537          	lui	a0,0x4
     7a4:	f1850513          	addi	a0,a0,-232 # 3f18 <c_energy+0x10c>
     7a8:	2c5020ef          	jal	326c <print>
     7ac:	000bc703          	lbu	a4,0(s7)
     7b0:	03000793          	li	a5,48
     7b4:	f8f70ee3          	beq	a4,a5,750 <draw_road+0x148>
     7b8:	000da783          	lw	a5,0(s11)
     7bc:	00178793          	addi	a5,a5,1
     7c0:	00fda023          	sw	a5,0(s11)
     7c4:	f8dff06f          	j	750 <draw_road+0x148>

000007c8 <get_switches_event>:
     7c8:	040007b7          	lui	a5,0x4000
     7cc:	01c7a703          	lw	a4,28(a5) # 400001c <_stack_end+0x3ef680c>
     7d0:	0007ae23          	sw	zero,28(a5)
     7d4:	00200513          	li	a0,2
     7d8:	00177793          	andi	a5,a4,1
     7dc:	00079663          	bnez	a5,7e8 <get_switches_event+0x20>
     7e0:	00975713          	srli	a4,a4,0x9
     7e4:	00177513          	andi	a0,a4,1
     7e8:	00008067          	ret

000007ec <display_krockar>:
     7ec:	00900713          	li	a4,9
     7f0:	0ff00793          	li	a5,255
     7f4:	04a74863          	blt	a4,a0,844 <__heap_size+0x44>
     7f8:	04a05c63          	blez	a0,850 <__heap_size+0x50>
     7fc:	00100793          	li	a5,1
     800:	06f50063          	beq	a0,a5,860 <__heap_size+0x60>
     804:	00200793          	li	a5,2
     808:	06f50063          	beq	a0,a5,868 <__heap_size+0x68>
     80c:	00300793          	li	a5,3
     810:	06f50063          	beq	a0,a5,870 <__heap_size+0x70>
     814:	00400793          	li	a5,4
     818:	06f50063          	beq	a0,a5,878 <__heap_size+0x78>
     81c:	00500793          	li	a5,5
     820:	06f50063          	beq	a0,a5,880 <__heap_size+0x80>
     824:	00600793          	li	a5,6
     828:	06f50063          	beq	a0,a5,888 <__heap_size+0x88>
     82c:	00700793          	li	a5,7
     830:	02f50463          	beq	a0,a5,858 <__heap_size+0x58>
     834:	04e51e63          	bne	a0,a4,890 <__heap_size+0x90>
     838:	20000793          	li	a5,512
     83c:	fff78793          	addi	a5,a5,-1
     840:	0ff7f793          	zext.b	a5,a5
     844:	04000737          	lui	a4,0x4000
     848:	00f70023          	sb	a5,0(a4) # 4000000 <_stack_end+0x3ef67f0>
     84c:	00008067          	ret
     850:	00000793          	li	a5,0
     854:	ff1ff06f          	j	844 <__heap_size+0x44>
     858:	08000793          	li	a5,128
     85c:	fe1ff06f          	j	83c <__heap_size+0x3c>
     860:	00200793          	li	a5,2
     864:	fd9ff06f          	j	83c <__heap_size+0x3c>
     868:	00400793          	li	a5,4
     86c:	fd1ff06f          	j	83c <__heap_size+0x3c>
     870:	00800793          	li	a5,8
     874:	fc9ff06f          	j	83c <__heap_size+0x3c>
     878:	01000793          	li	a5,16
     87c:	fc1ff06f          	j	83c <__heap_size+0x3c>
     880:	02000793          	li	a5,32
     884:	fb9ff06f          	j	83c <__heap_size+0x3c>
     888:	04000793          	li	a5,64
     88c:	fb1ff06f          	j	83c <__heap_size+0x3c>
     890:	10000793          	li	a5,256
     894:	fa9ff06f          	j	83c <__heap_size+0x3c>

00000898 <parkinglot>:
     898:	fe010113          	addi	sp,sp,-32
     89c:	01312623          	sw	s3,12(sp)
     8a0:	00050993          	mv	s3,a0
     8a4:	00004537          	lui	a0,0x4
     8a8:	e1050513          	addi	a0,a0,-496 # 3e10 <c_energy+0x4>
     8ac:	00112e23          	sw	ra,28(sp)
     8b0:	00812c23          	sw	s0,24(sp)
     8b4:	00912a23          	sw	s1,20(sp)
     8b8:	01212823          	sw	s2,16(sp)
     8bc:	01412423          	sw	s4,8(sp)
     8c0:	1ad020ef          	jal	326c <print>
     8c4:	00098513          	mv	a0,s3
     8c8:	00005437          	lui	s0,0x5
     8cc:	b8dff0ef          	jal	458 <print_status>
     8d0:	47040513          	addi	a0,s0,1136 # 5470 <__global_pointer+0xe68>
     8d4:	199020ef          	jal	326c <print>
     8d8:	47040513          	addi	a0,s0,1136
     8dc:	191020ef          	jal	326c <print>
     8e0:	00004537          	lui	a0,0x4
     8e4:	f1c50513          	addi	a0,a0,-228 # 3f1c <c_energy+0x110>
     8e8:	a75ff0ef          	jal	35c <pretty_print>
     8ec:	47040513          	addi	a0,s0,1136
     8f0:	17d020ef          	jal	326c <print>
     8f4:	47040513          	addi	a0,s0,1136
     8f8:	175020ef          	jal	326c <print>
     8fc:	00004537          	lui	a0,0x4
     900:	f6450513          	addi	a0,a0,-156 # 3f64 <c_energy+0x158>
     904:	169020ef          	jal	326c <print>
     908:	00004537          	lui	a0,0x4
     90c:	f8450513          	addi	a0,a0,-124 # 3f84 <c_energy+0x178>
     910:	15d020ef          	jal	326c <print>
     914:	00004537          	lui	a0,0x4
     918:	fa050513          	addi	a0,a0,-96 # 3fa0 <c_energy+0x194>
     91c:	000044b7          	lui	s1,0x4
     920:	14d020ef          	jal	326c <print>
     924:	fc448513          	addi	a0,s1,-60 # 3fc4 <c_energy+0x1b8>
     928:	145020ef          	jal	326c <print>
     92c:	00004537          	lui	a0,0x4
     930:	fe850513          	addi	a0,a0,-24 # 3fe8 <c_energy+0x1dc>
     934:	139020ef          	jal	326c <print>
     938:	fc448513          	addi	a0,s1,-60
     93c:	131020ef          	jal	326c <print>
     940:	00004537          	lui	a0,0x4
     944:	00c50513          	addi	a0,a0,12 # 400c <c_energy+0x200>
     948:	125020ef          	jal	326c <print>
     94c:	00004537          	lui	a0,0x4
     950:	03050513          	addi	a0,a0,48 # 4030 <c_energy+0x224>
     954:	119020ef          	jal	326c <print>
     958:	00004537          	lui	a0,0x4
     95c:	05450513          	addi	a0,a0,84 # 4054 <c_energy+0x248>
     960:	10d020ef          	jal	326c <print>
     964:	00004537          	lui	a0,0x4
     968:	07c50513          	addi	a0,a0,124 # 407c <c_energy+0x270>
     96c:	101020ef          	jal	326c <print>
     970:	00004537          	lui	a0,0x4
     974:	0a050513          	addi	a0,a0,160 # 40a0 <c_energy+0x294>
     978:	0f5020ef          	jal	326c <print>
     97c:	00004537          	lui	a0,0x4
     980:	0c450513          	addi	a0,a0,196 # 40c4 <c_energy+0x2b8>
     984:	0e9020ef          	jal	326c <print>
     988:	47040513          	addi	a0,s0,1136
     98c:	0e1020ef          	jal	326c <print>
     990:	00004537          	lui	a0,0x4
     994:	0ec50513          	addi	a0,a0,236 # 40ec <c_energy+0x2e0>
     998:	9c5ff0ef          	jal	35c <pretty_print>
     99c:	00004537          	lui	a0,0x4
     9a0:	12450513          	addi	a0,a0,292 # 4124 <c_energy+0x318>
     9a4:	040004b7          	lui	s1,0x4000
     9a8:	04000437          	lui	s0,0x4000
     9ac:	9b1ff0ef          	jal	35c <pretty_print>
     9b0:	04000937          	lui	s2,0x4000
     9b4:	01048493          	addi	s1,s1,16 # 4000010 <_stack_end+0x3ef6800>
     9b8:	0d040413          	addi	s0,s0,208 # 40000d0 <_stack_end+0x3ef68c0>
     9bc:	00100a13          	li	s4,1
     9c0:	0004a783          	lw	a5,0(s1)
     9c4:	0037f713          	andi	a4,a5,3
     9c8:	00e90023          	sb	a4,0(s2) # 4000000 <_stack_end+0x3ef67f0>
     9cc:	00044703          	lbu	a4,0(s0)
     9d0:	0037f793          	andi	a5,a5,3
     9d4:	00177713          	andi	a4,a4,1
     9d8:	fe0704e3          	beqz	a4,9c0 <parkinglot+0x128>
     9dc:	0b478e63          	beq	a5,s4,a98 <parkinglot+0x200>
     9e0:	00200713          	li	a4,2
     9e4:	06e79c63          	bne	a5,a4,a5c <parkinglot+0x1c4>
     9e8:	040007b7          	lui	a5,0x4000
     9ec:	02079823          	sh	zero,48(a5) # 4000030 <_stack_end+0x3ef6820>
     9f0:	0307d703          	lhu	a4,48(a5)
     9f4:	00177793          	andi	a5,a4,1
     9f8:	0c078663          	beqz	a5,ac4 <parkinglot+0x22c>
     9fc:	00004537          	lui	a0,0x4
     a00:	1c050513          	addi	a0,a0,448 # 41c0 <c_energy+0x3b4>
     a04:	959ff0ef          	jal	35c <pretty_print>
     a08:	0089a783          	lw	a5,8(s3)
     a0c:	00578793          	addi	a5,a5,5
     a10:	00004537          	lui	a0,0x4
     a14:	00f9a423          	sw	a5,8(s3)
     a18:	26c50513          	addi	a0,a0,620 # 426c <c_energy+0x460>
     a1c:	941ff0ef          	jal	35c <pretty_print>
     a20:	00100793          	li	a5,1
     a24:	02f9a223          	sw	a5,36(s3)
     a28:	00c9a783          	lw	a5,12(s3)
     a2c:	01812403          	lw	s0,24(sp)
     a30:	01c12083          	lw	ra,28(sp)
     a34:	00178793          	addi	a5,a5,1
     a38:	01412483          	lw	s1,20(sp)
     a3c:	01012903          	lw	s2,16(sp)
     a40:	00812a03          	lw	s4,8(sp)
     a44:	00f9a623          	sw	a5,12(s3)
     a48:	00c12983          	lw	s3,12(sp)
     a4c:	00004537          	lui	a0,0x4
     a50:	2a450513          	addi	a0,a0,676 # 42a4 <c_energy+0x498>
     a54:	02010113          	addi	sp,sp,32
     a58:	905ff06f          	j	35c <pretty_print>
     a5c:	00004537          	lui	a0,0x4
     a60:	e2450513          	addi	a0,a0,-476 # 3e24 <c_energy+0x18>
     a64:	009020ef          	jal	326c <print>
     a68:	06400713          	li	a4,100
     a6c:	000077b7          	lui	a5,0x7
     a70:	53078793          	addi	a5,a5,1328 # 7530 <__global_pointer+0x2f28>
     a74:	00000013          	nop
     a78:	fff78793          	addi	a5,a5,-1
     a7c:	fe079ce3          	bnez	a5,a74 <parkinglot+0x1dc>
     a80:	fff70713          	addi	a4,a4,-1
     a84:	fe0714e3          	bnez	a4,a6c <parkinglot+0x1d4>
     a88:	00004537          	lui	a0,0x4
     a8c:	e1850513          	addi	a0,a0,-488 # 3e18 <c_energy+0xc>
     a90:	7dc020ef          	jal	326c <print>
     a94:	f2dff06f          	j	9c0 <parkinglot+0x128>
     a98:	00004537          	lui	a0,0x4
     a9c:	15050513          	addi	a0,a0,336 # 4150 <c_energy+0x344>
     aa0:	8bdff0ef          	jal	35c <pretty_print>
     aa4:	00004537          	lui	a0,0x4
     aa8:	19c50513          	addi	a0,a0,412 # 419c <c_energy+0x390>
     aac:	8b1ff0ef          	jal	35c <pretty_print>
     ab0:	0089a783          	lw	a5,8(s3)
     ab4:	0349a423          	sw	s4,40(s3)
     ab8:	00578793          	addi	a5,a5,5
     abc:	00f9a423          	sw	a5,8(s3)
     ac0:	f69ff06f          	j	a28 <parkinglot+0x190>
     ac4:	00004537          	lui	a0,0x4
     ac8:	21050513          	addi	a0,a0,528 # 4210 <c_energy+0x404>
     acc:	891ff0ef          	jal	35c <pretty_print>
     ad0:	0089a783          	lw	a5,8(s3)
     ad4:	ffb78793          	addi	a5,a5,-5
     ad8:	f39ff06f          	j	a10 <parkinglot+0x178>

00000adc <display_energy>:
     adc:	000047b7          	lui	a5,0x4
     ae0:	e0c7a783          	lw	a5,-500(a5) # 3e0c <c_energy>
     ae4:	00a00693          	li	a3,10
     ae8:	0ff00713          	li	a4,255
     aec:	04f6ce63          	blt	a3,a5,b48 <display_energy+0x6c>
     af0:	06f05263          	blez	a5,b54 <display_energy+0x78>
     af4:	00100713          	li	a4,1
     af8:	06e78663          	beq	a5,a4,b64 <display_energy+0x88>
     afc:	00200713          	li	a4,2
     b00:	06e78663          	beq	a5,a4,b6c <display_energy+0x90>
     b04:	00300713          	li	a4,3
     b08:	06e78663          	beq	a5,a4,b74 <display_energy+0x98>
     b0c:	00400713          	li	a4,4
     b10:	06e78663          	beq	a5,a4,b7c <display_energy+0xa0>
     b14:	00500713          	li	a4,5
     b18:	06e78663          	beq	a5,a4,b84 <display_energy+0xa8>
     b1c:	00600713          	li	a4,6
     b20:	06e78663          	beq	a5,a4,b8c <display_energy+0xb0>
     b24:	00700713          	li	a4,7
     b28:	02e78a63          	beq	a5,a4,b5c <display_energy+0x80>
     b2c:	00800713          	li	a4,8
     b30:	06e78263          	beq	a5,a4,b94 <display_energy+0xb8>
     b34:	00a00713          	li	a4,10
     b38:	06e79263          	bne	a5,a4,b9c <display_energy+0xc0>
     b3c:	40000713          	li	a4,1024
     b40:	fff70713          	addi	a4,a4,-1
     b44:	0ff77713          	zext.b	a4,a4
     b48:	040007b7          	lui	a5,0x4000
     b4c:	00e78023          	sb	a4,0(a5) # 4000000 <_stack_end+0x3ef67f0>
     b50:	00008067          	ret
     b54:	00000713          	li	a4,0
     b58:	ff1ff06f          	j	b48 <display_energy+0x6c>
     b5c:	08000713          	li	a4,128
     b60:	fe1ff06f          	j	b40 <display_energy+0x64>
     b64:	00200713          	li	a4,2
     b68:	fd9ff06f          	j	b40 <display_energy+0x64>
     b6c:	00400713          	li	a4,4
     b70:	fd1ff06f          	j	b40 <display_energy+0x64>
     b74:	00800713          	li	a4,8
     b78:	fc9ff06f          	j	b40 <display_energy+0x64>
     b7c:	01000713          	li	a4,16
     b80:	fc1ff06f          	j	b40 <display_energy+0x64>
     b84:	02000713          	li	a4,32
     b88:	fb9ff06f          	j	b40 <display_energy+0x64>
     b8c:	04000713          	li	a4,64
     b90:	fb1ff06f          	j	b40 <display_energy+0x64>
     b94:	10000713          	li	a4,256
     b98:	fa9ff06f          	j	b40 <display_energy+0x64>
     b9c:	20000713          	li	a4,512
     ba0:	fa1ff06f          	j	b40 <display_energy+0x64>

00000ba4 <print_sak>:
     ba4:	ff010113          	addi	sp,sp,-16
     ba8:	00912223          	sw	s1,4(sp)
     bac:	00050493          	mv	s1,a0
     bb0:	00004537          	lui	a0,0x4
     bb4:	00812423          	sw	s0,8(sp)
     bb8:	e1050513          	addi	a0,a0,-496 # 3e10 <c_energy+0x4>
     bbc:	00003437          	lui	s0,0x3
     bc0:	00112623          	sw	ra,12(sp)
     bc4:	6d440413          	addi	s0,s0,1748 # 36d4 <enemy_lanes>
     bc8:	6a4020ef          	jal	326c <print>
     bcc:	16c42783          	lw	a5,364(s0)
     bd0:	02078063          	beqz	a5,bf0 <print_sak+0x4c>
     bd4:	17040413          	addi	s0,s0,368
     bd8:	0004a503          	lw	a0,0(s1)
     bdc:	00440413          	addi	s0,s0,4
     be0:	00448493          	addi	s1,s1,4
     be4:	688020ef          	jal	326c <print>
     be8:	ffc42783          	lw	a5,-4(s0)
     bec:	fe0796e3          	bnez	a5,bd8 <print_sak+0x34>
     bf0:	00c12083          	lw	ra,12(sp)
     bf4:	00812403          	lw	s0,8(sp)
     bf8:	00412483          	lw	s1,4(sp)
     bfc:	01010113          	addi	sp,sp,16
     c00:	00008067          	ret

00000c04 <set_coffee>:
     c04:	fff00693          	li	a3,-1
     c08:	040007b7          	lui	a5,0x4000
     c0c:	04d78823          	sb	a3,80(a5) # 4000050 <_stack_end+0x3ef6840>
     c10:	04000737          	lui	a4,0x4000
     c14:	06d70023          	sb	a3,96(a4) # 4000060 <_stack_end+0x3ef6850>
     c18:	06d70823          	sb	a3,112(a4)
     c1c:	08d70023          	sb	a3,128(a4)
     c20:	08d70823          	sb	a3,144(a4)
     c24:	000045b7          	lui	a1,0x4
     c28:	0ad70023          	sb	a3,160(a4)
     c2c:	e085a683          	lw	a3,-504(a1) # 3e08 <coffee>
     c30:	05078793          	addi	a5,a5,80
     c34:	04068463          	beqz	a3,c7c <set_coffee+0x78>
     c38:	00100713          	li	a4,1
     c3c:	04e68263          	beq	a3,a4,c80 <set_coffee+0x7c>
     c40:	ff000713          	li	a4,-16
     c44:	00e78023          	sb	a4,0(a5)
     c48:	e085a683          	lw	a3,-504(a1)
     c4c:	00200713          	li	a4,2
     c50:	02d75263          	bge	a4,a3,c74 <set_coffee+0x70>
     c54:	00300713          	li	a4,3
     c58:	ff600513          	li	a0,-10
     c5c:	00a78823          	sb	a0,16(a5)
     c60:	e085a603          	lw	a2,-504(a1)
     c64:	00070693          	mv	a3,a4
     c68:	01078793          	addi	a5,a5,16
     c6c:	00170713          	addi	a4,a4,1
     c70:	fec6c6e3          	blt	a3,a2,c5c <set_coffee+0x58>
     c74:	fc600713          	li	a4,-58
     c78:	00e78823          	sb	a4,16(a5)
     c7c:	00008067          	ret
     c80:	fc000713          	li	a4,-64
     c84:	00e78023          	sb	a4,0(a5)
     c88:	00008067          	ret

00000c8c <coffee_game>:
     c8c:	fc010113          	addi	sp,sp,-64
     c90:	03312623          	sw	s3,44(sp)
     c94:	00050993          	mv	s3,a0
     c98:	00004537          	lui	a0,0x4
     c9c:	2e450513          	addi	a0,a0,740 # 42e4 <c_energy+0x4d8>
     ca0:	02112e23          	sw	ra,60(sp)
     ca4:	02812c23          	sw	s0,56(sp)
     ca8:	02912a23          	sw	s1,52(sp)
     cac:	03212823          	sw	s2,48(sp)
     cb0:	03412423          	sw	s4,40(sp)
     cb4:	03512223          	sw	s5,36(sp)
     cb8:	03612023          	sw	s6,32(sp)
     cbc:	01712e23          	sw	s7,28(sp)
     cc0:	01812c23          	sw	s8,24(sp)
     cc4:	01912a23          	sw	s9,20(sp)
     cc8:	01a12823          	sw	s10,16(sp)
     ccc:	01b12623          	sw	s11,12(sp)
     cd0:	e8cff0ef          	jal	35c <pretty_print>
     cd4:	fff00693          	li	a3,-1
     cd8:	040007b7          	lui	a5,0x4000
     cdc:	04d78823          	sb	a3,80(a5) # 4000050 <_stack_end+0x3ef6840>
     ce0:	04000737          	lui	a4,0x4000
     ce4:	06d70023          	sb	a3,96(a4) # 4000060 <_stack_end+0x3ef6850>
     ce8:	06d70823          	sb	a3,112(a4)
     cec:	08d70023          	sb	a3,128(a4)
     cf0:	08d70823          	sb	a3,144(a4)
     cf4:	00004637          	lui	a2,0x4
     cf8:	0ad70023          	sb	a3,160(a4)
     cfc:	e0862683          	lw	a3,-504(a2) # 3e08 <coffee>
     d00:	04068663          	beqz	a3,d4c <coffee_game+0xc0>
     d04:	00100713          	li	a4,1
     d08:	05078793          	addi	a5,a5,80
     d0c:	4ce684e3          	beq	a3,a4,19d4 <coffee_game+0xd48>
     d10:	ff000713          	li	a4,-16
     d14:	00e78023          	sb	a4,0(a5)
     d18:	e0862683          	lw	a3,-504(a2)
     d1c:	00200713          	li	a4,2
     d20:	02d75263          	bge	a4,a3,d44 <coffee_game+0xb8>
     d24:	00300713          	li	a4,3
     d28:	ff600693          	li	a3,-10
     d2c:	00d78823          	sb	a3,16(a5)
     d30:	e0862503          	lw	a0,-504(a2)
     d34:	00070593          	mv	a1,a4
     d38:	01078793          	addi	a5,a5,16
     d3c:	00170713          	addi	a4,a4,1
     d40:	fea5c6e3          	blt	a1,a0,d2c <coffee_game+0xa0>
     d44:	fc600713          	li	a4,-58
     d48:	00e78823          	sb	a4,16(a5)
     d4c:	00004537          	lui	a0,0x4
     d50:	37450513          	addi	a0,a0,884 # 4374 <c_energy+0x568>
     d54:	e08ff0ef          	jal	35c <pretty_print>
     d58:	00004937          	lui	s2,0x4
     d5c:	e0c92703          	lw	a4,-500(s2) # 3e0c <c_energy>
     d60:	00a00693          	li	a3,10
     d64:	0ff00793          	li	a5,255
     d68:	04e6ce63          	blt	a3,a4,dc4 <coffee_game+0x138>
     d6c:	46e05ae3          	blez	a4,19e0 <coffee_game+0xd54>
     d70:	00100793          	li	a5,1
     d74:	50f70ee3          	beq	a4,a5,1a90 <coffee_game+0xe04>
     d78:	00200793          	li	a5,2
     d7c:	50f70ee3          	beq	a4,a5,1a98 <coffee_game+0xe0c>
     d80:	00300793          	li	a5,3
     d84:	50f70ee3          	beq	a4,a5,1aa0 <coffee_game+0xe14>
     d88:	00400793          	li	a5,4
     d8c:	50f70ee3          	beq	a4,a5,1aa8 <coffee_game+0xe1c>
     d90:	00500793          	li	a5,5
     d94:	50f70ee3          	beq	a4,a5,1ab0 <coffee_game+0xe24>
     d98:	00600793          	li	a5,6
     d9c:	50f70ee3          	beq	a4,a5,1ab8 <coffee_game+0xe2c>
     da0:	00700793          	li	a5,7
     da4:	44f70ae3          	beq	a4,a5,19f8 <coffee_game+0xd6c>
     da8:	00800793          	li	a5,8
     dac:	50f70ee3          	beq	a4,a5,1ac8 <coffee_game+0xe3c>
     db0:	00a00793          	li	a5,10
     db4:	50f716e3          	bne	a4,a5,1ac0 <coffee_game+0xe34>
     db8:	40000793          	li	a5,1024
     dbc:	fff78793          	addi	a5,a5,-1
     dc0:	0ff7f793          	zext.b	a5,a5
     dc4:	04000737          	lui	a4,0x4000
     dc8:	00004537          	lui	a0,0x4
     dcc:	00f70023          	sb	a5,0(a4) # 4000000 <_stack_end+0x3ef67f0>
     dd0:	3e850513          	addi	a0,a0,1000 # 43e8 <c_energy+0x5dc>
     dd4:	d88ff0ef          	jal	35c <pretty_print>
     dd8:	12c00713          	li	a4,300
     ddc:	000077b7          	lui	a5,0x7
     de0:	53078793          	addi	a5,a5,1328 # 7530 <__global_pointer+0x2f28>
     de4:	00000013          	nop
     de8:	fff78793          	addi	a5,a5,-1
     dec:	fe079ce3          	bnez	a5,de4 <coffee_game+0x158>
     df0:	fff70713          	addi	a4,a4,-1
     df4:	fe0714e3          	bnez	a4,ddc <coffee_game+0x150>
     df8:	000044b7          	lui	s1,0x4
     dfc:	e1048513          	addi	a0,s1,-496 # 3e10 <c_energy+0x4>
     e00:	00003437          	lui	s0,0x3
     e04:	468020ef          	jal	326c <print>
     e08:	6d440413          	addi	s0,s0,1748 # 36d4 <enemy_lanes>
     e0c:	16c42783          	lw	a5,364(s0)
     e10:	00078e63          	beqz	a5,e2c <coffee_game+0x1a0>
     e14:	16c40a13          	addi	s4,s0,364
     e18:	000a2503          	lw	a0,0(s4)
     e1c:	004a0a13          	addi	s4,s4,4
     e20:	44c020ef          	jal	326c <print>
     e24:	000a2783          	lw	a5,0(s4)
     e28:	fe0798e3          	bnez	a5,e18 <coffee_game+0x18c>
     e2c:	3e800713          	li	a4,1000
     e30:	000077b7          	lui	a5,0x7
     e34:	53078793          	addi	a5,a5,1328 # 7530 <__global_pointer+0x2f28>
     e38:	00000013          	nop
     e3c:	fff78793          	addi	a5,a5,-1
     e40:	fe079ce3          	bnez	a5,e38 <coffee_game+0x1ac>
     e44:	fff70713          	addi	a4,a4,-1
     e48:	fe0714e3          	bnez	a4,e30 <coffee_game+0x1a4>
     e4c:	040007b7          	lui	a5,0x4000
     e50:	04000737          	lui	a4,0x4000
     e54:	0007ae23          	sw	zero,28(a5) # 400001c <_stack_end+0x3ef680c>
     e58:	00100693          	li	a3,1
     e5c:	00d72c23          	sw	a3,24(a4) # 4000018 <_stack_end+0x3ef6808>
     e60:	b20ff0ef          	jal	180 <enable_interrupts>
     e64:	00f00a13          	li	s4,15
     e68:	00a00a93          	li	s5,10
     e6c:	00100d93          	li	s11,1
     e70:	00200d13          	li	s10,2
     e74:	00300c93          	li	s9,3
     e78:	00400c13          	li	s8,4
     e7c:	e1048513          	addi	a0,s1,-496
     e80:	3ec020ef          	jal	326c <print>
     e84:	16c42683          	lw	a3,364(s0)
     e88:	20040b93          	addi	s7,s0,512
     e8c:	17040b13          	addi	s6,s0,368
     e90:	00068e63          	beqz	a3,eac <coffee_game+0x220>
     e94:	000ba503          	lw	a0,0(s7)
     e98:	004b0b13          	addi	s6,s6,4
     e9c:	004b8b93          	addi	s7,s7,4
     ea0:	3cc020ef          	jal	326c <print>
     ea4:	ffcb2683          	lw	a3,-4(s6)
     ea8:	fe0696e3          	bnez	a3,e94 <coffee_game+0x208>
     eac:	06400713          	li	a4,100
     eb0:	000077b7          	lui	a5,0x7
     eb4:	53078793          	addi	a5,a5,1328 # 7530 <__global_pointer+0x2f28>
     eb8:	00000013          	nop
     ebc:	fff78793          	addi	a5,a5,-1
     ec0:	fe079ce3          	bnez	a5,eb8 <coffee_game+0x22c>
     ec4:	fff70713          	addi	a4,a4,-1
     ec8:	fe0714e3          	bnez	a4,eb0 <coffee_game+0x224>
     ecc:	e1048513          	addi	a0,s1,-496
     ed0:	39c020ef          	jal	326c <print>
     ed4:	16c42683          	lw	a3,364(s0)
     ed8:	29440b93          	addi	s7,s0,660
     edc:	17040b13          	addi	s6,s0,368
     ee0:	00068e63          	beqz	a3,efc <coffee_game+0x270>
     ee4:	000ba503          	lw	a0,0(s7)
     ee8:	004b0b13          	addi	s6,s6,4
     eec:	004b8b93          	addi	s7,s7,4
     ef0:	37c020ef          	jal	326c <print>
     ef4:	ffcb2683          	lw	a3,-4(s6)
     ef8:	fe0696e3          	bnez	a3,ee4 <coffee_game+0x258>
     efc:	06400713          	li	a4,100
     f00:	000077b7          	lui	a5,0x7
     f04:	53078793          	addi	a5,a5,1328 # 7530 <__global_pointer+0x2f28>
     f08:	00000013          	nop
     f0c:	fff78793          	addi	a5,a5,-1
     f10:	fe079ce3          	bnez	a5,f08 <coffee_game+0x27c>
     f14:	fff70713          	addi	a4,a4,-1
     f18:	fe0714e3          	bnez	a4,f00 <coffee_game+0x274>
     f1c:	e1048513          	addi	a0,s1,-496
     f20:	34c020ef          	jal	326c <print>
     f24:	16c42683          	lw	a3,364(s0)
     f28:	32840b93          	addi	s7,s0,808
     f2c:	17040b13          	addi	s6,s0,368
     f30:	00068e63          	beqz	a3,f4c <coffee_game+0x2c0>
     f34:	000ba503          	lw	a0,0(s7)
     f38:	004b0b13          	addi	s6,s6,4
     f3c:	004b8b93          	addi	s7,s7,4
     f40:	32c020ef          	jal	326c <print>
     f44:	ffcb2683          	lw	a3,-4(s6)
     f48:	fe0696e3          	bnez	a3,f34 <coffee_game+0x2a8>
     f4c:	06400713          	li	a4,100
     f50:	000077b7          	lui	a5,0x7
     f54:	53078793          	addi	a5,a5,1328 # 7530 <__global_pointer+0x2f28>
     f58:	00000013          	nop
     f5c:	fff78793          	addi	a5,a5,-1
     f60:	fe079ce3          	bnez	a5,f58 <coffee_game+0x2cc>
     f64:	fff70713          	addi	a4,a4,-1
     f68:	fe0714e3          	bnez	a4,f50 <coffee_game+0x2c4>
     f6c:	e1048513          	addi	a0,s1,-496
     f70:	2fc020ef          	jal	326c <print>
     f74:	16c42683          	lw	a3,364(s0)
     f78:	3bc40b93          	addi	s7,s0,956
     f7c:	17040b13          	addi	s6,s0,368
     f80:	00068e63          	beqz	a3,f9c <coffee_game+0x310>
     f84:	000ba503          	lw	a0,0(s7)
     f88:	004b0b13          	addi	s6,s6,4
     f8c:	004b8b93          	addi	s7,s7,4
     f90:	2dc020ef          	jal	326c <print>
     f94:	ffcb2683          	lw	a3,-4(s6)
     f98:	fe0696e3          	bnez	a3,f84 <coffee_game+0x2f8>
     f9c:	e0c92703          	lw	a4,-500(s2)
     fa0:	0ff00793          	li	a5,255
     fa4:	fff70713          	addi	a4,a4,-1
     fa8:	e0e92623          	sw	a4,-500(s2)
     fac:	04eac463          	blt	s5,a4,ff4 <coffee_game+0x368>
     fb0:	08e052e3          	blez	a4,1834 <coffee_game+0xba8>
     fb4:	07b70ce3          	beq	a4,s11,182c <coffee_game+0xba0>
     fb8:	07a706e3          	beq	a4,s10,1824 <coffee_game+0xb98>
     fbc:	13970ce3          	beq	a4,s9,18f4 <coffee_game+0xc68>
     fc0:	138706e3          	beq	a4,s8,18ec <coffee_game+0xc60>
     fc4:	00500793          	li	a5,5
     fc8:	20f702e3          	beq	a4,a5,19cc <coffee_game+0xd40>
     fcc:	00600793          	li	a5,6
     fd0:	1ef70ae3          	beq	a4,a5,19c4 <coffee_game+0xd38>
     fd4:	00700793          	li	a5,7
     fd8:	1ef702e3          	beq	a4,a5,19bc <coffee_game+0xd30>
     fdc:	00800793          	li	a5,8
     fe0:	1cf70ae3          	beq	a4,a5,19b4 <coffee_game+0xd28>
     fe4:	1d5714e3          	bne	a4,s5,19ac <coffee_game+0xd20>
     fe8:	40000793          	li	a5,1024
     fec:	fff78793          	addi	a5,a5,-1
     ff0:	0ff7f793          	zext.b	a5,a5
     ff4:	04000737          	lui	a4,0x4000
     ff8:	00f70023          	sb	a5,0(a4) # 4000000 <_stack_end+0x3ef67f0>
     ffc:	09600713          	li	a4,150
    1000:	000077b7          	lui	a5,0x7
    1004:	53078793          	addi	a5,a5,1328 # 7530 <__global_pointer+0x2f28>
    1008:	00000013          	nop
    100c:	fff78793          	addi	a5,a5,-1
    1010:	fe079ce3          	bnez	a5,1008 <coffee_game+0x37c>
    1014:	fff70713          	addi	a4,a4,-1
    1018:	fe0714e3          	bnez	a4,1000 <coffee_game+0x374>
    101c:	fffa0a13          	addi	s4,s4,-1
    1020:	e40a1ee3          	bnez	s4,e7c <coffee_game+0x1f0>
    1024:	e1048513          	addi	a0,s1,-496
    1028:	244020ef          	jal	326c <print>
    102c:	16c42783          	lw	a5,364(s0)
    1030:	45040a93          	addi	s5,s0,1104
    1034:	17040a13          	addi	s4,s0,368
    1038:	00078e63          	beqz	a5,1054 <coffee_game+0x3c8>
    103c:	000aa503          	lw	a0,0(s5)
    1040:	004a0a13          	addi	s4,s4,4
    1044:	004a8a93          	addi	s5,s5,4
    1048:	224020ef          	jal	326c <print>
    104c:	ffca2783          	lw	a5,-4(s4)
    1050:	fe0796e3          	bnez	a5,103c <coffee_game+0x3b0>
    1054:	00004537          	lui	a0,0x4
    1058:	41c50513          	addi	a0,a0,1052 # 441c <c_energy+0x610>
    105c:	b00ff0ef          	jal	35c <pretty_print>
    1060:	e0c92703          	lw	a4,-500(s2)
    1064:	00900693          	li	a3,9
    1068:	00370793          	addi	a5,a4,3
    106c:	00e6d463          	bge	a3,a4,1074 <coffee_game+0x3e8>
    1070:	00a00793          	li	a5,10
    1074:	00004537          	lui	a0,0x4
    1078:	45c50513          	addi	a0,a0,1116 # 445c <c_energy+0x650>
    107c:	e0f92623          	sw	a5,-500(s2)
    1080:	adcff0ef          	jal	35c <pretty_print>
    1084:	e0c92703          	lw	a4,-500(s2)
    1088:	00a00693          	li	a3,10
    108c:	0ff00793          	li	a5,255
    1090:	04e6ce63          	blt	a3,a4,10ec <coffee_game+0x460>
    1094:	14e05ae3          	blez	a4,19e8 <coffee_game+0xd5c>
    1098:	00100793          	li	a5,1
    109c:	1af706e3          	beq	a4,a5,1a48 <coffee_game+0xdbc>
    10a0:	00200793          	li	a5,2
    10a4:	1af706e3          	beq	a4,a5,1a50 <coffee_game+0xdc4>
    10a8:	00300793          	li	a5,3
    10ac:	1af706e3          	beq	a4,a5,1a58 <coffee_game+0xdcc>
    10b0:	00400793          	li	a5,4
    10b4:	1af706e3          	beq	a4,a5,1a60 <coffee_game+0xdd4>
    10b8:	00500793          	li	a5,5
    10bc:	1af706e3          	beq	a4,a5,1a68 <coffee_game+0xddc>
    10c0:	00600793          	li	a5,6
    10c4:	1af706e3          	beq	a4,a5,1a70 <coffee_game+0xde4>
    10c8:	00700793          	li	a5,7
    10cc:	1af70ee3          	beq	a4,a5,1a88 <coffee_game+0xdfc>
    10d0:	00800793          	li	a5,8
    10d4:	1af706e3          	beq	a4,a5,1a80 <coffee_game+0xdf4>
    10d8:	00a00793          	li	a5,10
    10dc:	18f71ee3          	bne	a4,a5,1a78 <coffee_game+0xdec>
    10e0:	40000793          	li	a5,1024
    10e4:	fff78793          	addi	a5,a5,-1
    10e8:	0ff7f793          	zext.b	a5,a5
    10ec:	04000737          	lui	a4,0x4000
    10f0:	00f70023          	sb	a5,0(a4) # 4000000 <_stack_end+0x3ef67f0>
    10f4:	00c00a93          	li	s5,12
    10f8:	00004a37          	lui	s4,0x4
    10fc:	00a00b13          	li	s6,10
    1100:	00100d93          	li	s11,1
    1104:	00200d13          	li	s10,2
    1108:	00300c93          	li	s9,3
    110c:	e1048513          	addi	a0,s1,-496
    1110:	15c020ef          	jal	326c <print>
    1114:	16c42683          	lw	a3,364(s0)
    1118:	20040c13          	addi	s8,s0,512
    111c:	17040b93          	addi	s7,s0,368
    1120:	00068e63          	beqz	a3,113c <coffee_game+0x4b0>
    1124:	000c2503          	lw	a0,0(s8)
    1128:	004b8b93          	addi	s7,s7,4
    112c:	004c0c13          	addi	s8,s8,4
    1130:	13c020ef          	jal	326c <print>
    1134:	ffcba683          	lw	a3,-4(s7)
    1138:	fe0696e3          	bnez	a3,1124 <coffee_game+0x498>
    113c:	488a0513          	addi	a0,s4,1160 # 4488 <c_energy+0x67c>
    1140:	12c020ef          	jal	326c <print>
    1144:	06400713          	li	a4,100
    1148:	000077b7          	lui	a5,0x7
    114c:	53078793          	addi	a5,a5,1328 # 7530 <__global_pointer+0x2f28>
    1150:	00000013          	nop
    1154:	fff78793          	addi	a5,a5,-1
    1158:	fe079ce3          	bnez	a5,1150 <coffee_game+0x4c4>
    115c:	fff70713          	addi	a4,a4,-1
    1160:	fe0714e3          	bnez	a4,1148 <coffee_game+0x4bc>
    1164:	e1048513          	addi	a0,s1,-496
    1168:	104020ef          	jal	326c <print>
    116c:	16c42683          	lw	a3,364(s0)
    1170:	29440c13          	addi	s8,s0,660
    1174:	17040b93          	addi	s7,s0,368
    1178:	00068e63          	beqz	a3,1194 <coffee_game+0x508>
    117c:	000c2503          	lw	a0,0(s8)
    1180:	004b8b93          	addi	s7,s7,4
    1184:	004c0c13          	addi	s8,s8,4
    1188:	0e4020ef          	jal	326c <print>
    118c:	ffcba683          	lw	a3,-4(s7)
    1190:	fe0696e3          	bnez	a3,117c <coffee_game+0x4f0>
    1194:	488a0513          	addi	a0,s4,1160
    1198:	0d4020ef          	jal	326c <print>
    119c:	06400713          	li	a4,100
    11a0:	000077b7          	lui	a5,0x7
    11a4:	53078793          	addi	a5,a5,1328 # 7530 <__global_pointer+0x2f28>
    11a8:	00000013          	nop
    11ac:	fff78793          	addi	a5,a5,-1
    11b0:	fe079ce3          	bnez	a5,11a8 <coffee_game+0x51c>
    11b4:	fff70713          	addi	a4,a4,-1
    11b8:	fe0714e3          	bnez	a4,11a0 <coffee_game+0x514>
    11bc:	e1048513          	addi	a0,s1,-496
    11c0:	0ac020ef          	jal	326c <print>
    11c4:	16c42683          	lw	a3,364(s0)
    11c8:	32840c13          	addi	s8,s0,808
    11cc:	17040b93          	addi	s7,s0,368
    11d0:	00068e63          	beqz	a3,11ec <coffee_game+0x560>
    11d4:	000c2503          	lw	a0,0(s8)
    11d8:	004b8b93          	addi	s7,s7,4
    11dc:	004c0c13          	addi	s8,s8,4
    11e0:	08c020ef          	jal	326c <print>
    11e4:	ffcba683          	lw	a3,-4(s7)
    11e8:	fe0696e3          	bnez	a3,11d4 <coffee_game+0x548>
    11ec:	488a0513          	addi	a0,s4,1160
    11f0:	07c020ef          	jal	326c <print>
    11f4:	06400713          	li	a4,100
    11f8:	000077b7          	lui	a5,0x7
    11fc:	53078793          	addi	a5,a5,1328 # 7530 <__global_pointer+0x2f28>
    1200:	00000013          	nop
    1204:	fff78793          	addi	a5,a5,-1
    1208:	fe079ce3          	bnez	a5,1200 <coffee_game+0x574>
    120c:	fff70713          	addi	a4,a4,-1
    1210:	fe0714e3          	bnez	a4,11f8 <coffee_game+0x56c>
    1214:	e1048513          	addi	a0,s1,-496
    1218:	054020ef          	jal	326c <print>
    121c:	16c42683          	lw	a3,364(s0)
    1220:	3bc40c13          	addi	s8,s0,956
    1224:	17040b93          	addi	s7,s0,368
    1228:	00068e63          	beqz	a3,1244 <coffee_game+0x5b8>
    122c:	000c2503          	lw	a0,0(s8)
    1230:	004b8b93          	addi	s7,s7,4
    1234:	004c0c13          	addi	s8,s8,4
    1238:	034020ef          	jal	326c <print>
    123c:	ffcba683          	lw	a3,-4(s7)
    1240:	fe0696e3          	bnez	a3,122c <coffee_game+0x5a0>
    1244:	488a0513          	addi	a0,s4,1160
    1248:	024020ef          	jal	326c <print>
    124c:	e0c92703          	lw	a4,-500(s2)
    1250:	0ff00793          	li	a5,255
    1254:	fff70713          	addi	a4,a4,-1
    1258:	e0e92623          	sw	a4,-500(s2)
    125c:	04eb4663          	blt	s6,a4,12a8 <coffee_game+0x61c>
    1260:	5ce05e63          	blez	a4,183c <coffee_game+0xbb0>
    1264:	69b70063          	beq	a4,s11,18e4 <coffee_game+0xc58>
    1268:	69a70a63          	beq	a4,s10,18fc <coffee_game+0xc70>
    126c:	73970c63          	beq	a4,s9,19a4 <coffee_game+0xd18>
    1270:	00400793          	li	a5,4
    1274:	72f70463          	beq	a4,a5,199c <coffee_game+0xd10>
    1278:	00500793          	li	a5,5
    127c:	70f70c63          	beq	a4,a5,1994 <coffee_game+0xd08>
    1280:	00600793          	li	a5,6
    1284:	70f70463          	beq	a4,a5,198c <coffee_game+0xd00>
    1288:	00700793          	li	a5,7
    128c:	6ef70c63          	beq	a4,a5,1984 <coffee_game+0xcf8>
    1290:	00800793          	li	a5,8
    1294:	6ef70463          	beq	a4,a5,197c <coffee_game+0xcf0>
    1298:	6d671e63          	bne	a4,s6,1974 <coffee_game+0xce8>
    129c:	40000793          	li	a5,1024
    12a0:	fff78793          	addi	a5,a5,-1
    12a4:	0ff7f793          	zext.b	a5,a5
    12a8:	04000737          	lui	a4,0x4000
    12ac:	00f70023          	sb	a5,0(a4) # 4000000 <_stack_end+0x3ef67f0>
    12b0:	09600713          	li	a4,150
    12b4:	000077b7          	lui	a5,0x7
    12b8:	53078793          	addi	a5,a5,1328 # 7530 <__global_pointer+0x2f28>
    12bc:	00000013          	nop
    12c0:	fff78793          	addi	a5,a5,-1
    12c4:	fe079ce3          	bnez	a5,12bc <coffee_game+0x630>
    12c8:	fff70713          	addi	a4,a4,-1
    12cc:	fe0714e3          	bnez	a4,12b4 <coffee_game+0x628>
    12d0:	fffa8a93          	addi	s5,s5,-1
    12d4:	e20a9ce3          	bnez	s5,110c <coffee_game+0x480>
    12d8:	e1048513          	addi	a0,s1,-496
    12dc:	791010ef          	jal	326c <print>
    12e0:	16c42783          	lw	a5,364(s0)
    12e4:	4e440b13          	addi	s6,s0,1252
    12e8:	17040a93          	addi	s5,s0,368
    12ec:	00078e63          	beqz	a5,1308 <coffee_game+0x67c>
    12f0:	000b2503          	lw	a0,0(s6)
    12f4:	004a8a93          	addi	s5,s5,4
    12f8:	004b0b13          	addi	s6,s6,4
    12fc:	771010ef          	jal	326c <print>
    1300:	ffcaa783          	lw	a5,-4(s5)
    1304:	fe0796e3          	bnez	a5,12f0 <coffee_game+0x664>
    1308:	00004537          	lui	a0,0x4
    130c:	49c50513          	addi	a0,a0,1180 # 449c <c_energy+0x690>
    1310:	84cff0ef          	jal	35c <pretty_print>
    1314:	e0c92703          	lw	a4,-500(s2)
    1318:	01500613          	li	a2,21
    131c:	0ff00793          	li	a5,255
    1320:	01f75693          	srli	a3,a4,0x1f
    1324:	00e686b3          	add	a3,a3,a4
    1328:	4016d693          	srai	a3,a3,0x1
    132c:	e0d92623          	sw	a3,-500(s2)
    1330:	06e64063          	blt	a2,a4,1390 <coffee_game+0x704>
    1334:	00100793          	li	a5,1
    1338:	6ae7dc63          	bge	a5,a4,19f0 <coffee_game+0xd64>
    133c:	00300793          	li	a5,3
    1340:	6ce7d063          	bge	a5,a4,1a00 <coffee_game+0xd74>
    1344:	00500793          	li	a5,5
    1348:	6ce7d063          	bge	a5,a4,1a08 <coffee_game+0xd7c>
    134c:	00700793          	li	a5,7
    1350:	6ce7d063          	bge	a5,a4,1a10 <coffee_game+0xd84>
    1354:	00900793          	li	a5,9
    1358:	6ce7d063          	bge	a5,a4,1a18 <coffee_game+0xd8c>
    135c:	00b00793          	li	a5,11
    1360:	6ce7d063          	bge	a5,a4,1a20 <coffee_game+0xd94>
    1364:	00d00793          	li	a5,13
    1368:	6ce7d063          	bge	a5,a4,1a28 <coffee_game+0xd9c>
    136c:	00f00793          	li	a5,15
    1370:	6ce7d863          	bge	a5,a4,1a40 <coffee_game+0xdb4>
    1374:	01100793          	li	a5,17
    1378:	6ce7d063          	bge	a5,a4,1a38 <coffee_game+0xdac>
    137c:	01300793          	li	a5,19
    1380:	6ae7d863          	bge	a5,a4,1a30 <coffee_game+0xda4>
    1384:	40000793          	li	a5,1024
    1388:	fff78793          	addi	a5,a5,-1
    138c:	0ff7f793          	zext.b	a5,a5
    1390:	04000737          	lui	a4,0x4000
    1394:	00f70023          	sb	a5,0(a4) # 4000000 <_stack_end+0x3ef67f0>
    1398:	e1048513          	addi	a0,s1,-496
    139c:	6d1010ef          	jal	326c <print>
    13a0:	16c42783          	lw	a5,364(s0)
    13a4:	00078e63          	beqz	a5,13c0 <coffee_game+0x734>
    13a8:	16c40a93          	addi	s5,s0,364
    13ac:	000aa503          	lw	a0,0(s5)
    13b0:	004a8a93          	addi	s5,s5,4
    13b4:	6b9010ef          	jal	326c <print>
    13b8:	000aa783          	lw	a5,0(s5)
    13bc:	fe0798e3          	bnez	a5,13ac <coffee_game+0x720>
    13c0:	00004537          	lui	a0,0x4
    13c4:	51c50513          	addi	a0,a0,1308 # 451c <c_energy+0x710>
    13c8:	f95fe0ef          	jal	35c <pretty_print>
    13cc:	01c9a783          	lw	a5,28(s3)
    13d0:	50078063          	beqz	a5,18d0 <coffee_game+0xc44>
    13d4:	00004537          	lui	a0,0x4
    13d8:	54450513          	addi	a0,a0,1348 # 4544 <c_energy+0x738>
    13dc:	f81fe0ef          	jal	35c <pretty_print>
    13e0:	00004537          	lui	a0,0x4
    13e4:	58450513          	addi	a0,a0,1412 # 4584 <c_energy+0x778>
    13e8:	f75fe0ef          	jal	35c <pretty_print>
    13ec:	00000d93          	li	s11,0
    13f0:	09600713          	li	a4,150
    13f4:	000077b7          	lui	a5,0x7
    13f8:	53078793          	addi	a5,a5,1328 # 7530 <__global_pointer+0x2f28>
    13fc:	00000013          	nop
    1400:	fff78793          	addi	a5,a5,-1
    1404:	fe079ce3          	bnez	a5,13fc <coffee_game+0x770>
    1408:	fff70713          	addi	a4,a4,-1
    140c:	fe0714e3          	bnez	a4,13f4 <coffee_game+0x768>
    1410:	00c00b13          	li	s6,12
    1414:	00a00a93          	li	s5,10
    1418:	00100d13          	li	s10,1
    141c:	00200c93          	li	s9,2
    1420:	e1048513          	addi	a0,s1,-496
    1424:	649010ef          	jal	326c <print>
    1428:	16c42683          	lw	a3,364(s0)
    142c:	20040c13          	addi	s8,s0,512
    1430:	17040b93          	addi	s7,s0,368
    1434:	00068e63          	beqz	a3,1450 <coffee_game+0x7c4>
    1438:	000c2503          	lw	a0,0(s8)
    143c:	004b8b93          	addi	s7,s7,4
    1440:	004c0c13          	addi	s8,s8,4
    1444:	629010ef          	jal	326c <print>
    1448:	ffcba683          	lw	a3,-4(s7)
    144c:	fe0696e3          	bnez	a3,1438 <coffee_game+0x7ac>
    1450:	488a0513          	addi	a0,s4,1160
    1454:	619010ef          	jal	326c <print>
    1458:	06400713          	li	a4,100
    145c:	000077b7          	lui	a5,0x7
    1460:	53078793          	addi	a5,a5,1328 # 7530 <__global_pointer+0x2f28>
    1464:	00000013          	nop
    1468:	fff78793          	addi	a5,a5,-1
    146c:	fe079ce3          	bnez	a5,1464 <coffee_game+0x7d8>
    1470:	fff70713          	addi	a4,a4,-1
    1474:	fe0714e3          	bnez	a4,145c <coffee_game+0x7d0>
    1478:	e1048513          	addi	a0,s1,-496
    147c:	5f1010ef          	jal	326c <print>
    1480:	16c42683          	lw	a3,364(s0)
    1484:	29440c13          	addi	s8,s0,660
    1488:	17040b93          	addi	s7,s0,368
    148c:	00068e63          	beqz	a3,14a8 <coffee_game+0x81c>
    1490:	000c2503          	lw	a0,0(s8)
    1494:	004b8b93          	addi	s7,s7,4
    1498:	004c0c13          	addi	s8,s8,4
    149c:	5d1010ef          	jal	326c <print>
    14a0:	ffcba683          	lw	a3,-4(s7)
    14a4:	fe0696e3          	bnez	a3,1490 <coffee_game+0x804>
    14a8:	488a0513          	addi	a0,s4,1160
    14ac:	5c1010ef          	jal	326c <print>
    14b0:	06400713          	li	a4,100
    14b4:	000077b7          	lui	a5,0x7
    14b8:	53078793          	addi	a5,a5,1328 # 7530 <__global_pointer+0x2f28>
    14bc:	00000013          	nop
    14c0:	fff78793          	addi	a5,a5,-1
    14c4:	fe079ce3          	bnez	a5,14bc <coffee_game+0x830>
    14c8:	fff70713          	addi	a4,a4,-1
    14cc:	fe0714e3          	bnez	a4,14b4 <coffee_game+0x828>
    14d0:	e0c92703          	lw	a4,-500(s2)
    14d4:	000d8663          	beqz	s11,14e0 <coffee_game+0x854>
    14d8:	fff70713          	addi	a4,a4,-1
    14dc:	e0e92623          	sw	a4,-500(s2)
    14e0:	0ff00793          	li	a5,255
    14e4:	04eac863          	blt	s5,a4,1534 <coffee_game+0x8a8>
    14e8:	36e05263          	blez	a4,184c <coffee_game+0xbc0>
    14ec:	3da70e63          	beq	a4,s10,18c8 <coffee_game+0xc3c>
    14f0:	3d970063          	beq	a4,s9,18b0 <coffee_game+0xc24>
    14f4:	00300793          	li	a5,3
    14f8:	46f70a63          	beq	a4,a5,196c <coffee_game+0xce0>
    14fc:	00400793          	li	a5,4
    1500:	46f70263          	beq	a4,a5,1964 <coffee_game+0xcd8>
    1504:	00500793          	li	a5,5
    1508:	44f70a63          	beq	a4,a5,195c <coffee_game+0xcd0>
    150c:	00600793          	li	a5,6
    1510:	44f70263          	beq	a4,a5,1954 <coffee_game+0xcc8>
    1514:	00700793          	li	a5,7
    1518:	42f70a63          	beq	a4,a5,194c <coffee_game+0xcc0>
    151c:	00800793          	li	a5,8
    1520:	42f70263          	beq	a4,a5,1944 <coffee_game+0xcb8>
    1524:	41571c63          	bne	a4,s5,193c <coffee_game+0xcb0>
    1528:	40000793          	li	a5,1024
    152c:	fff78793          	addi	a5,a5,-1
    1530:	0ff7f793          	zext.b	a5,a5
    1534:	04000737          	lui	a4,0x4000
    1538:	00f70023          	sb	a5,0(a4) # 4000000 <_stack_end+0x3ef67f0>
    153c:	e1048513          	addi	a0,s1,-496
    1540:	52d010ef          	jal	326c <print>
    1544:	16c42683          	lw	a3,364(s0)
    1548:	32840c13          	addi	s8,s0,808
    154c:	17040b93          	addi	s7,s0,368
    1550:	00068e63          	beqz	a3,156c <coffee_game+0x8e0>
    1554:	000c2503          	lw	a0,0(s8)
    1558:	004b8b93          	addi	s7,s7,4
    155c:	004c0c13          	addi	s8,s8,4
    1560:	50d010ef          	jal	326c <print>
    1564:	ffcba683          	lw	a3,-4(s7)
    1568:	fe0696e3          	bnez	a3,1554 <coffee_game+0x8c8>
    156c:	488a0513          	addi	a0,s4,1160
    1570:	4fd010ef          	jal	326c <print>
    1574:	06400713          	li	a4,100
    1578:	000077b7          	lui	a5,0x7
    157c:	53078793          	addi	a5,a5,1328 # 7530 <__global_pointer+0x2f28>
    1580:	00000013          	nop
    1584:	fff78793          	addi	a5,a5,-1
    1588:	fe079ce3          	bnez	a5,1580 <coffee_game+0x8f4>
    158c:	fff70713          	addi	a4,a4,-1
    1590:	fe0714e3          	bnez	a4,1578 <coffee_game+0x8ec>
    1594:	e1048513          	addi	a0,s1,-496
    1598:	4d5010ef          	jal	326c <print>
    159c:	16c42683          	lw	a3,364(s0)
    15a0:	3bc40c13          	addi	s8,s0,956
    15a4:	17040b93          	addi	s7,s0,368
    15a8:	00068e63          	beqz	a3,15c4 <coffee_game+0x938>
    15ac:	000c2503          	lw	a0,0(s8)
    15b0:	004b8b93          	addi	s7,s7,4
    15b4:	004c0c13          	addi	s8,s8,4
    15b8:	4b5010ef          	jal	326c <print>
    15bc:	ffcba683          	lw	a3,-4(s7)
    15c0:	fe0696e3          	bnez	a3,15ac <coffee_game+0x920>
    15c4:	488a0513          	addi	a0,s4,1160
    15c8:	4a5010ef          	jal	326c <print>
    15cc:	e0c92703          	lw	a4,-500(s2)
    15d0:	0ff00793          	li	a5,255
    15d4:	fff70713          	addi	a4,a4,-1
    15d8:	e0e92623          	sw	a4,-500(s2)
    15dc:	04eac863          	blt	s5,a4,162c <coffee_game+0x9a0>
    15e0:	26e05263          	blez	a4,1844 <coffee_game+0xbb8>
    15e4:	2da70e63          	beq	a4,s10,18c0 <coffee_game+0xc34>
    15e8:	2d970863          	beq	a4,s9,18b8 <coffee_game+0xc2c>
    15ec:	00300793          	li	a5,3
    15f0:	34f70263          	beq	a4,a5,1934 <coffee_game+0xca8>
    15f4:	00400793          	li	a5,4
    15f8:	32f70a63          	beq	a4,a5,192c <coffee_game+0xca0>
    15fc:	00500793          	li	a5,5
    1600:	32f70263          	beq	a4,a5,1924 <coffee_game+0xc98>
    1604:	00600793          	li	a5,6
    1608:	30f70a63          	beq	a4,a5,191c <coffee_game+0xc90>
    160c:	00700793          	li	a5,7
    1610:	30f70263          	beq	a4,a5,1914 <coffee_game+0xc88>
    1614:	00800793          	li	a5,8
    1618:	2ef70a63          	beq	a4,a5,190c <coffee_game+0xc80>
    161c:	2f571463          	bne	a4,s5,1904 <coffee_game+0xc78>
    1620:	40000793          	li	a5,1024
    1624:	fff78793          	addi	a5,a5,-1
    1628:	0ff7f793          	zext.b	a5,a5
    162c:	04000737          	lui	a4,0x4000
    1630:	00f70023          	sb	a5,0(a4) # 4000000 <_stack_end+0x3ef67f0>
    1634:	09600713          	li	a4,150
    1638:	000077b7          	lui	a5,0x7
    163c:	53078793          	addi	a5,a5,1328 # 7530 <__global_pointer+0x2f28>
    1640:	00000013          	nop
    1644:	fff78793          	addi	a5,a5,-1
    1648:	fe079ce3          	bnez	a5,1640 <coffee_game+0x9b4>
    164c:	fff70713          	addi	a4,a4,-1
    1650:	fe0714e3          	bnez	a4,1638 <coffee_game+0x9ac>
    1654:	fffb0b13          	addi	s6,s6,-1
    1658:	dc0b14e3          	bnez	s6,1420 <coffee_game+0x794>
    165c:	040007b7          	lui	a5,0x4000
    1660:	0007ac23          	sw	zero,24(a5) # 4000018 <_stack_end+0x3ef6808>
    1664:	b11fe0ef          	jal	174 <disable_interrupts>
    1668:	e1048513          	addi	a0,s1,-496
    166c:	401010ef          	jal	326c <print>
    1670:	16c42783          	lw	a5,364(s0)
    1674:	57840a93          	addi	s5,s0,1400
    1678:	17040a13          	addi	s4,s0,368
    167c:	00078e63          	beqz	a5,1698 <coffee_game+0xa0c>
    1680:	000aa503          	lw	a0,0(s5)
    1684:	004a0a13          	addi	s4,s4,4
    1688:	004a8a93          	addi	s5,s5,4
    168c:	3e1010ef          	jal	326c <print>
    1690:	ffca2783          	lw	a5,-4(s4)
    1694:	fe0796e3          	bnez	a5,1680 <coffee_game+0x9f4>
    1698:	03200713          	li	a4,50
    169c:	000077b7          	lui	a5,0x7
    16a0:	53078793          	addi	a5,a5,1328 # 7530 <__global_pointer+0x2f28>
    16a4:	00000013          	nop
    16a8:	fff78793          	addi	a5,a5,-1
    16ac:	fe079ce3          	bnez	a5,16a4 <coffee_game+0xa18>
    16b0:	fff70713          	addi	a4,a4,-1
    16b4:	fe0714e3          	bnez	a4,169c <coffee_game+0xa10>
    16b8:	00004537          	lui	a0,0x4
    16bc:	5c050513          	addi	a0,a0,1472 # 45c0 <c_energy+0x7b4>
    16c0:	c9dfe0ef          	jal	35c <pretty_print>
    16c4:	00004537          	lui	a0,0x4
    16c8:	62850513          	addi	a0,a0,1576 # 4628 <__global_pointer+0x20>
    16cc:	c91fe0ef          	jal	35c <pretty_print>
    16d0:	25800713          	li	a4,600
    16d4:	000077b7          	lui	a5,0x7
    16d8:	53078793          	addi	a5,a5,1328 # 7530 <__global_pointer+0x2f28>
    16dc:	00000013          	nop
    16e0:	fff78793          	addi	a5,a5,-1
    16e4:	fe079ce3          	bnez	a5,16dc <coffee_game+0xa50>
    16e8:	fff70713          	addi	a4,a4,-1
    16ec:	fe0714e3          	bnez	a4,16d4 <coffee_game+0xa48>
    16f0:	00004537          	lui	a0,0x4
    16f4:	63050513          	addi	a0,a0,1584 # 4630 <__global_pointer+0x28>
    16f8:	c65fe0ef          	jal	35c <pretty_print>
    16fc:	25800713          	li	a4,600
    1700:	000077b7          	lui	a5,0x7
    1704:	53078793          	addi	a5,a5,1328 # 7530 <__global_pointer+0x2f28>
    1708:	00000013          	nop
    170c:	fff78793          	addi	a5,a5,-1
    1710:	fe079ce3          	bnez	a5,1708 <coffee_game+0xa7c>
    1714:	fff70713          	addi	a4,a4,-1
    1718:	fe0714e3          	bnez	a4,1700 <coffee_game+0xa74>
    171c:	00004537          	lui	a0,0x4
    1720:	63850513          	addi	a0,a0,1592 # 4638 <__global_pointer+0x30>
    1724:	c39fe0ef          	jal	35c <pretty_print>
    1728:	25800713          	li	a4,600
    172c:	000077b7          	lui	a5,0x7
    1730:	53078793          	addi	a5,a5,1328 # 7530 <__global_pointer+0x2f28>
    1734:	00000013          	nop
    1738:	fff78793          	addi	a5,a5,-1
    173c:	fe079ce3          	bnez	a5,1734 <coffee_game+0xaa8>
    1740:	fff70713          	addi	a4,a4,-1
    1744:	fe0714e3          	bnez	a4,172c <coffee_game+0xaa0>
    1748:	04000737          	lui	a4,0x4000
    174c:	01072783          	lw	a5,16(a4) # 4000010 <_stack_end+0x3ef6800>
    1750:	e1048513          	addi	a0,s1,-496
    1754:	0107f793          	andi	a5,a5,16
    1758:	0e078e63          	beqz	a5,1854 <coffee_game+0xbc8>
    175c:	311010ef          	jal	326c <print>
    1760:	16c42783          	lw	a5,364(s0)
    1764:	60c40a13          	addi	s4,s0,1548
    1768:	17040413          	addi	s0,s0,368
    176c:	00078e63          	beqz	a5,1788 <coffee_game+0xafc>
    1770:	000a2503          	lw	a0,0(s4)
    1774:	00440413          	addi	s0,s0,4
    1778:	004a0a13          	addi	s4,s4,4
    177c:	2f1010ef          	jal	326c <print>
    1780:	ffc42783          	lw	a5,-4(s0)
    1784:	fe0796e3          	bnez	a5,1770 <coffee_game+0xae4>
    1788:	00004537          	lui	a0,0x4
    178c:	64050513          	addi	a0,a0,1600 # 4640 <__global_pointer+0x38>
    1790:	bcdfe0ef          	jal	35c <pretty_print>
    1794:	0089a783          	lw	a5,8(s3)
    1798:	00278793          	addi	a5,a5,2
    179c:	00f9a423          	sw	a5,8(s3)
    17a0:	06400713          	li	a4,100
    17a4:	000077b7          	lui	a5,0x7
    17a8:	53078793          	addi	a5,a5,1328 # 7530 <__global_pointer+0x2f28>
    17ac:	00000013          	nop
    17b0:	fff78793          	addi	a5,a5,-1
    17b4:	fe079ce3          	bnez	a5,17ac <coffee_game+0xb20>
    17b8:	fff70713          	addi	a4,a4,-1
    17bc:	fe0714e3          	bnez	a4,17a4 <coffee_game+0xb18>
    17c0:	e1048513          	addi	a0,s1,-496
    17c4:	2a9010ef          	jal	326c <print>
    17c8:	00004537          	lui	a0,0x4
    17cc:	6b850513          	addi	a0,a0,1720 # 46b8 <__global_pointer+0xb0>
    17d0:	b8dfe0ef          	jal	35c <pretty_print>
    17d4:	e0c92703          	lw	a4,-500(s2)
    17d8:	0009a783          	lw	a5,0(s3)
    17dc:	03c12083          	lw	ra,60(sp)
    17e0:	03812403          	lw	s0,56(sp)
    17e4:	ff670713          	addi	a4,a4,-10
    17e8:	00e787b3          	add	a5,a5,a4
    17ec:	00f9a023          	sw	a5,0(s3)
    17f0:	03412483          	lw	s1,52(sp)
    17f4:	03012903          	lw	s2,48(sp)
    17f8:	02c12983          	lw	s3,44(sp)
    17fc:	02812a03          	lw	s4,40(sp)
    1800:	02412a83          	lw	s5,36(sp)
    1804:	02012b03          	lw	s6,32(sp)
    1808:	01c12b83          	lw	s7,28(sp)
    180c:	01812c03          	lw	s8,24(sp)
    1810:	01412c83          	lw	s9,20(sp)
    1814:	01012d03          	lw	s10,16(sp)
    1818:	00c12d83          	lw	s11,12(sp)
    181c:	04010113          	addi	sp,sp,64
    1820:	00008067          	ret
    1824:	00400793          	li	a5,4
    1828:	fc4ff06f          	j	fec <coffee_game+0x360>
    182c:	00200793          	li	a5,2
    1830:	fbcff06f          	j	fec <coffee_game+0x360>
    1834:	00000793          	li	a5,0
    1838:	fbcff06f          	j	ff4 <coffee_game+0x368>
    183c:	00000793          	li	a5,0
    1840:	a69ff06f          	j	12a8 <coffee_game+0x61c>
    1844:	00000793          	li	a5,0
    1848:	de5ff06f          	j	162c <coffee_game+0x9a0>
    184c:	00000793          	li	a5,0
    1850:	ce5ff06f          	j	1534 <coffee_game+0x8a8>
    1854:	219010ef          	jal	326c <print>
    1858:	16c42783          	lw	a5,364(s0)
    185c:	6a040a13          	addi	s4,s0,1696
    1860:	17040413          	addi	s0,s0,368
    1864:	00078e63          	beqz	a5,1880 <coffee_game+0xbf4>
    1868:	000a2503          	lw	a0,0(s4)
    186c:	00440413          	addi	s0,s0,4
    1870:	004a0a13          	addi	s4,s4,4
    1874:	1f9010ef          	jal	326c <print>
    1878:	ffc42783          	lw	a5,-4(s0)
    187c:	fe0796e3          	bnez	a5,1868 <coffee_game+0xbdc>
    1880:	00004537          	lui	a0,0x4
    1884:	66450513          	addi	a0,a0,1636 # 4664 <__global_pointer+0x5c>
    1888:	ad5fe0ef          	jal	35c <pretty_print>
    188c:	00004537          	lui	a0,0x4
    1890:	67450513          	addi	a0,a0,1652 # 4674 <__global_pointer+0x6c>
    1894:	1d9010ef          	jal	326c <print>
    1898:	00004537          	lui	a0,0x4
    189c:	68450513          	addi	a0,a0,1668 # 4684 <__global_pointer+0x7c>
    18a0:	abdfe0ef          	jal	35c <pretty_print>
    18a4:	0089a783          	lw	a5,8(s3)
    18a8:	ff678793          	addi	a5,a5,-10
    18ac:	ef1ff06f          	j	179c <coffee_game+0xb10>
    18b0:	00400793          	li	a5,4
    18b4:	c79ff06f          	j	152c <coffee_game+0x8a0>
    18b8:	00400793          	li	a5,4
    18bc:	d69ff06f          	j	1624 <coffee_game+0x998>
    18c0:	00200793          	li	a5,2
    18c4:	d61ff06f          	j	1624 <coffee_game+0x998>
    18c8:	00200793          	li	a5,2
    18cc:	c61ff06f          	j	152c <coffee_game+0x8a0>
    18d0:	00004537          	lui	a0,0x4
    18d4:	5a050513          	addi	a0,a0,1440 # 45a0 <c_energy+0x794>
    18d8:	a85fe0ef          	jal	35c <pretty_print>
    18dc:	00100d93          	li	s11,1
    18e0:	b11ff06f          	j	13f0 <coffee_game+0x764>
    18e4:	00200793          	li	a5,2
    18e8:	9b9ff06f          	j	12a0 <coffee_game+0x614>
    18ec:	01000793          	li	a5,16
    18f0:	efcff06f          	j	fec <coffee_game+0x360>
    18f4:	00800793          	li	a5,8
    18f8:	ef4ff06f          	j	fec <coffee_game+0x360>
    18fc:	00400793          	li	a5,4
    1900:	9a1ff06f          	j	12a0 <coffee_game+0x614>
    1904:	20000793          	li	a5,512
    1908:	d1dff06f          	j	1624 <coffee_game+0x998>
    190c:	10000793          	li	a5,256
    1910:	d15ff06f          	j	1624 <coffee_game+0x998>
    1914:	08000793          	li	a5,128
    1918:	d0dff06f          	j	1624 <coffee_game+0x998>
    191c:	04000793          	li	a5,64
    1920:	d05ff06f          	j	1624 <coffee_game+0x998>
    1924:	02000793          	li	a5,32
    1928:	cfdff06f          	j	1624 <coffee_game+0x998>
    192c:	01000793          	li	a5,16
    1930:	cf5ff06f          	j	1624 <coffee_game+0x998>
    1934:	00800793          	li	a5,8
    1938:	cedff06f          	j	1624 <coffee_game+0x998>
    193c:	20000793          	li	a5,512
    1940:	bedff06f          	j	152c <coffee_game+0x8a0>
    1944:	10000793          	li	a5,256
    1948:	be5ff06f          	j	152c <coffee_game+0x8a0>
    194c:	08000793          	li	a5,128
    1950:	bddff06f          	j	152c <coffee_game+0x8a0>
    1954:	04000793          	li	a5,64
    1958:	bd5ff06f          	j	152c <coffee_game+0x8a0>
    195c:	02000793          	li	a5,32
    1960:	bcdff06f          	j	152c <coffee_game+0x8a0>
    1964:	01000793          	li	a5,16
    1968:	bc5ff06f          	j	152c <coffee_game+0x8a0>
    196c:	00800793          	li	a5,8
    1970:	bbdff06f          	j	152c <coffee_game+0x8a0>
    1974:	20000793          	li	a5,512
    1978:	929ff06f          	j	12a0 <coffee_game+0x614>
    197c:	10000793          	li	a5,256
    1980:	921ff06f          	j	12a0 <coffee_game+0x614>
    1984:	08000793          	li	a5,128
    1988:	919ff06f          	j	12a0 <coffee_game+0x614>
    198c:	04000793          	li	a5,64
    1990:	911ff06f          	j	12a0 <coffee_game+0x614>
    1994:	02000793          	li	a5,32
    1998:	909ff06f          	j	12a0 <coffee_game+0x614>
    199c:	01000793          	li	a5,16
    19a0:	901ff06f          	j	12a0 <coffee_game+0x614>
    19a4:	00800793          	li	a5,8
    19a8:	8f9ff06f          	j	12a0 <coffee_game+0x614>
    19ac:	20000793          	li	a5,512
    19b0:	e3cff06f          	j	fec <coffee_game+0x360>
    19b4:	10000793          	li	a5,256
    19b8:	e34ff06f          	j	fec <coffee_game+0x360>
    19bc:	08000793          	li	a5,128
    19c0:	e2cff06f          	j	fec <coffee_game+0x360>
    19c4:	04000793          	li	a5,64
    19c8:	e24ff06f          	j	fec <coffee_game+0x360>
    19cc:	02000793          	li	a5,32
    19d0:	e1cff06f          	j	fec <coffee_game+0x360>
    19d4:	fc000713          	li	a4,-64
    19d8:	00e78023          	sb	a4,0(a5)
    19dc:	b70ff06f          	j	d4c <coffee_game+0xc0>
    19e0:	00000793          	li	a5,0
    19e4:	be0ff06f          	j	dc4 <coffee_game+0x138>
    19e8:	00000793          	li	a5,0
    19ec:	f00ff06f          	j	10ec <coffee_game+0x460>
    19f0:	00000793          	li	a5,0
    19f4:	99dff06f          	j	1390 <coffee_game+0x704>
    19f8:	08000793          	li	a5,128
    19fc:	bc0ff06f          	j	dbc <coffee_game+0x130>
    1a00:	00200793          	li	a5,2
    1a04:	985ff06f          	j	1388 <coffee_game+0x6fc>
    1a08:	00400793          	li	a5,4
    1a0c:	97dff06f          	j	1388 <coffee_game+0x6fc>
    1a10:	00800793          	li	a5,8
    1a14:	975ff06f          	j	1388 <coffee_game+0x6fc>
    1a18:	01000793          	li	a5,16
    1a1c:	96dff06f          	j	1388 <coffee_game+0x6fc>
    1a20:	02000793          	li	a5,32
    1a24:	965ff06f          	j	1388 <coffee_game+0x6fc>
    1a28:	04000793          	li	a5,64
    1a2c:	95dff06f          	j	1388 <coffee_game+0x6fc>
    1a30:	20000793          	li	a5,512
    1a34:	955ff06f          	j	1388 <coffee_game+0x6fc>
    1a38:	10000793          	li	a5,256
    1a3c:	94dff06f          	j	1388 <coffee_game+0x6fc>
    1a40:	08000793          	li	a5,128
    1a44:	945ff06f          	j	1388 <coffee_game+0x6fc>
    1a48:	00200793          	li	a5,2
    1a4c:	e98ff06f          	j	10e4 <coffee_game+0x458>
    1a50:	00400793          	li	a5,4
    1a54:	e90ff06f          	j	10e4 <coffee_game+0x458>
    1a58:	00800793          	li	a5,8
    1a5c:	e88ff06f          	j	10e4 <coffee_game+0x458>
    1a60:	01000793          	li	a5,16
    1a64:	e80ff06f          	j	10e4 <coffee_game+0x458>
    1a68:	02000793          	li	a5,32
    1a6c:	e78ff06f          	j	10e4 <coffee_game+0x458>
    1a70:	04000793          	li	a5,64
    1a74:	e70ff06f          	j	10e4 <coffee_game+0x458>
    1a78:	20000793          	li	a5,512
    1a7c:	e68ff06f          	j	10e4 <coffee_game+0x458>
    1a80:	10000793          	li	a5,256
    1a84:	e60ff06f          	j	10e4 <coffee_game+0x458>
    1a88:	08000793          	li	a5,128
    1a8c:	e58ff06f          	j	10e4 <coffee_game+0x458>
    1a90:	00200793          	li	a5,2
    1a94:	b28ff06f          	j	dbc <coffee_game+0x130>
    1a98:	00400793          	li	a5,4
    1a9c:	b20ff06f          	j	dbc <coffee_game+0x130>
    1aa0:	00800793          	li	a5,8
    1aa4:	b18ff06f          	j	dbc <coffee_game+0x130>
    1aa8:	01000793          	li	a5,16
    1aac:	b10ff06f          	j	dbc <coffee_game+0x130>
    1ab0:	02000793          	li	a5,32
    1ab4:	b08ff06f          	j	dbc <coffee_game+0x130>
    1ab8:	04000793          	li	a5,64
    1abc:	b00ff06f          	j	dbc <coffee_game+0x130>
    1ac0:	20000793          	li	a5,512
    1ac4:	af8ff06f          	j	dbc <coffee_game+0x130>
    1ac8:	10000793          	li	a5,256
    1acc:	af0ff06f          	j	dbc <coffee_game+0x130>

00001ad0 <clocking_out>:
    1ad0:	00004537          	lui	a0,0x4
    1ad4:	ff010113          	addi	sp,sp,-16
    1ad8:	e1050513          	addi	a0,a0,-496 # 3e10 <c_energy+0x4>
    1adc:	00112623          	sw	ra,12(sp)
    1ae0:	00812423          	sw	s0,8(sp)
    1ae4:	788010ef          	jal	326c <print>
    1ae8:	00004537          	lui	a0,0x4
    1aec:	6f450513          	addi	a0,a0,1780 # 46f4 <__global_pointer+0xec>
    1af0:	86dfe0ef          	jal	35c <pretty_print>
    1af4:	00004537          	lui	a0,0x4
    1af8:	73850513          	addi	a0,a0,1848 # 4738 <__global_pointer+0x130>
    1afc:	861fe0ef          	jal	35c <pretty_print>
    1b00:	00004537          	lui	a0,0x4
    1b04:	76450513          	addi	a0,a0,1892 # 4764 <__global_pointer+0x15c>
    1b08:	855fe0ef          	jal	35c <pretty_print>
    1b0c:	00005437          	lui	s0,0x5
    1b10:	47040513          	addi	a0,s0,1136 # 5470 <__global_pointer+0xe68>
    1b14:	758010ef          	jal	326c <print>
    1b18:	47040513          	addi	a0,s0,1136
    1b1c:	750010ef          	jal	326c <print>
    1b20:	00004537          	lui	a0,0x4
    1b24:	79450513          	addi	a0,a0,1940 # 4794 <__global_pointer+0x18c>
    1b28:	744010ef          	jal	326c <print>
    1b2c:	00005537          	lui	a0,0x5
    1b30:	82c50513          	addi	a0,a0,-2004 # 482c <__global_pointer+0x224>
    1b34:	738010ef          	jal	326c <print>
    1b38:	00005537          	lui	a0,0x5
    1b3c:	8c450513          	addi	a0,a0,-1852 # 48c4 <__global_pointer+0x2bc>
    1b40:	72c010ef          	jal	326c <print>
    1b44:	00005537          	lui	a0,0x5
    1b48:	95c50513          	addi	a0,a0,-1700 # 495c <__global_pointer+0x354>
    1b4c:	720010ef          	jal	326c <print>
    1b50:	00005537          	lui	a0,0x5
    1b54:	9f450513          	addi	a0,a0,-1548 # 49f4 <__global_pointer+0x3ec>
    1b58:	714010ef          	jal	326c <print>
    1b5c:	00005537          	lui	a0,0x5
    1b60:	a8c50513          	addi	a0,a0,-1396 # 4a8c <__global_pointer+0x484>
    1b64:	708010ef          	jal	326c <print>
    1b68:	00005537          	lui	a0,0x5
    1b6c:	b2450513          	addi	a0,a0,-1244 # 4b24 <__global_pointer+0x51c>
    1b70:	6fc010ef          	jal	326c <print>
    1b74:	00005537          	lui	a0,0x5
    1b78:	bbc50513          	addi	a0,a0,-1092 # 4bbc <__global_pointer+0x5b4>
    1b7c:	6f0010ef          	jal	326c <print>
    1b80:	00005537          	lui	a0,0x5
    1b84:	c5450513          	addi	a0,a0,-940 # 4c54 <__global_pointer+0x64c>
    1b88:	6e4010ef          	jal	326c <print>
    1b8c:	00005537          	lui	a0,0x5
    1b90:	cec50513          	addi	a0,a0,-788 # 4cec <__global_pointer+0x6e4>
    1b94:	6d8010ef          	jal	326c <print>
    1b98:	00005537          	lui	a0,0x5
    1b9c:	d8450513          	addi	a0,a0,-636 # 4d84 <__global_pointer+0x77c>
    1ba0:	6cc010ef          	jal	326c <print>
    1ba4:	00005537          	lui	a0,0x5
    1ba8:	e1c50513          	addi	a0,a0,-484 # 4e1c <__global_pointer+0x814>
    1bac:	6c0010ef          	jal	326c <print>
    1bb0:	00005537          	lui	a0,0x5
    1bb4:	eb450513          	addi	a0,a0,-332 # 4eb4 <__global_pointer+0x8ac>
    1bb8:	6b4010ef          	jal	326c <print>
    1bbc:	00005537          	lui	a0,0x5
    1bc0:	f4c50513          	addi	a0,a0,-180 # 4f4c <__global_pointer+0x944>
    1bc4:	6a8010ef          	jal	326c <print>
    1bc8:	00005537          	lui	a0,0x5
    1bcc:	fe450513          	addi	a0,a0,-28 # 4fe4 <__global_pointer+0x9dc>
    1bd0:	69c010ef          	jal	326c <print>
    1bd4:	00005537          	lui	a0,0x5
    1bd8:	07c50513          	addi	a0,a0,124 # 507c <__global_pointer+0xa74>
    1bdc:	690010ef          	jal	326c <print>
    1be0:	00005537          	lui	a0,0x5
    1be4:	11450513          	addi	a0,a0,276 # 5114 <__global_pointer+0xb0c>
    1be8:	684010ef          	jal	326c <print>
    1bec:	00005537          	lui	a0,0x5
    1bf0:	1ac50513          	addi	a0,a0,428 # 51ac <__global_pointer+0xba4>
    1bf4:	678010ef          	jal	326c <print>
    1bf8:	00005537          	lui	a0,0x5
    1bfc:	24450513          	addi	a0,a0,580 # 5244 <__global_pointer+0xc3c>
    1c00:	66c010ef          	jal	326c <print>
    1c04:	00005537          	lui	a0,0x5
    1c08:	2dc50513          	addi	a0,a0,732 # 52dc <__global_pointer+0xcd4>
    1c0c:	660010ef          	jal	326c <print>
    1c10:	00005537          	lui	a0,0x5
    1c14:	37450513          	addi	a0,a0,884 # 5374 <__global_pointer+0xd6c>
    1c18:	654010ef          	jal	326c <print>
    1c1c:	00005537          	lui	a0,0x5
    1c20:	40c50513          	addi	a0,a0,1036 # 540c <__global_pointer+0xe04>
    1c24:	648010ef          	jal	326c <print>
    1c28:	00005537          	lui	a0,0x5
    1c2c:	47450513          	addi	a0,a0,1140 # 5474 <__global_pointer+0xe6c>
    1c30:	63c010ef          	jal	326c <print>
    1c34:	47040513          	addi	a0,s0,1136
    1c38:	00812403          	lw	s0,8(sp)
    1c3c:	00c12083          	lw	ra,12(sp)
    1c40:	01010113          	addi	sp,sp,16
    1c44:	6280106f          	j	326c <print>

00001c48 <game_over>:
    1c48:	ff010113          	addi	sp,sp,-16
    1c4c:	00812423          	sw	s0,8(sp)
    1c50:	00050413          	mv	s0,a0
    1c54:	00004537          	lui	a0,0x4
    1c58:	e1050513          	addi	a0,a0,-496 # 3e10 <c_energy+0x4>
    1c5c:	00112623          	sw	ra,12(sp)
    1c60:	60c010ef          	jal	326c <print>
    1c64:	00042783          	lw	a5,0(s0)
    1c68:	10f05063          	blez	a5,1d68 <game_over+0x120>
    1c6c:	00842783          	lw	a5,8(s0)
    1c70:	10f05c63          	blez	a5,1d88 <game_over+0x140>
    1c74:	00442783          	lw	a5,4(s0)
    1c78:	10f05063          	blez	a5,1d78 <game_over+0x130>
    1c7c:	00005537          	lui	a0,0x5
    1c80:	56c50513          	addi	a0,a0,1388 # 556c <__global_pointer+0xf64>
    1c84:	00004437          	lui	s0,0x4
    1c88:	ed4fe0ef          	jal	35c <pretty_print>
    1c8c:	e8840513          	addi	a0,s0,-376 # 3e88 <c_energy+0x7c>
    1c90:	5dc010ef          	jal	326c <print>
    1c94:	e8840513          	addi	a0,s0,-376
    1c98:	5d4010ef          	jal	326c <print>
    1c9c:	e8840513          	addi	a0,s0,-376
    1ca0:	5cc010ef          	jal	326c <print>
    1ca4:	00005537          	lui	a0,0x5
    1ca8:	58850513          	addi	a0,a0,1416 # 5588 <__global_pointer+0xf80>
    1cac:	5c0010ef          	jal	326c <print>
    1cb0:	00005537          	lui	a0,0x5
    1cb4:	60050513          	addi	a0,a0,1536 # 5600 <__global_pointer+0xff8>
    1cb8:	5b4010ef          	jal	326c <print>
    1cbc:	00005537          	lui	a0,0x5
    1cc0:	67850513          	addi	a0,a0,1656 # 5678 <__global_pointer+0x1070>
    1cc4:	5a8010ef          	jal	326c <print>
    1cc8:	00005537          	lui	a0,0x5
    1ccc:	6f050513          	addi	a0,a0,1776 # 56f0 <__global_pointer+0x10e8>
    1cd0:	59c010ef          	jal	326c <print>
    1cd4:	00005537          	lui	a0,0x5
    1cd8:	76850513          	addi	a0,a0,1896 # 5768 <__global_pointer+0x1160>
    1cdc:	590010ef          	jal	326c <print>
    1ce0:	00005537          	lui	a0,0x5
    1ce4:	7e050513          	addi	a0,a0,2016 # 57e0 <__global_pointer+0x11d8>
    1ce8:	584010ef          	jal	326c <print>
    1cec:	00006537          	lui	a0,0x6
    1cf0:	85850513          	addi	a0,a0,-1960 # 5858 <__global_pointer+0x1250>
    1cf4:	578010ef          	jal	326c <print>
    1cf8:	00006537          	lui	a0,0x6
    1cfc:	8d050513          	addi	a0,a0,-1840 # 58d0 <__global_pointer+0x12c8>
    1d00:	56c010ef          	jal	326c <print>
    1d04:	00006537          	lui	a0,0x6
    1d08:	94850513          	addi	a0,a0,-1720 # 5948 <__global_pointer+0x1340>
    1d0c:	560010ef          	jal	326c <print>
    1d10:	00006537          	lui	a0,0x6
    1d14:	9c050513          	addi	a0,a0,-1600 # 59c0 <__global_pointer+0x13b8>
    1d18:	554010ef          	jal	326c <print>
    1d1c:	00006537          	lui	a0,0x6
    1d20:	a3850513          	addi	a0,a0,-1480 # 5a38 <__global_pointer+0x1430>
    1d24:	548010ef          	jal	326c <print>
    1d28:	00006537          	lui	a0,0x6
    1d2c:	ab050513          	addi	a0,a0,-1360 # 5ab0 <__global_pointer+0x14a8>
    1d30:	53c010ef          	jal	326c <print>
    1d34:	00006537          	lui	a0,0x6
    1d38:	b2850513          	addi	a0,a0,-1240 # 5b28 <__global_pointer+0x1520>
    1d3c:	530010ef          	jal	326c <print>
    1d40:	00006537          	lui	a0,0x6
    1d44:	ba050513          	addi	a0,a0,-1120 # 5ba0 <__global_pointer+0x1598>
    1d48:	524010ef          	jal	326c <print>
    1d4c:	00006537          	lui	a0,0x6
    1d50:	c1850513          	addi	a0,a0,-1000 # 5c18 <__global_pointer+0x1610>
    1d54:	518010ef          	jal	326c <print>
    1d58:	00006537          	lui	a0,0x6
    1d5c:	c9050513          	addi	a0,a0,-880 # 5c90 <__global_pointer+0x1688>
    1d60:	50c010ef          	jal	326c <print>
    1d64:	0000006f          	j	1d64 <game_over+0x11c>
    1d68:	00005537          	lui	a0,0x5
    1d6c:	4dc50513          	addi	a0,a0,1244 # 54dc <__global_pointer+0xed4>
    1d70:	decfe0ef          	jal	35c <pretty_print>
    1d74:	ef9ff06f          	j	1c6c <game_over+0x24>
    1d78:	00005537          	lui	a0,0x5
    1d7c:	55850513          	addi	a0,a0,1368 # 5558 <__global_pointer+0xf50>
    1d80:	ddcfe0ef          	jal	35c <pretty_print>
    1d84:	ef9ff06f          	j	1c7c <game_over+0x34>
    1d88:	00005537          	lui	a0,0x5
    1d8c:	51c50513          	addi	a0,a0,1308 # 551c <__global_pointer+0xf14>
    1d90:	dccfe0ef          	jal	35c <pretty_print>
    1d94:	ee1ff06f          	j	1c74 <game_over+0x2c>

00001d98 <scene_init>:
    1d98:	00052783          	lw	a5,0(a0)
    1d9c:	ff010113          	addi	sp,sp,-16
    1da0:	00812423          	sw	s0,8(sp)
    1da4:	00112623          	sw	ra,12(sp)
    1da8:	00050413          	mv	s0,a0
    1dac:	04f05063          	blez	a5,1dec <scene_init+0x54>
    1db0:	00452783          	lw	a5,4(a0)
    1db4:	02f05c63          	blez	a5,1dec <scene_init+0x54>
    1db8:	00004537          	lui	a0,0x4
    1dbc:	e1050513          	addi	a0,a0,-496 # 3e10 <c_energy+0x4>
    1dc0:	4ac010ef          	jal	326c <print>
    1dc4:	00040513          	mv	a0,s0
    1dc8:	e90fe0ef          	jal	458 <print_status>
    1dcc:	00005437          	lui	s0,0x5
    1dd0:	47040513          	addi	a0,s0,1136 # 5470 <__global_pointer+0xe68>
    1dd4:	498010ef          	jal	326c <print>
    1dd8:	47040513          	addi	a0,s0,1136
    1ddc:	00812403          	lw	s0,8(sp)
    1de0:	00c12083          	lw	ra,12(sp)
    1de4:	01010113          	addi	sp,sp,16
    1de8:	4840106f          	j	326c <print>
    1dec:	00040513          	mv	a0,s0
    1df0:	e59ff0ef          	jal	1c48 <game_over>

00001df4 <car_game>:
    1df4:	fc010113          	addi	sp,sp,-64
    1df8:	02912a23          	sw	s1,52(sp)
    1dfc:	00050493          	mv	s1,a0
    1e00:	00006537          	lui	a0,0x6
    1e04:	d0850513          	addi	a0,a0,-760 # 5d08 <__global_pointer+0x1700>
    1e08:	02812c23          	sw	s0,56(sp)
    1e0c:	02112e23          	sw	ra,60(sp)
    1e10:	03212823          	sw	s2,48(sp)
    1e14:	03312623          	sw	s3,44(sp)
    1e18:	03412423          	sw	s4,40(sp)
    1e1c:	03512223          	sw	s5,36(sp)
    1e20:	03612023          	sw	s6,32(sp)
    1e24:	01712e23          	sw	s7,28(sp)
    1e28:	01812c23          	sw	s8,24(sp)
    1e2c:	01912a23          	sw	s9,20(sp)
    1e30:	d2cfe0ef          	jal	35c <pretty_print>
    1e34:	0104a783          	lw	a5,16(s1)
    1e38:	0c800413          	li	s0,200
    1e3c:	18079c63          	bnez	a5,1fd4 <car_game+0x1e0>
    1e40:	12c00713          	li	a4,300
    1e44:	000077b7          	lui	a5,0x7
    1e48:	53078793          	addi	a5,a5,1328 # 7530 <__global_pointer+0x2f28>
    1e4c:	00000013          	nop
    1e50:	fff78793          	addi	a5,a5,-1
    1e54:	fe079ce3          	bnez	a5,1e4c <car_game+0x58>
    1e58:	fff70713          	addi	a4,a4,-1
    1e5c:	fe0714e3          	bnez	a4,1e44 <car_game+0x50>
    1e60:	00004537          	lui	a0,0x4
    1e64:	e1050513          	addi	a0,a0,-496 # 3e10 <c_energy+0x4>
    1e68:	04000937          	lui	s2,0x4000
    1e6c:	400010ef          	jal	326c <print>
    1e70:	00000c93          	li	s9,0
    1e74:	00012623          	sw	zero,12(sp)
    1e78:	00100c13          	li	s8,1
    1e7c:	01c90913          	addi	s2,s2,28 # 400001c <_stack_end+0x3ef680c>
    1e80:	00100a13          	li	s4,1
    1e84:	00900993          	li	s3,9
    1e88:	00200b93          	li	s7,2
    1e8c:	00400b13          	li	s6,4
    1e90:	00300a93          	li	s5,3
    1e94:	00000713          	li	a4,0
    1e98:	000077b7          	lui	a5,0x7
    1e9c:	53078793          	addi	a5,a5,1328 # 7530 <__global_pointer+0x2f28>
    1ea0:	00000013          	nop
    1ea4:	fff78793          	addi	a5,a5,-1
    1ea8:	fe079ce3          	bnez	a5,1ea0 <car_game+0xac>
    1eac:	00170713          	addi	a4,a4,1
    1eb0:	fe8764e3          	bltu	a4,s0,1e98 <car_game+0xa4>
    1eb4:	00092783          	lw	a5,0(s2)
    1eb8:	00092023          	sw	zero,0(s2)
    1ebc:	0017f713          	andi	a4,a5,1
    1ec0:	0a071a63          	bnez	a4,1f74 <car_game+0x180>
    1ec4:	2007f793          	andi	a5,a5,512
    1ec8:	0a079c63          	bnez	a5,1f80 <car_game+0x18c>
    1ecc:	000c8513          	mv	a0,s9
    1ed0:	000c0613          	mv	a2,s8
    1ed4:	00c10593          	addi	a1,sp,12
    1ed8:	f30fe0ef          	jal	608 <draw_road>
    1edc:	00c12703          	lw	a4,12(sp)
    1ee0:	001c8c93          	addi	s9,s9,1
    1ee4:	0ff00793          	li	a5,255
    1ee8:	04e9c063          	blt	s3,a4,1f28 <car_game+0x134>
    1eec:	0ae05863          	blez	a4,1f9c <car_game+0x1a8>
    1ef0:	0b470263          	beq	a4,s4,1f94 <car_game+0x1a0>
    1ef4:	09770c63          	beq	a4,s7,1f8c <car_game+0x198>
    1ef8:	0b570663          	beq	a4,s5,1fa4 <car_game+0x1b0>
    1efc:	0d670863          	beq	a4,s6,1fcc <car_game+0x1d8>
    1f00:	00500793          	li	a5,5
    1f04:	0cf70063          	beq	a4,a5,1fc4 <car_game+0x1d0>
    1f08:	00600793          	li	a5,6
    1f0c:	0af70863          	beq	a4,a5,1fbc <car_game+0x1c8>
    1f10:	00700793          	li	a5,7
    1f14:	0af70063          	beq	a4,a5,1fb4 <car_game+0x1c0>
    1f18:	09371a63          	bne	a4,s3,1fac <car_game+0x1b8>
    1f1c:	20000793          	li	a5,512
    1f20:	fff78793          	addi	a5,a5,-1
    1f24:	0ff7f793          	zext.b	a5,a5
    1f28:	04000737          	lui	a4,0x4000
    1f2c:	00f70023          	sb	a5,0(a4) # 4000000 <_stack_end+0x3ef67f0>
    1f30:	06400793          	li	a5,100
    1f34:	f6fc90e3          	bne	s9,a5,1e94 <car_game+0xa0>
    1f38:	00c12403          	lw	s0,12(sp)
    1f3c:	0a041663          	bnez	s0,1fe8 <car_game+0x1f4>
    1f40:	03c12083          	lw	ra,60(sp)
    1f44:	03812403          	lw	s0,56(sp)
    1f48:	03412483          	lw	s1,52(sp)
    1f4c:	03012903          	lw	s2,48(sp)
    1f50:	02c12983          	lw	s3,44(sp)
    1f54:	02812a03          	lw	s4,40(sp)
    1f58:	02412a83          	lw	s5,36(sp)
    1f5c:	02012b03          	lw	s6,32(sp)
    1f60:	01c12b83          	lw	s7,28(sp)
    1f64:	01812c03          	lw	s8,24(sp)
    1f68:	01412c83          	lw	s9,20(sp)
    1f6c:	04010113          	addi	sp,sp,64
    1f70:	00008067          	ret
    1f74:	f58a4ce3          	blt	s4,s8,1ecc <car_game+0xd8>
    1f78:	001c0c13          	addi	s8,s8,1
    1f7c:	f51ff06f          	j	1ecc <car_game+0xd8>
    1f80:	ff805ce3          	blez	s8,1f78 <car_game+0x184>
    1f84:	fffc0c13          	addi	s8,s8,-1
    1f88:	f45ff06f          	j	1ecc <car_game+0xd8>
    1f8c:	00400793          	li	a5,4
    1f90:	f91ff06f          	j	1f20 <car_game+0x12c>
    1f94:	00200793          	li	a5,2
    1f98:	f89ff06f          	j	1f20 <car_game+0x12c>
    1f9c:	00000793          	li	a5,0
    1fa0:	f89ff06f          	j	1f28 <car_game+0x134>
    1fa4:	00800793          	li	a5,8
    1fa8:	f79ff06f          	j	1f20 <car_game+0x12c>
    1fac:	10000793          	li	a5,256
    1fb0:	f71ff06f          	j	1f20 <car_game+0x12c>
    1fb4:	08000793          	li	a5,128
    1fb8:	f69ff06f          	j	1f20 <car_game+0x12c>
    1fbc:	04000793          	li	a5,64
    1fc0:	f61ff06f          	j	1f20 <car_game+0x12c>
    1fc4:	02000793          	li	a5,32
    1fc8:	f59ff06f          	j	1f20 <car_game+0x12c>
    1fcc:	01000793          	li	a5,16
    1fd0:	f51ff06f          	j	1f20 <car_game+0x12c>
    1fd4:	00006537          	lui	a0,0x6
    1fd8:	d6050513          	addi	a0,a0,-672 # 5d60 <__global_pointer+0x1758>
    1fdc:	b80fe0ef          	jal	35c <pretty_print>
    1fe0:	09600413          	li	s0,150
    1fe4:	e5dff06f          	j	1e40 <car_game+0x4c>
    1fe8:	00006537          	lui	a0,0x6
    1fec:	d9c50513          	addi	a0,a0,-612 # 5d9c <__global_pointer+0x1794>
    1ff0:	b6cfe0ef          	jal	35c <pretty_print>
    1ff4:	00040513          	mv	a0,s0
    1ff8:	2ac010ef          	jal	32a4 <print_dec>
    1ffc:	00006537          	lui	a0,0x6
    2000:	dac50513          	addi	a0,a0,-596 # 5dac <__global_pointer+0x17a4>
    2004:	b58fe0ef          	jal	35c <pretty_print>
    2008:	f9c00793          	li	a5,-100
    200c:	02f407b3          	mul	a5,s0,a5
    2010:	0044a703          	lw	a4,4(s1)
    2014:	00e787b3          	add	a5,a5,a4
    2018:	00f4a223          	sw	a5,4(s1)
    201c:	f207d2e3          	bgez	a5,1f40 <car_game+0x14c>
    2020:	00048513          	mv	a0,s1
    2024:	c25ff0ef          	jal	1c48 <game_over>

00002028 <lunch>:
    2028:	fe010113          	addi	sp,sp,-32
    202c:	00812c23          	sw	s0,24(sp)
    2030:	00050413          	mv	s0,a0
    2034:	00006537          	lui	a0,0x6
    2038:	df050513          	addi	a0,a0,-528 # 5df0 <__global_pointer+0x17e8>
    203c:	00112e23          	sw	ra,28(sp)
    2040:	00912a23          	sw	s1,20(sp)
    2044:	01212823          	sw	s2,16(sp)
    2048:	01312623          	sw	s3,12(sp)
    204c:	01412423          	sw	s4,8(sp)
    2050:	01512223          	sw	s5,4(sp)
    2054:	b08fe0ef          	jal	35c <pretty_print>
    2058:	00006537          	lui	a0,0x6
    205c:	e2850513          	addi	a0,a0,-472 # 5e28 <__global_pointer+0x1820>
    2060:	afcfe0ef          	jal	35c <pretty_print>
    2064:	00042783          	lw	a5,0(s0)
    2068:	12f05863          	blez	a5,2198 <lunch+0x170>
    206c:	00442783          	lw	a5,4(s0)
    2070:	12f05463          	blez	a5,2198 <lunch+0x170>
    2074:	00004537          	lui	a0,0x4
    2078:	e1050513          	addi	a0,a0,-496 # 3e10 <c_energy+0x4>
    207c:	1f0010ef          	jal	326c <print>
    2080:	00040513          	mv	a0,s0
    2084:	000054b7          	lui	s1,0x5
    2088:	bd0fe0ef          	jal	458 <print_status>
    208c:	47048513          	addi	a0,s1,1136 # 5470 <__global_pointer+0xe68>
    2090:	1dc010ef          	jal	326c <print>
    2094:	47048513          	addi	a0,s1,1136
    2098:	1d4010ef          	jal	326c <print>
    209c:	000049b7          	lui	s3,0x4
    20a0:	e1898513          	addi	a0,s3,-488 # 3e18 <c_energy+0xc>
    20a4:	1c8010ef          	jal	326c <print>
    20a8:	00006537          	lui	a0,0x6
    20ac:	e6050513          	addi	a0,a0,-416 # 5e60 <__global_pointer+0x1858>
    20b0:	aacfe0ef          	jal	35c <pretty_print>
    20b4:	47048513          	addi	a0,s1,1136
    20b8:	1b4010ef          	jal	326c <print>
    20bc:	47048513          	addi	a0,s1,1136
    20c0:	1ac010ef          	jal	326c <print>
    20c4:	00006537          	lui	a0,0x6
    20c8:	e7c50513          	addi	a0,a0,-388 # 5e7c <__global_pointer+0x1874>
    20cc:	a90fe0ef          	jal	35c <pretty_print>
    20d0:	00006537          	lui	a0,0x6
    20d4:	e8850513          	addi	a0,a0,-376 # 5e88 <__global_pointer+0x1880>
    20d8:	a84fe0ef          	jal	35c <pretty_print>
    20dc:	00006537          	lui	a0,0x6
    20e0:	e9450513          	addi	a0,a0,-364 # 5e94 <__global_pointer+0x188c>
    20e4:	04000937          	lui	s2,0x4000
    20e8:	040004b7          	lui	s1,0x4000
    20ec:	a70fe0ef          	jal	35c <pretty_print>
    20f0:	04000a37          	lui	s4,0x4000
    20f4:	01090913          	addi	s2,s2,16 # 4000010 <_stack_end+0x3ef6800>
    20f8:	0d048493          	addi	s1,s1,208 # 40000d0 <_stack_end+0x3ef68c0>
    20fc:	00200a93          	li	s5,2
    2100:	00092783          	lw	a5,0(s2)
    2104:	0077f713          	andi	a4,a5,7
    2108:	00ea0023          	sb	a4,0(s4) # 4000000 <_stack_end+0x3ef67f0>
    210c:	0004c703          	lbu	a4,0(s1)
    2110:	0077f793          	andi	a5,a5,7
    2114:	00177713          	andi	a4,a4,1
    2118:	02070863          	beqz	a4,2148 <lunch+0x120>
    211c:	02face63          	blt	s5,a5,2158 <lunch+0x130>
    2120:	04078063          	beqz	a5,2160 <lunch+0x138>
    2124:	01c12083          	lw	ra,28(sp)
    2128:	01812403          	lw	s0,24(sp)
    212c:	01412483          	lw	s1,20(sp)
    2130:	01012903          	lw	s2,16(sp)
    2134:	00c12983          	lw	s3,12(sp)
    2138:	00812a03          	lw	s4,8(sp)
    213c:	00412a83          	lw	s5,4(sp)
    2140:	02010113          	addi	sp,sp,32
    2144:	00008067          	ret
    2148:	00c42783          	lw	a5,12(s0)
    214c:	00178793          	addi	a5,a5,1
    2150:	00f42623          	sw	a5,12(s0)
    2154:	fadff06f          	j	2100 <lunch+0xd8>
    2158:	00400713          	li	a4,4
    215c:	fce784e3          	beq	a5,a4,2124 <lunch+0xfc>
    2160:	00004537          	lui	a0,0x4
    2164:	e2450513          	addi	a0,a0,-476 # 3e24 <c_energy+0x18>
    2168:	104010ef          	jal	326c <print>
    216c:	06400713          	li	a4,100
    2170:	000077b7          	lui	a5,0x7
    2174:	53078793          	addi	a5,a5,1328 # 7530 <__global_pointer+0x2f28>
    2178:	00000013          	nop
    217c:	fff78793          	addi	a5,a5,-1
    2180:	fe079ce3          	bnez	a5,2178 <lunch+0x150>
    2184:	fff70713          	addi	a4,a4,-1
    2188:	fe0714e3          	bnez	a4,2170 <lunch+0x148>
    218c:	e1898513          	addi	a0,s3,-488
    2190:	0dc010ef          	jal	326c <print>
    2194:	f6dff06f          	j	2100 <lunch+0xd8>
    2198:	00040513          	mv	a0,s0
    219c:	aadff0ef          	jal	1c48 <game_over>

000021a0 <morning_routine>:
    21a0:	00052783          	lw	a5,0(a0)
    21a4:	fe010113          	addi	sp,sp,-32
    21a8:	01312623          	sw	s3,12(sp)
    21ac:	00112e23          	sw	ra,28(sp)
    21b0:	00812c23          	sw	s0,24(sp)
    21b4:	00912a23          	sw	s1,20(sp)
    21b8:	01212823          	sw	s2,16(sp)
    21bc:	01412423          	sw	s4,8(sp)
    21c0:	00050993          	mv	s3,a0
    21c4:	1ef05e63          	blez	a5,23c0 <morning_routine+0x220>
    21c8:	00452783          	lw	a5,4(a0)
    21cc:	1ef05a63          	blez	a5,23c0 <morning_routine+0x220>
    21d0:	00004537          	lui	a0,0x4
    21d4:	e1050513          	addi	a0,a0,-496 # 3e10 <c_energy+0x4>
    21d8:	094010ef          	jal	326c <print>
    21dc:	00098513          	mv	a0,s3
    21e0:	00005437          	lui	s0,0x5
    21e4:	a74fe0ef          	jal	458 <print_status>
    21e8:	47040513          	addi	a0,s0,1136 # 5470 <__global_pointer+0xe68>
    21ec:	080010ef          	jal	326c <print>
    21f0:	47040513          	addi	a0,s0,1136
    21f4:	078010ef          	jal	326c <print>
    21f8:	00006537          	lui	a0,0x6
    21fc:	ea050513          	addi	a0,a0,-352 # 5ea0 <__global_pointer+0x1898>
    2200:	95cfe0ef          	jal	35c <pretty_print>
    2204:	00006537          	lui	a0,0x6
    2208:	ee050513          	addi	a0,a0,-288 # 5ee0 <__global_pointer+0x18d8>
    220c:	950fe0ef          	jal	35c <pretty_print>
    2210:	00006537          	lui	a0,0x6
    2214:	f0050513          	addi	a0,a0,-256 # 5f00 <__global_pointer+0x18f8>
    2218:	944fe0ef          	jal	35c <pretty_print>
    221c:	00006537          	lui	a0,0x6
    2220:	f5050513          	addi	a0,a0,-176 # 5f50 <__global_pointer+0x1948>
    2224:	938fe0ef          	jal	35c <pretty_print>
    2228:	00006537          	lui	a0,0x6
    222c:	f8450513          	addi	a0,a0,-124 # 5f84 <__global_pointer+0x197c>
    2230:	92cfe0ef          	jal	35c <pretty_print>
    2234:	47040513          	addi	a0,s0,1136
    2238:	034010ef          	jal	326c <print>
    223c:	47040513          	addi	a0,s0,1136
    2240:	02c010ef          	jal	326c <print>
    2244:	00006537          	lui	a0,0x6
    2248:	fb050513          	addi	a0,a0,-80 # 5fb0 <__global_pointer+0x19a8>
    224c:	020010ef          	jal	326c <print>
    2250:	00006537          	lui	a0,0x6
    2254:	fc450513          	addi	a0,a0,-60 # 5fc4 <__global_pointer+0x19bc>
    2258:	014010ef          	jal	326c <print>
    225c:	00006537          	lui	a0,0x6
    2260:	fd850513          	addi	a0,a0,-40 # 5fd8 <__global_pointer+0x19d0>
    2264:	008010ef          	jal	326c <print>
    2268:	00006537          	lui	a0,0x6
    226c:	fec50513          	addi	a0,a0,-20 # 5fec <__global_pointer+0x19e4>
    2270:	7fd000ef          	jal	326c <print>
    2274:	00006537          	lui	a0,0x6
    2278:	00050513          	mv	a0,a0
    227c:	7f1000ef          	jal	326c <print>
    2280:	00006537          	lui	a0,0x6
    2284:	01450513          	addi	a0,a0,20 # 6014 <__global_pointer+0x1a0c>
    2288:	7e5000ef          	jal	326c <print>
    228c:	00006537          	lui	a0,0x6
    2290:	02850513          	addi	a0,a0,40 # 6028 <__global_pointer+0x1a20>
    2294:	7d9000ef          	jal	326c <print>
    2298:	00006537          	lui	a0,0x6
    229c:	03c50513          	addi	a0,a0,60 # 603c <__global_pointer+0x1a34>
    22a0:	7cd000ef          	jal	326c <print>
    22a4:	00006537          	lui	a0,0x6
    22a8:	04c50513          	addi	a0,a0,76 # 604c <__global_pointer+0x1a44>
    22ac:	040004b7          	lui	s1,0x4000
    22b0:	04000437          	lui	s0,0x4000
    22b4:	7b9000ef          	jal	326c <print>
    22b8:	04000937          	lui	s2,0x4000
    22bc:	01048493          	addi	s1,s1,16 # 4000010 <_stack_end+0x3ef6800>
    22c0:	0d040413          	addi	s0,s0,208 # 40000d0 <_stack_end+0x3ef68c0>
    22c4:	00100a13          	li	s4,1
    22c8:	0004a783          	lw	a5,0(s1)
    22cc:	0037f713          	andi	a4,a5,3
    22d0:	00e90023          	sb	a4,0(s2) # 4000000 <_stack_end+0x3ef67f0>
    22d4:	00044703          	lbu	a4,0(s0)
    22d8:	0037f793          	andi	a5,a5,3
    22dc:	00177713          	andi	a4,a4,1
    22e0:	fe0704e3          	beqz	a4,22c8 <morning_routine+0x128>
    22e4:	09478c63          	beq	a5,s4,237c <morning_routine+0x1dc>
    22e8:	00200713          	li	a4,2
    22ec:	04e78063          	beq	a5,a4,232c <morning_routine+0x18c>
    22f0:	00004537          	lui	a0,0x4
    22f4:	e2450513          	addi	a0,a0,-476 # 3e24 <c_energy+0x18>
    22f8:	775000ef          	jal	326c <print>
    22fc:	06400713          	li	a4,100
    2300:	000077b7          	lui	a5,0x7
    2304:	53078793          	addi	a5,a5,1328 # 7530 <__global_pointer+0x2f28>
    2308:	00000013          	nop
    230c:	fff78793          	addi	a5,a5,-1
    2310:	fe079ce3          	bnez	a5,2308 <morning_routine+0x168>
    2314:	fff70713          	addi	a4,a4,-1
    2318:	fe0714e3          	bnez	a4,2300 <morning_routine+0x160>
    231c:	00004537          	lui	a0,0x4
    2320:	e1850513          	addi	a0,a0,-488 # 3e18 <c_energy+0xc>
    2324:	749000ef          	jal	326c <print>
    2328:	fa1ff06f          	j	22c8 <morning_routine+0x128>
    232c:	00006537          	lui	a0,0x6
    2330:	0f450513          	addi	a0,a0,244 # 60f4 <__global_pointer+0x1aec>
    2334:	828fe0ef          	jal	35c <pretty_print>
    2338:	0009a783          	lw	a5,0(s3)
    233c:	ffb78793          	addi	a5,a5,-5
    2340:	00f9a023          	sw	a5,0(s3)
    2344:	00006537          	lui	a0,0x6
    2348:	11450513          	addi	a0,a0,276 # 6114 <__global_pointer+0x1b0c>
    234c:	810fe0ef          	jal	35c <pretty_print>
    2350:	00c9a783          	lw	a5,12(s3)
    2354:	01c12083          	lw	ra,28(sp)
    2358:	01812403          	lw	s0,24(sp)
    235c:	00178793          	addi	a5,a5,1
    2360:	00f9a623          	sw	a5,12(s3)
    2364:	01412483          	lw	s1,20(sp)
    2368:	01012903          	lw	s2,16(sp)
    236c:	00c12983          	lw	s3,12(sp)
    2370:	00812a03          	lw	s4,8(sp)
    2374:	02010113          	addi	sp,sp,32
    2378:	00008067          	ret
    237c:	040007b7          	lui	a5,0x4000
    2380:	02079823          	sh	zero,48(a5) # 4000030 <_stack_end+0x3ef6820>
    2384:	0307d703          	lhu	a4,48(a5)
    2388:	00177793          	andi	a5,a4,1
    238c:	00078c63          	beqz	a5,23a4 <morning_routine+0x204>
    2390:	00006537          	lui	a0,0x6
    2394:	06050513          	addi	a0,a0,96 # 6060 <__global_pointer+0x1a58>
    2398:	fc5fd0ef          	jal	35c <pretty_print>
    239c:	0149a823          	sw	s4,16(s3)
    23a0:	fa5ff06f          	j	2344 <morning_routine+0x1a4>
    23a4:	00006537          	lui	a0,0x6
    23a8:	0a450513          	addi	a0,a0,164 # 60a4 <__global_pointer+0x1a9c>
    23ac:	fb1fd0ef          	jal	35c <pretty_print>
    23b0:	0009a783          	lw	a5,0(s3)
    23b4:	00a78793          	addi	a5,a5,10
    23b8:	00f9a023          	sw	a5,0(s3)
    23bc:	f89ff06f          	j	2344 <morning_routine+0x1a4>
    23c0:	00098513          	mv	a0,s3
    23c4:	885ff0ef          	jal	1c48 <game_over>

000023c8 <choose_outfit>:
    23c8:	00052783          	lw	a5,0(a0)
    23cc:	fd010113          	addi	sp,sp,-48
    23d0:	01312e23          	sw	s3,28(sp)
    23d4:	02112623          	sw	ra,44(sp)
    23d8:	02812423          	sw	s0,40(sp)
    23dc:	02912223          	sw	s1,36(sp)
    23e0:	03212023          	sw	s2,32(sp)
    23e4:	01412c23          	sw	s4,24(sp)
    23e8:	00050993          	mv	s3,a0
    23ec:	24f05063          	blez	a5,262c <choose_outfit+0x264>
    23f0:	00452783          	lw	a5,4(a0)
    23f4:	22f05c63          	blez	a5,262c <choose_outfit+0x264>
    23f8:	00004537          	lui	a0,0x4
    23fc:	e1050513          	addi	a0,a0,-496 # 3e10 <c_energy+0x4>
    2400:	66d000ef          	jal	326c <print>
    2404:	00098513          	mv	a0,s3
    2408:	00005437          	lui	s0,0x5
    240c:	84cfe0ef          	jal	458 <print_status>
    2410:	47040513          	addi	a0,s0,1136 # 5470 <__global_pointer+0xe68>
    2414:	659000ef          	jal	326c <print>
    2418:	47040513          	addi	a0,s0,1136
    241c:	651000ef          	jal	326c <print>
    2420:	00006537          	lui	a0,0x6
    2424:	14c50513          	addi	a0,a0,332 # 614c <__global_pointer+0x1b44>
    2428:	f35fd0ef          	jal	35c <pretty_print>
    242c:	00006537          	lui	a0,0x6
    2430:	17c50513          	addi	a0,a0,380 # 617c <__global_pointer+0x1b74>
    2434:	f29fd0ef          	jal	35c <pretty_print>
    2438:	00006537          	lui	a0,0x6
    243c:	1cc50513          	addi	a0,a0,460 # 61cc <__global_pointer+0x1bc4>
    2440:	f1dfd0ef          	jal	35c <pretty_print>
    2444:	00006537          	lui	a0,0x6
    2448:	21450513          	addi	a0,a0,532 # 6214 <__global_pointer+0x1c0c>
    244c:	f11fd0ef          	jal	35c <pretty_print>
    2450:	47040513          	addi	a0,s0,1136
    2454:	619000ef          	jal	326c <print>
    2458:	47040513          	addi	a0,s0,1136
    245c:	611000ef          	jal	326c <print>
    2460:	00006537          	lui	a0,0x6
    2464:	24450513          	addi	a0,a0,580 # 6244 <__global_pointer+0x1c3c>
    2468:	605000ef          	jal	326c <print>
    246c:	00006537          	lui	a0,0x6
    2470:	26850513          	addi	a0,a0,616 # 6268 <__global_pointer+0x1c60>
    2474:	5f9000ef          	jal	326c <print>
    2478:	00006537          	lui	a0,0x6
    247c:	28c50513          	addi	a0,a0,652 # 628c <__global_pointer+0x1c84>
    2480:	5ed000ef          	jal	326c <print>
    2484:	00006537          	lui	a0,0x6
    2488:	2b050513          	addi	a0,a0,688 # 62b0 <__global_pointer+0x1ca8>
    248c:	5e1000ef          	jal	326c <print>
    2490:	00006537          	lui	a0,0x6
    2494:	2e450513          	addi	a0,a0,740 # 62e4 <__global_pointer+0x1cdc>
    2498:	5d5000ef          	jal	326c <print>
    249c:	00006537          	lui	a0,0x6
    24a0:	31c50513          	addi	a0,a0,796 # 631c <__global_pointer+0x1d14>
    24a4:	5c9000ef          	jal	326c <print>
    24a8:	00006537          	lui	a0,0x6
    24ac:	35050513          	addi	a0,a0,848 # 6350 <__global_pointer+0x1d48>
    24b0:	5bd000ef          	jal	326c <print>
    24b4:	00006537          	lui	a0,0x6
    24b8:	38450513          	addi	a0,a0,900 # 6384 <__global_pointer+0x1d7c>
    24bc:	5b1000ef          	jal	326c <print>
    24c0:	00006537          	lui	a0,0x6
    24c4:	3b850513          	addi	a0,a0,952 # 63b8 <__global_pointer+0x1db0>
    24c8:	5a5000ef          	jal	326c <print>
    24cc:	00006537          	lui	a0,0x6
    24d0:	3ec50513          	addi	a0,a0,1004 # 63ec <__global_pointer+0x1de4>
    24d4:	599000ef          	jal	326c <print>
    24d8:	00006537          	lui	a0,0x6
    24dc:	42050513          	addi	a0,a0,1056 # 6420 <__global_pointer+0x1e18>
    24e0:	58d000ef          	jal	326c <print>
    24e4:	47040513          	addi	a0,s0,1136
    24e8:	585000ef          	jal	326c <print>
    24ec:	47040513          	addi	a0,s0,1136
    24f0:	040004b7          	lui	s1,0x4000
    24f4:	04000437          	lui	s0,0x4000
    24f8:	575000ef          	jal	326c <print>
    24fc:	04000937          	lui	s2,0x4000
    2500:	01048493          	addi	s1,s1,16 # 4000010 <_stack_end+0x3ef6800>
    2504:	0d040413          	addi	s0,s0,208 # 40000d0 <_stack_end+0x3ef68c0>
    2508:	00200a13          	li	s4,2
    250c:	0004a783          	lw	a5,0(s1)
    2510:	0077f713          	andi	a4,a5,7
    2514:	00e90023          	sb	a4,0(s2) # 4000000 <_stack_end+0x3ef67f0>
    2518:	00044703          	lbu	a4,0(s0)
    251c:	0077f793          	andi	a5,a5,7
    2520:	00177713          	andi	a4,a4,1
    2524:	fe0704e3          	beqz	a4,250c <choose_outfit+0x144>
    2528:	0d478863          	beq	a5,s4,25f8 <choose_outfit+0x230>
    252c:	00400713          	li	a4,4
    2530:	0ae78c63          	beq	a5,a4,25e8 <choose_outfit+0x220>
    2534:	00100713          	li	a4,1
    2538:	00f12623          	sw	a5,12(sp)
    253c:	04e78063          	beq	a5,a4,257c <choose_outfit+0x1b4>
    2540:	00004537          	lui	a0,0x4
    2544:	e2450513          	addi	a0,a0,-476 # 3e24 <c_energy+0x18>
    2548:	525000ef          	jal	326c <print>
    254c:	06400713          	li	a4,100
    2550:	000077b7          	lui	a5,0x7
    2554:	53078793          	addi	a5,a5,1328 # 7530 <__global_pointer+0x2f28>
    2558:	00000013          	nop
    255c:	fff78793          	addi	a5,a5,-1
    2560:	fe079ce3          	bnez	a5,2558 <choose_outfit+0x190>
    2564:	fff70713          	addi	a4,a4,-1
    2568:	fe0714e3          	bnez	a4,2550 <choose_outfit+0x188>
    256c:	00004537          	lui	a0,0x4
    2570:	e1850513          	addi	a0,a0,-488 # 3e18 <c_energy+0xc>
    2574:	4f9000ef          	jal	326c <print>
    2578:	f95ff06f          	j	250c <choose_outfit+0x144>
    257c:	00006537          	lui	a0,0x6
    2580:	45450513          	addi	a0,a0,1108 # 6454 <__global_pointer+0x1e4c>
    2584:	dd9fd0ef          	jal	35c <pretty_print>
    2588:	0089a703          	lw	a4,8(s3)
    258c:	00c12783          	lw	a5,12(sp)
    2590:	02f9ae23          	sw	a5,60(s3)
    2594:	00570793          	addi	a5,a4,5
    2598:	00f9a423          	sw	a5,8(s3)
    259c:	00c9a783          	lw	a5,12(s3)
    25a0:	00006537          	lui	a0,0x6
    25a4:	51850513          	addi	a0,a0,1304 # 6518 <__global_pointer+0x1f10>
    25a8:	00178793          	addi	a5,a5,1
    25ac:	00f9a623          	sw	a5,12(s3)
    25b0:	dadfd0ef          	jal	35c <pretty_print>
    25b4:	00006537          	lui	a0,0x6
    25b8:	56450513          	addi	a0,a0,1380 # 6564 <__global_pointer+0x1f5c>
    25bc:	da1fd0ef          	jal	35c <pretty_print>
    25c0:	02812403          	lw	s0,40(sp)
    25c4:	02c12083          	lw	ra,44(sp)
    25c8:	02412483          	lw	s1,36(sp)
    25cc:	02012903          	lw	s2,32(sp)
    25d0:	01c12983          	lw	s3,28(sp)
    25d4:	01812a03          	lw	s4,24(sp)
    25d8:	00006537          	lui	a0,0x6
    25dc:	5d450513          	addi	a0,a0,1492 # 65d4 <__global_pointer+0x1fcc>
    25e0:	03010113          	addi	sp,sp,48
    25e4:	d79fd06f          	j	35c <pretty_print>
    25e8:	00006537          	lui	a0,0x6
    25ec:	4dc50513          	addi	a0,a0,1244 # 64dc <__global_pointer+0x1ed4>
    25f0:	d6dfd0ef          	jal	35c <pretty_print>
    25f4:	fa9ff06f          	j	259c <choose_outfit+0x1d4>
    25f8:	00006537          	lui	a0,0x6
    25fc:	48050513          	addi	a0,a0,1152 # 6480 <__global_pointer+0x1e78>
    2600:	d5dfd0ef          	jal	35c <pretty_print>
    2604:	00006537          	lui	a0,0x6
    2608:	4b450513          	addi	a0,a0,1204 # 64b4 <__global_pointer+0x1eac>
    260c:	d51fd0ef          	jal	35c <pretty_print>
    2610:	0009a703          	lw	a4,0(s3)
    2614:	0089a783          	lw	a5,8(s3)
    2618:	00570713          	addi	a4,a4,5
    261c:	ffe78793          	addi	a5,a5,-2
    2620:	00e9a023          	sw	a4,0(s3)
    2624:	00f9a423          	sw	a5,8(s3)
    2628:	f75ff06f          	j	259c <choose_outfit+0x1d4>
    262c:	00098513          	mv	a0,s3
    2630:	e18ff0ef          	jal	1c48 <game_over>

00002634 <breakfast>:
    2634:	00052783          	lw	a5,0(a0)
    2638:	fd010113          	addi	sp,sp,-48
    263c:	01312e23          	sw	s3,28(sp)
    2640:	02112623          	sw	ra,44(sp)
    2644:	02812423          	sw	s0,40(sp)
    2648:	02912223          	sw	s1,36(sp)
    264c:	03212023          	sw	s2,32(sp)
    2650:	01412c23          	sw	s4,24(sp)
    2654:	00050993          	mv	s3,a0
    2658:	26f05063          	blez	a5,28b8 <breakfast+0x284>
    265c:	00452783          	lw	a5,4(a0)
    2660:	24f05c63          	blez	a5,28b8 <breakfast+0x284>
    2664:	00004537          	lui	a0,0x4
    2668:	e1050513          	addi	a0,a0,-496 # 3e10 <c_energy+0x4>
    266c:	401000ef          	jal	326c <print>
    2670:	00098513          	mv	a0,s3
    2674:	00005437          	lui	s0,0x5
    2678:	de1fd0ef          	jal	458 <print_status>
    267c:	47040513          	addi	a0,s0,1136 # 5470 <__global_pointer+0xe68>
    2680:	3ed000ef          	jal	326c <print>
    2684:	47040513          	addi	a0,s0,1136
    2688:	3e5000ef          	jal	326c <print>
    268c:	47040513          	addi	a0,s0,1136
    2690:	3dd000ef          	jal	326c <print>
    2694:	47040513          	addi	a0,s0,1136
    2698:	3d5000ef          	jal	326c <print>
    269c:	00006537          	lui	a0,0x6
    26a0:	62c50513          	addi	a0,a0,1580 # 662c <__global_pointer+0x2024>
    26a4:	cb9fd0ef          	jal	35c <pretty_print>
    26a8:	00006537          	lui	a0,0x6
    26ac:	65450513          	addi	a0,a0,1620 # 6654 <__global_pointer+0x204c>
    26b0:	cadfd0ef          	jal	35c <pretty_print>
    26b4:	00006537          	lui	a0,0x6
    26b8:	69450513          	addi	a0,a0,1684 # 6694 <__global_pointer+0x208c>
    26bc:	ca1fd0ef          	jal	35c <pretty_print>
    26c0:	00006537          	lui	a0,0x6
    26c4:	6e850513          	addi	a0,a0,1768 # 66e8 <__global_pointer+0x20e0>
    26c8:	00004437          	lui	s0,0x4
    26cc:	c91fd0ef          	jal	35c <pretty_print>
    26d0:	e8840513          	addi	a0,s0,-376 # 3e88 <c_energy+0x7c>
    26d4:	399000ef          	jal	326c <print>
    26d8:	e8840513          	addi	a0,s0,-376
    26dc:	391000ef          	jal	326c <print>
    26e0:	00006537          	lui	a0,0x6
    26e4:	73450513          	addi	a0,a0,1844 # 6734 <__global_pointer+0x212c>
    26e8:	385000ef          	jal	326c <print>
    26ec:	00006537          	lui	a0,0x6
    26f0:	79050513          	addi	a0,a0,1936 # 6790 <__global_pointer+0x2188>
    26f4:	000064b7          	lui	s1,0x6
    26f8:	375000ef          	jal	326c <print>
    26fc:	7ec48513          	addi	a0,s1,2028 # 67ec <__global_pointer+0x21e4>
    2700:	36d000ef          	jal	326c <print>
    2704:	00007537          	lui	a0,0x7
    2708:	84850513          	addi	a0,a0,-1976 # 6848 <__global_pointer+0x2240>
    270c:	361000ef          	jal	326c <print>
    2710:	00007537          	lui	a0,0x7
    2714:	8a450513          	addi	a0,a0,-1884 # 68a4 <__global_pointer+0x229c>
    2718:	355000ef          	jal	326c <print>
    271c:	00007537          	lui	a0,0x7
    2720:	90050513          	addi	a0,a0,-1792 # 6900 <__global_pointer+0x22f8>
    2724:	349000ef          	jal	326c <print>
    2728:	00007537          	lui	a0,0x7
    272c:	95c50513          	addi	a0,a0,-1700 # 695c <__global_pointer+0x2354>
    2730:	33d000ef          	jal	326c <print>
    2734:	7ec48513          	addi	a0,s1,2028
    2738:	335000ef          	jal	326c <print>
    273c:	7ec48513          	addi	a0,s1,2028
    2740:	32d000ef          	jal	326c <print>
    2744:	00007537          	lui	a0,0x7
    2748:	9b850513          	addi	a0,a0,-1608 # 69b8 <__global_pointer+0x23b0>
    274c:	321000ef          	jal	326c <print>
    2750:	e8840513          	addi	a0,s0,-376
    2754:	319000ef          	jal	326c <print>
    2758:	e8840513          	addi	a0,s0,-376
    275c:	040004b7          	lui	s1,0x4000
    2760:	04000437          	lui	s0,0x4000
    2764:	309000ef          	jal	326c <print>
    2768:	04000937          	lui	s2,0x4000
    276c:	01048493          	addi	s1,s1,16 # 4000010 <_stack_end+0x3ef6800>
    2770:	0d040413          	addi	s0,s0,208 # 40000d0 <_stack_end+0x3ef68c0>
    2774:	00200a13          	li	s4,2
    2778:	0004a783          	lw	a5,0(s1)
    277c:	0077f713          	andi	a4,a5,7
    2780:	00e90023          	sb	a4,0(s2) # 4000000 <_stack_end+0x3ef67f0>
    2784:	00044703          	lbu	a4,0(s0)
    2788:	0077f793          	andi	a5,a5,7
    278c:	00177713          	andi	a4,a4,1
    2790:	fe0704e3          	beqz	a4,2778 <breakfast+0x144>
    2794:	0f478863          	beq	a5,s4,2884 <breakfast+0x250>
    2798:	00400713          	li	a4,4
    279c:	0ae78c63          	beq	a5,a4,2854 <breakfast+0x220>
    27a0:	00100713          	li	a4,1
    27a4:	00f12623          	sw	a5,12(sp)
    27a8:	04e78063          	beq	a5,a4,27e8 <breakfast+0x1b4>
    27ac:	00004537          	lui	a0,0x4
    27b0:	e2450513          	addi	a0,a0,-476 # 3e24 <c_energy+0x18>
    27b4:	2b9000ef          	jal	326c <print>
    27b8:	06400713          	li	a4,100
    27bc:	000077b7          	lui	a5,0x7
    27c0:	53078793          	addi	a5,a5,1328 # 7530 <__global_pointer+0x2f28>
    27c4:	00000013          	nop
    27c8:	fff78793          	addi	a5,a5,-1
    27cc:	fe079ce3          	bnez	a5,27c4 <breakfast+0x190>
    27d0:	fff70713          	addi	a4,a4,-1
    27d4:	fe0714e3          	bnez	a4,27bc <breakfast+0x188>
    27d8:	00004537          	lui	a0,0x4
    27dc:	e1850513          	addi	a0,a0,-488 # 3e18 <c_energy+0xc>
    27e0:	28d000ef          	jal	326c <print>
    27e4:	f95ff06f          	j	2778 <breakfast+0x144>
    27e8:	00007537          	lui	a0,0x7
    27ec:	a1450513          	addi	a0,a0,-1516 # 6a14 <__global_pointer+0x240c>
    27f0:	b6dfd0ef          	jal	35c <pretty_print>
    27f4:	0009a683          	lw	a3,0(s3)
    27f8:	0049a703          	lw	a4,4(s3)
    27fc:	00c12783          	lw	a5,12(sp)
    2800:	00a68693          	addi	a3,a3,10
    2804:	00d9a023          	sw	a3,0(s3)
    2808:	00f9ae23          	sw	a5,28(s3)
    280c:	ffb70793          	addi	a5,a4,-5
    2810:	00f9a223          	sw	a5,4(s3)
    2814:	00c9a783          	lw	a5,12(s3)
    2818:	00007537          	lui	a0,0x7
    281c:	adc50513          	addi	a0,a0,-1316 # 6adc <__global_pointer+0x24d4>
    2820:	00178793          	addi	a5,a5,1
    2824:	00f9a623          	sw	a5,12(s3)
    2828:	b35fd0ef          	jal	35c <pretty_print>
    282c:	02812403          	lw	s0,40(sp)
    2830:	02c12083          	lw	ra,44(sp)
    2834:	02412483          	lw	s1,36(sp)
    2838:	02012903          	lw	s2,32(sp)
    283c:	01c12983          	lw	s3,28(sp)
    2840:	01812a03          	lw	s4,24(sp)
    2844:	00007537          	lui	a0,0x7
    2848:	b2c50513          	addi	a0,a0,-1236 # 6b2c <__global_pointer+0x2524>
    284c:	03010113          	addi	sp,sp,48
    2850:	b0dfd06f          	j	35c <pretty_print>
    2854:	00007537          	lui	a0,0x7
    2858:	a7c50513          	addi	a0,a0,-1412 # 6a7c <__global_pointer+0x2474>
    285c:	b01fd0ef          	jal	35c <pretty_print>
    2860:	00007537          	lui	a0,0x7
    2864:	aa850513          	addi	a0,a0,-1368 # 6aa8 <__global_pointer+0x24a0>
    2868:	af5fd0ef          	jal	35c <pretty_print>
    286c:	0009a783          	lw	a5,0(s3)
    2870:	00100713          	li	a4,1
    2874:	00e9ac23          	sw	a4,24(s3)
    2878:	00378793          	addi	a5,a5,3
    287c:	00f9a023          	sw	a5,0(s3)
    2880:	f95ff06f          	j	2814 <breakfast+0x1e0>
    2884:	00007537          	lui	a0,0x7
    2888:	a4850513          	addi	a0,a0,-1464 # 6a48 <__global_pointer+0x2440>
    288c:	ad1fd0ef          	jal	35c <pretty_print>
    2890:	0009a683          	lw	a3,0(s3)
    2894:	0049a703          	lw	a4,4(s3)
    2898:	0089a783          	lw	a5,8(s3)
    289c:	00568693          	addi	a3,a3,5
    28a0:	ff670713          	addi	a4,a4,-10
    28a4:	00278793          	addi	a5,a5,2
    28a8:	00d9a023          	sw	a3,0(s3)
    28ac:	00e9a223          	sw	a4,4(s3)
    28b0:	00f9a423          	sw	a5,8(s3)
    28b4:	f61ff06f          	j	2814 <breakfast+0x1e0>
    28b8:	00098513          	mv	a0,s3
    28bc:	b8cff0ef          	jal	1c48 <game_over>

000028c0 <toilet>:
    28c0:	00052783          	lw	a5,0(a0)
    28c4:	fe010113          	addi	sp,sp,-32
    28c8:	00812c23          	sw	s0,24(sp)
    28cc:	00112e23          	sw	ra,28(sp)
    28d0:	00912a23          	sw	s1,20(sp)
    28d4:	01212823          	sw	s2,16(sp)
    28d8:	01312623          	sw	s3,12(sp)
    28dc:	01412423          	sw	s4,8(sp)
    28e0:	00050413          	mv	s0,a0
    28e4:	34f05263          	blez	a5,2c28 <toilet+0x368>
    28e8:	00452783          	lw	a5,4(a0)
    28ec:	32f05e63          	blez	a5,2c28 <toilet+0x368>
    28f0:	00004537          	lui	a0,0x4
    28f4:	e1050513          	addi	a0,a0,-496 # 3e10 <c_energy+0x4>
    28f8:	175000ef          	jal	326c <print>
    28fc:	00040513          	mv	a0,s0
    2900:	b59fd0ef          	jal	458 <print_status>
    2904:	000054b7          	lui	s1,0x5
    2908:	47048513          	addi	a0,s1,1136 # 5470 <__global_pointer+0xe68>
    290c:	161000ef          	jal	326c <print>
    2910:	47048513          	addi	a0,s1,1136
    2914:	159000ef          	jal	326c <print>
    2918:	00007537          	lui	a0,0x7
    291c:	b6c50513          	addi	a0,a0,-1172 # 6b6c <__global_pointer+0x2564>
    2920:	14d000ef          	jal	326c <print>
    2924:	00007537          	lui	a0,0x7
    2928:	b7c50513          	addi	a0,a0,-1156 # 6b7c <__global_pointer+0x2574>
    292c:	141000ef          	jal	326c <print>
    2930:	00007537          	lui	a0,0x7
    2934:	b8c50513          	addi	a0,a0,-1140 # 6b8c <__global_pointer+0x2584>
    2938:	135000ef          	jal	326c <print>
    293c:	00007537          	lui	a0,0x7
    2940:	ba050513          	addi	a0,a0,-1120 # 6ba0 <__global_pointer+0x2598>
    2944:	129000ef          	jal	326c <print>
    2948:	00007537          	lui	a0,0x7
    294c:	bc050513          	addi	a0,a0,-1088 # 6bc0 <__global_pointer+0x25b8>
    2950:	11d000ef          	jal	326c <print>
    2954:	00007537          	lui	a0,0x7
    2958:	be050513          	addi	a0,a0,-1056 # 6be0 <__global_pointer+0x25d8>
    295c:	111000ef          	jal	326c <print>
    2960:	00007537          	lui	a0,0x7
    2964:	c0050513          	addi	a0,a0,-1024 # 6c00 <__global_pointer+0x25f8>
    2968:	105000ef          	jal	326c <print>
    296c:	00007537          	lui	a0,0x7
    2970:	c2450513          	addi	a0,a0,-988 # 6c24 <__global_pointer+0x261c>
    2974:	0f9000ef          	jal	326c <print>
    2978:	00007537          	lui	a0,0x7
    297c:	c4450513          	addi	a0,a0,-956 # 6c44 <__global_pointer+0x263c>
    2980:	0ed000ef          	jal	326c <print>
    2984:	00007537          	lui	a0,0x7
    2988:	c6450513          	addi	a0,a0,-924 # 6c64 <__global_pointer+0x265c>
    298c:	0e1000ef          	jal	326c <print>
    2990:	00007537          	lui	a0,0x7
    2994:	c8450513          	addi	a0,a0,-892 # 6c84 <__global_pointer+0x267c>
    2998:	0d5000ef          	jal	326c <print>
    299c:	00007537          	lui	a0,0x7
    29a0:	ca450513          	addi	a0,a0,-860 # 6ca4 <__global_pointer+0x269c>
    29a4:	0c9000ef          	jal	326c <print>
    29a8:	00007537          	lui	a0,0x7
    29ac:	cc450513          	addi	a0,a0,-828 # 6cc4 <__global_pointer+0x26bc>
    29b0:	0bd000ef          	jal	326c <print>
    29b4:	00007537          	lui	a0,0x7
    29b8:	ce450513          	addi	a0,a0,-796 # 6ce4 <__global_pointer+0x26dc>
    29bc:	0b1000ef          	jal	326c <print>
    29c0:	00007537          	lui	a0,0x7
    29c4:	d0050513          	addi	a0,a0,-768 # 6d00 <__global_pointer+0x26f8>
    29c8:	0a5000ef          	jal	326c <print>
    29cc:	00007537          	lui	a0,0x7
    29d0:	d1850513          	addi	a0,a0,-744 # 6d18 <__global_pointer+0x2710>
    29d4:	099000ef          	jal	326c <print>
    29d8:	00007537          	lui	a0,0x7
    29dc:	d3050513          	addi	a0,a0,-720 # 6d30 <__global_pointer+0x2728>
    29e0:	08d000ef          	jal	326c <print>
    29e4:	00007537          	lui	a0,0x7
    29e8:	d4450513          	addi	a0,a0,-700 # 6d44 <__global_pointer+0x273c>
    29ec:	081000ef          	jal	326c <print>
    29f0:	00007537          	lui	a0,0x7
    29f4:	d6450513          	addi	a0,a0,-668 # 6d64 <__global_pointer+0x275c>
    29f8:	075000ef          	jal	326c <print>
    29fc:	00007537          	lui	a0,0x7
    2a00:	d7c50513          	addi	a0,a0,-644 # 6d7c <__global_pointer+0x2774>
    2a04:	069000ef          	jal	326c <print>
    2a08:	00007537          	lui	a0,0x7
    2a0c:	d9450513          	addi	a0,a0,-620 # 6d94 <__global_pointer+0x278c>
    2a10:	94dfd0ef          	jal	35c <pretty_print>
    2a14:	00007537          	lui	a0,0x7
    2a18:	dbc50513          	addi	a0,a0,-580 # 6dbc <__global_pointer+0x27b4>
    2a1c:	941fd0ef          	jal	35c <pretty_print>
    2a20:	00007537          	lui	a0,0x7
    2a24:	dd050513          	addi	a0,a0,-560 # 6dd0 <__global_pointer+0x27c8>
    2a28:	935fd0ef          	jal	35c <pretty_print>
    2a2c:	00007537          	lui	a0,0x7
    2a30:	e0c50513          	addi	a0,a0,-500 # 6e0c <__global_pointer+0x2804>
    2a34:	929fd0ef          	jal	35c <pretty_print>
    2a38:	02442703          	lw	a4,36(s0)
    2a3c:	00100793          	li	a5,1
    2a40:	1cf70063          	beq	a4,a5,2c00 <toilet+0x340>
    2a44:	04000937          	lui	s2,0x4000
    2a48:	040004b7          	lui	s1,0x4000
    2a4c:	040009b7          	lui	s3,0x4000
    2a50:	01090913          	addi	s2,s2,16 # 4000010 <_stack_end+0x3ef6800>
    2a54:	0d048493          	addi	s1,s1,208 # 40000d0 <_stack_end+0x3ef68c0>
    2a58:	00200a13          	li	s4,2
    2a5c:	00092783          	lw	a5,0(s2)
    2a60:	0077f713          	andi	a4,a5,7
    2a64:	00e98023          	sb	a4,0(s3) # 4000000 <_stack_end+0x3ef67f0>
    2a68:	0004c703          	lbu	a4,0(s1)
    2a6c:	0077f793          	andi	a5,a5,7
    2a70:	00177713          	andi	a4,a4,1
    2a74:	06070863          	beqz	a4,2ae4 <toilet+0x224>
    2a78:	13478063          	beq	a5,s4,2b98 <toilet+0x2d8>
    2a7c:	00400713          	li	a4,4
    2a80:	0ae78863          	beq	a5,a4,2b30 <toilet+0x270>
    2a84:	00100713          	li	a4,1
    2a88:	06e79663          	bne	a5,a4,2af4 <toilet+0x234>
    2a8c:	00007537          	lui	a0,0x7
    2a90:	e9c50513          	addi	a0,a0,-356 # 6e9c <__global_pointer+0x2894>
    2a94:	8c9fd0ef          	jal	35c <pretty_print>
    2a98:	00007537          	lui	a0,0x7
    2a9c:	ed050513          	addi	a0,a0,-304 # 6ed0 <__global_pointer+0x28c8>
    2aa0:	8bdfd0ef          	jal	35c <pretty_print>
    2aa4:	040007b7          	lui	a5,0x4000
    2aa8:	02079823          	sh	zero,48(a5) # 4000030 <_stack_end+0x3ef6820>
    2aac:	0307d703          	lhu	a4,48(a5)
    2ab0:	00177793          	andi	a5,a4,1
    2ab4:	14079e63          	bnez	a5,2c10 <toilet+0x350>
    2ab8:	00842783          	lw	a5,8(s0)
    2abc:	ffe78793          	addi	a5,a5,-2
    2ac0:	01c12083          	lw	ra,28(sp)
    2ac4:	00f42423          	sw	a5,8(s0)
    2ac8:	01812403          	lw	s0,24(sp)
    2acc:	01412483          	lw	s1,20(sp)
    2ad0:	01012903          	lw	s2,16(sp)
    2ad4:	00c12983          	lw	s3,12(sp)
    2ad8:	00812a03          	lw	s4,8(sp)
    2adc:	02010113          	addi	sp,sp,32
    2ae0:	00008067          	ret
    2ae4:	00c42783          	lw	a5,12(s0)
    2ae8:	00178793          	addi	a5,a5,1
    2aec:	00f42623          	sw	a5,12(s0)
    2af0:	f6dff06f          	j	2a5c <toilet+0x19c>
    2af4:	00004537          	lui	a0,0x4
    2af8:	e2450513          	addi	a0,a0,-476 # 3e24 <c_energy+0x18>
    2afc:	770000ef          	jal	326c <print>
    2b00:	06400713          	li	a4,100
    2b04:	000077b7          	lui	a5,0x7
    2b08:	53078793          	addi	a5,a5,1328 # 7530 <__global_pointer+0x2f28>
    2b0c:	00000013          	nop
    2b10:	fff78793          	addi	a5,a5,-1
    2b14:	fe079ce3          	bnez	a5,2b0c <toilet+0x24c>
    2b18:	fff70713          	addi	a4,a4,-1
    2b1c:	fe0714e3          	bnez	a4,2b04 <toilet+0x244>
    2b20:	00004537          	lui	a0,0x4
    2b24:	e1850513          	addi	a0,a0,-488 # 3e18 <c_energy+0xc>
    2b28:	744000ef          	jal	326c <print>
    2b2c:	f31ff06f          	j	2a5c <toilet+0x19c>
    2b30:	00007537          	lui	a0,0x7
    2b34:	ff450513          	addi	a0,a0,-12 # 6ff4 <__global_pointer+0x29ec>
    2b38:	825fd0ef          	jal	35c <pretty_print>
    2b3c:	00007537          	lui	a0,0x7
    2b40:	01850513          	addi	a0,a0,24 # 7018 <__global_pointer+0x2a10>
    2b44:	819fd0ef          	jal	35c <pretty_print>
    2b48:	00007537          	lui	a0,0x7
    2b4c:	03c50513          	addi	a0,a0,60 # 703c <__global_pointer+0x2a34>
    2b50:	80dfd0ef          	jal	35c <pretty_print>
    2b54:	00007537          	lui	a0,0x7
    2b58:	05450513          	addi	a0,a0,84 # 7054 <__global_pointer+0x2a4c>
    2b5c:	801fd0ef          	jal	35c <pretty_print>
    2b60:	00007537          	lui	a0,0x7
    2b64:	09050513          	addi	a0,a0,144 # 7090 <__global_pointer+0x2a88>
    2b68:	ff4fd0ef          	jal	35c <pretty_print>
    2b6c:	00042783          	lw	a5,0(s0)
    2b70:	01c12083          	lw	ra,28(sp)
    2b74:	01412483          	lw	s1,20(sp)
    2b78:	00a78793          	addi	a5,a5,10
    2b7c:	00f42023          	sw	a5,0(s0)
    2b80:	01812403          	lw	s0,24(sp)
    2b84:	01012903          	lw	s2,16(sp)
    2b88:	00c12983          	lw	s3,12(sp)
    2b8c:	00812a03          	lw	s4,8(sp)
    2b90:	02010113          	addi	sp,sp,32
    2b94:	00008067          	ret
    2b98:	00007537          	lui	a0,0x7
    2b9c:	f5850513          	addi	a0,a0,-168 # 6f58 <__global_pointer+0x2950>
    2ba0:	fbcfd0ef          	jal	35c <pretty_print>
    2ba4:	00007537          	lui	a0,0x7
    2ba8:	f7c50513          	addi	a0,a0,-132 # 6f7c <__global_pointer+0x2974>
    2bac:	fb0fd0ef          	jal	35c <pretty_print>
    2bb0:	00007537          	lui	a0,0x7
    2bb4:	fa850513          	addi	a0,a0,-88 # 6fa8 <__global_pointer+0x29a0>
    2bb8:	fa4fd0ef          	jal	35c <pretty_print>
    2bbc:	00007537          	lui	a0,0x7
    2bc0:	fd450513          	addi	a0,a0,-44 # 6fd4 <__global_pointer+0x29cc>
    2bc4:	f98fd0ef          	jal	35c <pretty_print>
    2bc8:	00842703          	lw	a4,8(s0)
    2bcc:	00042783          	lw	a5,0(s0)
    2bd0:	01c12083          	lw	ra,28(sp)
    2bd4:	00570713          	addi	a4,a4,5
    2bd8:	ffc78793          	addi	a5,a5,-4
    2bdc:	00e42423          	sw	a4,8(s0)
    2be0:	00f42023          	sw	a5,0(s0)
    2be4:	01812403          	lw	s0,24(sp)
    2be8:	01412483          	lw	s1,20(sp)
    2bec:	01012903          	lw	s2,16(sp)
    2bf0:	00c12983          	lw	s3,12(sp)
    2bf4:	00812a03          	lw	s4,8(sp)
    2bf8:	02010113          	addi	sp,sp,32
    2bfc:	00008067          	ret
    2c00:	00007537          	lui	a0,0x7
    2c04:	e5850513          	addi	a0,a0,-424 # 6e58 <__global_pointer+0x2850>
    2c08:	f54fd0ef          	jal	35c <pretty_print>
    2c0c:	e39ff06f          	j	2a44 <toilet+0x184>
    2c10:	00007537          	lui	a0,0x7
    2c14:	f1050513          	addi	a0,a0,-240 # 6f10 <__global_pointer+0x2908>
    2c18:	f44fd0ef          	jal	35c <pretty_print>
    2c1c:	00842783          	lw	a5,8(s0)
    2c20:	ffb78793          	addi	a5,a5,-5
    2c24:	e99ff06f          	j	2abc <toilet+0x1fc>
    2c28:	00040513          	mv	a0,s0
    2c2c:	81cff0ef          	jal	1c48 <game_over>

00002c30 <desk>:
    2c30:	01852783          	lw	a5,24(a0)
    2c34:	fe010113          	addi	sp,sp,-32
    2c38:	01312623          	sw	s3,12(sp)
    2c3c:	00112e23          	sw	ra,28(sp)
    2c40:	00812c23          	sw	s0,24(sp)
    2c44:	00912a23          	sw	s1,20(sp)
    2c48:	01212823          	sw	s2,16(sp)
    2c4c:	01412423          	sw	s4,8(sp)
    2c50:	00050993          	mv	s3,a0
    2c54:	30079063          	bnez	a5,2f54 <desk+0x324>
    2c58:	0009a783          	lw	a5,0(s3)
    2c5c:	50f05463          	blez	a5,3164 <desk+0x534>
    2c60:	0049a783          	lw	a5,4(s3)
    2c64:	50f05063          	blez	a5,3164 <desk+0x534>
    2c68:	00004537          	lui	a0,0x4
    2c6c:	e1050513          	addi	a0,a0,-496 # 3e10 <c_energy+0x4>
    2c70:	5fc000ef          	jal	326c <print>
    2c74:	00098513          	mv	a0,s3
    2c78:	00005437          	lui	s0,0x5
    2c7c:	fdcfd0ef          	jal	458 <print_status>
    2c80:	47040513          	addi	a0,s0,1136 # 5470 <__global_pointer+0xe68>
    2c84:	5e8000ef          	jal	326c <print>
    2c88:	47040513          	addi	a0,s0,1136
    2c8c:	5e0000ef          	jal	326c <print>
    2c90:	47040513          	addi	a0,s0,1136
    2c94:	5d8000ef          	jal	326c <print>
    2c98:	47040513          	addi	a0,s0,1136
    2c9c:	5d0000ef          	jal	326c <print>
    2ca0:	00007537          	lui	a0,0x7
    2ca4:	24050513          	addi	a0,a0,576 # 7240 <__global_pointer+0x2c38>
    2ca8:	eb4fd0ef          	jal	35c <pretty_print>
    2cac:	00007537          	lui	a0,0x7
    2cb0:	28450513          	addi	a0,a0,644 # 7284 <__global_pointer+0x2c7c>
    2cb4:	5b8000ef          	jal	326c <print>
    2cb8:	00007537          	lui	a0,0x7
    2cbc:	2cc50513          	addi	a0,a0,716 # 72cc <__global_pointer+0x2cc4>
    2cc0:	5ac000ef          	jal	326c <print>
    2cc4:	00007537          	lui	a0,0x7
    2cc8:	31450513          	addi	a0,a0,788 # 7314 <__global_pointer+0x2d0c>
    2ccc:	5a0000ef          	jal	326c <print>
    2cd0:	00007537          	lui	a0,0x7
    2cd4:	35c50513          	addi	a0,a0,860 # 735c <__global_pointer+0x2d54>
    2cd8:	594000ef          	jal	326c <print>
    2cdc:	00007537          	lui	a0,0x7
    2ce0:	3a850513          	addi	a0,a0,936 # 73a8 <__global_pointer+0x2da0>
    2ce4:	588000ef          	jal	326c <print>
    2ce8:	00007537          	lui	a0,0x7
    2cec:	3f050513          	addi	a0,a0,1008 # 73f0 <__global_pointer+0x2de8>
    2cf0:	57c000ef          	jal	326c <print>
    2cf4:	00007537          	lui	a0,0x7
    2cf8:	43850513          	addi	a0,a0,1080 # 7438 <__global_pointer+0x2e30>
    2cfc:	570000ef          	jal	326c <print>
    2d00:	00007537          	lui	a0,0x7
    2d04:	48050513          	addi	a0,a0,1152 # 7480 <__global_pointer+0x2e78>
    2d08:	564000ef          	jal	326c <print>
    2d0c:	00007537          	lui	a0,0x7
    2d10:	4c850513          	addi	a0,a0,1224 # 74c8 <__global_pointer+0x2ec0>
    2d14:	558000ef          	jal	326c <print>
    2d18:	00007537          	lui	a0,0x7
    2d1c:	4fc50513          	addi	a0,a0,1276 # 74fc <__global_pointer+0x2ef4>
    2d20:	54c000ef          	jal	326c <print>
    2d24:	00007537          	lui	a0,0x7
    2d28:	54050513          	addi	a0,a0,1344 # 7540 <__global_pointer+0x2f38>
    2d2c:	540000ef          	jal	326c <print>
    2d30:	00007537          	lui	a0,0x7
    2d34:	58850513          	addi	a0,a0,1416 # 7588 <__global_pointer+0x2f80>
    2d38:	534000ef          	jal	326c <print>
    2d3c:	47040513          	addi	a0,s0,1136
    2d40:	52c000ef          	jal	326c <print>
    2d44:	47040513          	addi	a0,s0,1136
    2d48:	524000ef          	jal	326c <print>
    2d4c:	00007537          	lui	a0,0x7
    2d50:	5d450513          	addi	a0,a0,1492 # 75d4 <__global_pointer+0x2fcc>
    2d54:	e08fd0ef          	jal	35c <pretty_print>
    2d58:	00007537          	lui	a0,0x7
    2d5c:	5fc50513          	addi	a0,a0,1532 # 75fc <__global_pointer+0x2ff4>
    2d60:	dfcfd0ef          	jal	35c <pretty_print>
    2d64:	00007537          	lui	a0,0x7
    2d68:	62c50513          	addi	a0,a0,1580 # 762c <__global_pointer+0x3024>
    2d6c:	040004b7          	lui	s1,0x4000
    2d70:	04000437          	lui	s0,0x4000
    2d74:	de8fd0ef          	jal	35c <pretty_print>
    2d78:	04000937          	lui	s2,0x4000
    2d7c:	01048493          	addi	s1,s1,16 # 4000010 <_stack_end+0x3ef6800>
    2d80:	0d040413          	addi	s0,s0,208 # 40000d0 <_stack_end+0x3ef68c0>
    2d84:	00200a13          	li	s4,2
    2d88:	0004a783          	lw	a5,0(s1)
    2d8c:	0077f713          	andi	a4,a5,7
    2d90:	00e90023          	sb	a4,0(s2) # 4000000 <_stack_end+0x3ef67f0>
    2d94:	00044703          	lbu	a4,0(s0)
    2d98:	0077f793          	andi	a5,a5,7
    2d9c:	00177713          	andi	a4,a4,1
    2da0:	fe0704e3          	beqz	a4,2d88 <desk+0x158>
    2da4:	11478463          	beq	a5,s4,2eac <desk+0x27c>
    2da8:	00400713          	li	a4,4
    2dac:	0ae78663          	beq	a5,a4,2e58 <desk+0x228>
    2db0:	00100713          	li	a4,1
    2db4:	04e78063          	beq	a5,a4,2df4 <desk+0x1c4>
    2db8:	00004537          	lui	a0,0x4
    2dbc:	e2450513          	addi	a0,a0,-476 # 3e24 <c_energy+0x18>
    2dc0:	4ac000ef          	jal	326c <print>
    2dc4:	06400713          	li	a4,100
    2dc8:	000077b7          	lui	a5,0x7
    2dcc:	53078793          	addi	a5,a5,1328 # 7530 <__global_pointer+0x2f28>
    2dd0:	00000013          	nop
    2dd4:	fff78793          	addi	a5,a5,-1
    2dd8:	fe079ce3          	bnez	a5,2dd0 <desk+0x1a0>
    2ddc:	fff70713          	addi	a4,a4,-1
    2de0:	fe0714e3          	bnez	a4,2dc8 <desk+0x198>
    2de4:	00004537          	lui	a0,0x4
    2de8:	e1850513          	addi	a0,a0,-488 # 3e18 <c_energy+0xc>
    2dec:	480000ef          	jal	326c <print>
    2df0:	f99ff06f          	j	2d88 <desk+0x158>
    2df4:	0289a783          	lw	a5,40(s3)
    2df8:	30079c63          	bnez	a5,3110 <desk+0x4e0>
    2dfc:	03c9a783          	lw	a5,60(s3)
    2e00:	20078263          	beqz	a5,3004 <desk+0x3d4>
    2e04:	00007537          	lui	a0,0x7
    2e08:	70450513          	addi	a0,a0,1796 # 7704 <__global_pointer+0x30fc>
    2e0c:	d50fd0ef          	jal	35c <pretty_print>
    2e10:	01400713          	li	a4,20
    2e14:	000077b7          	lui	a5,0x7
    2e18:	53078793          	addi	a5,a5,1328 # 7530 <__global_pointer+0x2f28>
    2e1c:	00000013          	nop
    2e20:	fff78793          	addi	a5,a5,-1
    2e24:	fe079ce3          	bnez	a5,2e1c <desk+0x1ec>
    2e28:	fff70713          	addi	a4,a4,-1
    2e2c:	fe0714e3          	bnez	a4,2e14 <desk+0x1e4>
    2e30:	00007537          	lui	a0,0x7
    2e34:	72c50513          	addi	a0,a0,1836 # 772c <__global_pointer+0x3124>
    2e38:	d24fd0ef          	jal	35c <pretty_print>
    2e3c:	00007537          	lui	a0,0x7
    2e40:	74c50513          	addi	a0,a0,1868 # 774c <__global_pointer+0x3144>
    2e44:	d18fd0ef          	jal	35c <pretty_print>
    2e48:	0049a783          	lw	a5,4(s3)
    2e4c:	06478793          	addi	a5,a5,100
    2e50:	00f9a223          	sw	a5,4(s3)
    2e54:	0240006f          	j	2e78 <desk+0x248>
    2e58:	00008537          	lui	a0,0x8
    2e5c:	9e450513          	addi	a0,a0,-1564 # 79e4 <__global_pointer+0x33dc>
    2e60:	cfcfd0ef          	jal	35c <pretty_print>
    2e64:	00008537          	lui	a0,0x8
    2e68:	a1450513          	addi	a0,a0,-1516 # 7a14 <__global_pointer+0x340c>
    2e6c:	cf0fd0ef          	jal	35c <pretty_print>
    2e70:	00100793          	li	a5,1
    2e74:	00f9aa23          	sw	a5,20(s3)
    2e78:	00c9a783          	lw	a5,12(s3)
    2e7c:	01812403          	lw	s0,24(sp)
    2e80:	01c12083          	lw	ra,28(sp)
    2e84:	00178793          	addi	a5,a5,1
    2e88:	01412483          	lw	s1,20(sp)
    2e8c:	01012903          	lw	s2,16(sp)
    2e90:	00812a03          	lw	s4,8(sp)
    2e94:	00f9a623          	sw	a5,12(s3)
    2e98:	00c12983          	lw	s3,12(sp)
    2e9c:	00008537          	lui	a0,0x8
    2ea0:	a4c50513          	addi	a0,a0,-1460 # 7a4c <__global_pointer+0x3444>
    2ea4:	02010113          	addi	sp,sp,32
    2ea8:	cb4fd06f          	j	35c <pretty_print>
    2eac:	00008537          	lui	a0,0x8
    2eb0:	8cc50513          	addi	a0,a0,-1844 # 78cc <__global_pointer+0x32c4>
    2eb4:	ca8fd0ef          	jal	35c <pretty_print>
    2eb8:	00008537          	lui	a0,0x8
    2ebc:	91850513          	addi	a0,a0,-1768 # 7918 <__global_pointer+0x3310>
    2ec0:	c9cfd0ef          	jal	35c <pretty_print>
    2ec4:	00008537          	lui	a0,0x8
    2ec8:	94850513          	addi	a0,a0,-1720 # 7948 <__global_pointer+0x3340>
    2ecc:	c90fd0ef          	jal	35c <pretty_print>
    2ed0:	00008537          	lui	a0,0x8
    2ed4:	97c50513          	addi	a0,a0,-1668 # 797c <__global_pointer+0x3374>
    2ed8:	394000ef          	jal	326c <print>
    2edc:	00500713          	li	a4,5
    2ee0:	000077b7          	lui	a5,0x7
    2ee4:	53078793          	addi	a5,a5,1328 # 7530 <__global_pointer+0x2f28>
    2ee8:	00000013          	nop
    2eec:	fff78793          	addi	a5,a5,-1
    2ef0:	fe079ce3          	bnez	a5,2ee8 <desk+0x2b8>
    2ef4:	fff70713          	addi	a4,a4,-1
    2ef8:	fe0714e3          	bnez	a4,2ee0 <desk+0x2b0>
    2efc:	00008537          	lui	a0,0x8
    2f00:	98450513          	addi	a0,a0,-1660 # 7984 <__global_pointer+0x337c>
    2f04:	368000ef          	jal	326c <print>
    2f08:	00500713          	li	a4,5
    2f0c:	000077b7          	lui	a5,0x7
    2f10:	53078793          	addi	a5,a5,1328 # 7530 <__global_pointer+0x2f28>
    2f14:	00000013          	nop
    2f18:	fff78793          	addi	a5,a5,-1
    2f1c:	fe079ce3          	bnez	a5,2f14 <desk+0x2e4>
    2f20:	fff70713          	addi	a4,a4,-1
    2f24:	fe0714e3          	bnez	a4,2f0c <desk+0x2dc>
    2f28:	00008537          	lui	a0,0x8
    2f2c:	98c50513          	addi	a0,a0,-1652 # 798c <__global_pointer+0x3384>
    2f30:	33c000ef          	jal	326c <print>
    2f34:	00008537          	lui	a0,0x8
    2f38:	99850513          	addi	a0,a0,-1640 # 7998 <__global_pointer+0x3390>
    2f3c:	c20fd0ef          	jal	35c <pretty_print>
    2f40:	00008537          	lui	a0,0x8
    2f44:	9b850513          	addi	a0,a0,-1608 # 79b8 <__global_pointer+0x33b0>
    2f48:	c14fd0ef          	jal	35c <pretty_print>
    2f4c:	0009a823          	sw	zero,16(s3)
    2f50:	f29ff06f          	j	2e78 <desk+0x248>
    2f54:	00004437          	lui	s0,0x4
    2f58:	e1840513          	addi	a0,s0,-488 # 3e18 <c_energy+0xc>
    2f5c:	310000ef          	jal	326c <print>
    2f60:	00007537          	lui	a0,0x7
    2f64:	0b450513          	addi	a0,a0,180 # 70b4 <__global_pointer+0x2aac>
    2f68:	bf4fd0ef          	jal	35c <pretty_print>
    2f6c:	00007537          	lui	a0,0x7
    2f70:	0e050513          	addi	a0,a0,224 # 70e0 <__global_pointer+0x2ad8>
    2f74:	be8fd0ef          	jal	35c <pretty_print>
    2f78:	e1840513          	addi	a0,s0,-488
    2f7c:	2f0000ef          	jal	326c <print>
    2f80:	00007537          	lui	a0,0x7
    2f84:	14050513          	addi	a0,a0,320 # 7140 <__global_pointer+0x2b38>
    2f88:	bd4fd0ef          	jal	35c <pretty_print>
    2f8c:	00007537          	lui	a0,0x7
    2f90:	15c50513          	addi	a0,a0,348 # 715c <__global_pointer+0x2b54>
    2f94:	bc8fd0ef          	jal	35c <pretty_print>
    2f98:	e1840513          	addi	a0,s0,-488
    2f9c:	2d0000ef          	jal	326c <print>
    2fa0:	00007537          	lui	a0,0x7
    2fa4:	19850513          	addi	a0,a0,408 # 7198 <__global_pointer+0x2b90>
    2fa8:	bb4fd0ef          	jal	35c <pretty_print>
    2fac:	0089a703          	lw	a4,8(s3)
    2fb0:	040007b7          	lui	a5,0x4000
    2fb4:	03078793          	addi	a5,a5,48 # 4000030 <_stack_end+0x3ef6820>
    2fb8:	ff670713          	addi	a4,a4,-10
    2fbc:	00e9a423          	sw	a4,8(s3)
    2fc0:	00079023          	sh	zero,0(a5)
    2fc4:	0007d783          	lhu	a5,0(a5)
    2fc8:	0017f793          	andi	a5,a5,1
    2fcc:	c80786e3          	beqz	a5,2c58 <desk+0x28>
    2fd0:	00007537          	lui	a0,0x7
    2fd4:	1b050513          	addi	a0,a0,432 # 71b0 <__global_pointer+0x2ba8>
    2fd8:	b84fd0ef          	jal	35c <pretty_print>
    2fdc:	00007537          	lui	a0,0x7
    2fe0:	1dc50513          	addi	a0,a0,476 # 71dc <__global_pointer+0x2bd4>
    2fe4:	b78fd0ef          	jal	35c <pretty_print>
    2fe8:	00007537          	lui	a0,0x7
    2fec:	21850513          	addi	a0,a0,536 # 7218 <__global_pointer+0x2c10>
    2ff0:	b6cfd0ef          	jal	35c <pretty_print>
    2ff4:	0089a783          	lw	a5,8(s3)
    2ff8:	ffb78793          	addi	a5,a5,-5
    2ffc:	00f9a423          	sw	a5,8(s3)
    3000:	c59ff06f          	j	2c58 <desk+0x28>
    3004:	00007537          	lui	a0,0x7
    3008:	77850513          	addi	a0,a0,1912 # 7778 <__global_pointer+0x3170>
    300c:	b50fd0ef          	jal	35c <pretty_print>
    3010:	01900713          	li	a4,25
    3014:	000077b7          	lui	a5,0x7
    3018:	53078793          	addi	a5,a5,1328 # 7530 <__global_pointer+0x2f28>
    301c:	00000013          	nop
    3020:	fff78793          	addi	a5,a5,-1
    3024:	fe079ce3          	bnez	a5,301c <desk+0x3ec>
    3028:	fff70713          	addi	a4,a4,-1
    302c:	fe0714e3          	bnez	a4,3014 <desk+0x3e4>
    3030:	000074b7          	lui	s1,0x7
    3034:	7c848513          	addi	a0,s1,1992 # 77c8 <__global_pointer+0x31c0>
    3038:	b24fd0ef          	jal	35c <pretty_print>
    303c:	00f00713          	li	a4,15
    3040:	000077b7          	lui	a5,0x7
    3044:	53078793          	addi	a5,a5,1328 # 7530 <__global_pointer+0x2f28>
    3048:	00000013          	nop
    304c:	fff78793          	addi	a5,a5,-1
    3050:	fe079ce3          	bnez	a5,3048 <desk+0x418>
    3054:	fff70713          	addi	a4,a4,-1
    3058:	fe0714e3          	bnez	a4,3040 <desk+0x410>
    305c:	00004437          	lui	s0,0x4
    3060:	e1840513          	addi	a0,s0,-488 # 3e18 <c_energy+0xc>
    3064:	208000ef          	jal	326c <print>
    3068:	00007537          	lui	a0,0x7
    306c:	7cc50513          	addi	a0,a0,1996 # 77cc <__global_pointer+0x31c4>
    3070:	aecfd0ef          	jal	35c <pretty_print>
    3074:	00007537          	lui	a0,0x7
    3078:	7d450513          	addi	a0,a0,2004 # 77d4 <__global_pointer+0x31cc>
    307c:	1f0000ef          	jal	326c <print>
    3080:	01400713          	li	a4,20
    3084:	000077b7          	lui	a5,0x7
    3088:	53078793          	addi	a5,a5,1328 # 7530 <__global_pointer+0x2f28>
    308c:	00000013          	nop
    3090:	fff78793          	addi	a5,a5,-1
    3094:	fe079ce3          	bnez	a5,308c <desk+0x45c>
    3098:	fff70713          	addi	a4,a4,-1
    309c:	fe0714e3          	bnez	a4,3084 <desk+0x454>
    30a0:	00007537          	lui	a0,0x7
    30a4:	7f050513          	addi	a0,a0,2032 # 77f0 <__global_pointer+0x31e8>
    30a8:	ab4fd0ef          	jal	35c <pretty_print>
    30ac:	00008537          	lui	a0,0x8
    30b0:	81c50513          	addi	a0,a0,-2020 # 781c <__global_pointer+0x3214>
    30b4:	aa8fd0ef          	jal	35c <pretty_print>
    30b8:	00008537          	lui	a0,0x8
    30bc:	85450513          	addi	a0,a0,-1964 # 7854 <__global_pointer+0x324c>
    30c0:	a9cfd0ef          	jal	35c <pretty_print>
    30c4:	00008537          	lui	a0,0x8
    30c8:	88850513          	addi	a0,a0,-1912 # 7888 <__global_pointer+0x3280>
    30cc:	1a0000ef          	jal	326c <print>
    30d0:	00f00713          	li	a4,15
    30d4:	000077b7          	lui	a5,0x7
    30d8:	53078793          	addi	a5,a5,1328 # 7530 <__global_pointer+0x2f28>
    30dc:	00000013          	nop
    30e0:	fff78793          	addi	a5,a5,-1
    30e4:	fe079ce3          	bnez	a5,30dc <desk+0x4ac>
    30e8:	fff70713          	addi	a4,a4,-1
    30ec:	fe0714e3          	bnez	a4,30d4 <desk+0x4a4>
    30f0:	7c848513          	addi	a0,s1,1992
    30f4:	a68fd0ef          	jal	35c <pretty_print>
    30f8:	e1840513          	addi	a0,s0,-488
    30fc:	170000ef          	jal	326c <print>
    3100:	00008537          	lui	a0,0x8
    3104:	8b450513          	addi	a0,a0,-1868 # 78b4 <__global_pointer+0x32ac>
    3108:	a54fd0ef          	jal	35c <pretty_print>
    310c:	d6dff06f          	j	2e78 <desk+0x248>
    3110:	00007537          	lui	a0,0x7
    3114:	66850513          	addi	a0,a0,1640 # 7668 <__global_pointer+0x3060>
    3118:	a44fd0ef          	jal	35c <pretty_print>
    311c:	00007537          	lui	a0,0x7
    3120:	6a450513          	addi	a0,a0,1700 # 76a4 <__global_pointer+0x309c>
    3124:	a38fd0ef          	jal	35c <pretty_print>
    3128:	01400713          	li	a4,20
    312c:	000077b7          	lui	a5,0x7
    3130:	53078793          	addi	a5,a5,1328 # 7530 <__global_pointer+0x2f28>
    3134:	00000013          	nop
    3138:	fff78793          	addi	a5,a5,-1
    313c:	fe079ce3          	bnez	a5,3134 <desk+0x504>
    3140:	fff70713          	addi	a4,a4,-1
    3144:	fe0714e3          	bnez	a4,312c <desk+0x4fc>
    3148:	00007537          	lui	a0,0x7
    314c:	6f050513          	addi	a0,a0,1776 # 76f0 <__global_pointer+0x30e8>
    3150:	a0cfd0ef          	jal	35c <pretty_print>
    3154:	0009a783          	lw	a5,0(s3)
    3158:	ffb78793          	addi	a5,a5,-5
    315c:	00f9a023          	sw	a5,0(s3)
    3160:	d19ff06f          	j	2e78 <desk+0x248>
    3164:	00098513          	mv	a0,s3
    3168:	ae1fe0ef          	jal	1c48 <game_over>

0000316c <stat_check>:
    316c:	00052783          	lw	a5,0(a0)
    3170:	00f05c63          	blez	a5,3188 <stat_check+0x1c>
    3174:	00852783          	lw	a5,8(a0)
    3178:	00f05863          	blez	a5,3188 <stat_check+0x1c>
    317c:	00452783          	lw	a5,4(a0)
    3180:	00f05463          	blez	a5,3188 <stat_check+0x1c>
    3184:	00008067          	ret
    3188:	ff010113          	addi	sp,sp,-16
    318c:	00112623          	sw	ra,12(sp)
    3190:	ab9fe0ef          	jal	1c48 <game_over>

00003194 <main>:
    3194:	fb010113          	addi	sp,sp,-80
    3198:	03200793          	li	a5,50
    319c:	00f12023          	sw	a5,0(sp)
    31a0:	3e800793          	li	a5,1000
    31a4:	00f12223          	sw	a5,4(sp)
    31a8:	00600813          	li	a6,6
    31ac:	00500793          	li	a5,5
    31b0:	04112623          	sw	ra,76(sp)
    31b4:	00f12423          	sw	a5,8(sp)
    31b8:	01012623          	sw	a6,12(sp)
    31bc:	00012823          	sw	zero,16(sp)
    31c0:	00012a23          	sw	zero,20(sp)
    31c4:	00012c23          	sw	zero,24(sp)
    31c8:	00012e23          	sw	zero,28(sp)
    31cc:	02012023          	sw	zero,32(sp)
    31d0:	02012223          	sw	zero,36(sp)
    31d4:	02012423          	sw	zero,40(sp)
    31d8:	02012623          	sw	zero,44(sp)
    31dc:	02012823          	sw	zero,48(sp)
    31e0:	02012a23          	sw	zero,52(sp)
    31e4:	02012c23          	sw	zero,56(sp)
    31e8:	02012e23          	sw	zero,60(sp)
    31ec:	fff00713          	li	a4,-1
    31f0:	040006b7          	lui	a3,0x4000
    31f4:	04e68823          	sb	a4,80(a3) # 4000050 <_stack_end+0x3ef6840>
    31f8:	040007b7          	lui	a5,0x4000
    31fc:	06e78023          	sb	a4,96(a5) # 4000060 <_stack_end+0x3ef6850>
    3200:	06e78823          	sb	a4,112(a5)
    3204:	08e78023          	sb	a4,128(a5)
    3208:	08e78823          	sb	a4,144(a5)
    320c:	ffffc537          	lui	a0,0xffffc
    3210:	0ae78023          	sb	a4,160(a5)
    3214:	040005b7          	lui	a1,0x4000
    3218:	6bf50513          	addi	a0,a0,1727 # ffffc6bf <_stack_end+0xffef2eaf>
    321c:	02a59423          	sh	a0,40(a1) # 4000028 <_stack_end+0x3ef6818>
    3220:	04000637          	lui	a2,0x4000
    3224:	02d00593          	li	a1,45
    3228:	04000737          	lui	a4,0x4000
    322c:	02b61623          	sh	a1,44(a2) # 400002c <_stack_end+0x3ef681c>
    3230:	00010513          	mv	a0,sp
    3234:	03071223          	sh	a6,36(a4) # 4000024 <_stack_end+0x3ef6814>
    3238:	a55fd0ef          	jal	c8c <coffee_game>
    323c:	04c12083          	lw	ra,76(sp)
    3240:	00000513          	li	a0,0
    3244:	05010113          	addi	sp,sp,80
    3248:	00008067          	ret

0000324c <printc>:
    324c:	04000737          	lui	a4,0x4000
    3250:	04470713          	addi	a4,a4,68 # 4000044 <_stack_end+0x3ef6834>
    3254:	000106b7          	lui	a3,0x10
    3258:	00072783          	lw	a5,0(a4)
    325c:	fed7eee3          	bltu	a5,a3,3258 <printc+0xc>
    3260:	040007b7          	lui	a5,0x4000
    3264:	04a7a023          	sw	a0,64(a5) # 4000040 <_stack_end+0x3ef6830>
    3268:	00008067          	ret

0000326c <print>:
    326c:	00054603          	lbu	a2,0(a0)
    3270:	02060863          	beqz	a2,32a0 <print+0x34>
    3274:	04000737          	lui	a4,0x4000
    3278:	040005b7          	lui	a1,0x4000
    327c:	04470713          	addi	a4,a4,68 # 4000044 <_stack_end+0x3ef6834>
    3280:	000106b7          	lui	a3,0x10
    3284:	04058593          	addi	a1,a1,64 # 4000040 <_stack_end+0x3ef6830>
    3288:	00072783          	lw	a5,0(a4)
    328c:	fed7eee3          	bltu	a5,a3,3288 <print+0x1c>
    3290:	00c5a023          	sw	a2,0(a1)
    3294:	00154603          	lbu	a2,1(a0)
    3298:	00150513          	addi	a0,a0,1
    329c:	fe0616e3          	bnez	a2,3288 <print+0x1c>
    32a0:	00008067          	ret

000032a4 <print_dec>:
    32a4:	3b9ad737          	lui	a4,0x3b9ad
    32a8:	040006b7          	lui	a3,0x4000
    32ac:	04000337          	lui	t1,0x4000
    32b0:	00a00593          	li	a1,10
    32b4:	00000793          	li	a5,0
    32b8:	a0070713          	addi	a4,a4,-1536 # 3b9aca00 <_stack_end+0x3b8a31f0>
    32bc:	04468693          	addi	a3,a3,68 # 4000044 <_stack_end+0x3ef6834>
    32c0:	00010637          	lui	a2,0x10
    32c4:	04030313          	addi	t1,t1,64 # 4000040 <_stack_end+0x3ef6830>
    32c8:	00a00893          	li	a7,10
    32cc:	04e57063          	bgeu	a0,a4,330c <print_dec+0x68>
    32d0:	02079e63          	bnez	a5,330c <print_dec+0x68>
    32d4:	fff58593          	addi	a1,a1,-1
    32d8:	02e57533          	remu	a0,a0,a4
    32dc:	03175733          	divu	a4,a4,a7
    32e0:	fe0596e3          	bnez	a1,32cc <print_dec+0x28>
    32e4:	02079263          	bnez	a5,3308 <print_dec+0x64>
    32e8:	04000737          	lui	a4,0x4000
    32ec:	04470713          	addi	a4,a4,68 # 4000044 <_stack_end+0x3ef6834>
    32f0:	000106b7          	lui	a3,0x10
    32f4:	00072783          	lw	a5,0(a4)
    32f8:	fed7eee3          	bltu	a5,a3,32f4 <print_dec+0x50>
    32fc:	040007b7          	lui	a5,0x4000
    3300:	03000713          	li	a4,48
    3304:	04e7a023          	sw	a4,64(a5) # 4000040 <_stack_end+0x3ef6830>
    3308:	00008067          	ret
    330c:	02e55833          	divu	a6,a0,a4
    3310:	03080813          	addi	a6,a6,48
    3314:	0ff87813          	zext.b	a6,a6
    3318:	0006a783          	lw	a5,0(a3) # 10000 <__global_pointer+0xb9f8>
    331c:	fec7eee3          	bltu	a5,a2,3318 <print_dec+0x74>
    3320:	01032023          	sw	a6,0(t1)
    3324:	00100793          	li	a5,1
    3328:	fadff06f          	j	32d4 <print_dec+0x30>

0000332c <print_hex32>:
    332c:	04000737          	lui	a4,0x4000
    3330:	04470713          	addi	a4,a4,68 # 4000044 <_stack_end+0x3ef6834>
    3334:	000106b7          	lui	a3,0x10
    3338:	00072783          	lw	a5,0(a4)
    333c:	fed7eee3          	bltu	a5,a3,3338 <print_hex32+0xc>
    3340:	03000693          	li	a3,48
    3344:	040007b7          	lui	a5,0x4000
    3348:	04000737          	lui	a4,0x4000
    334c:	04d7a023          	sw	a3,64(a5) # 4000040 <_stack_end+0x3ef6830>
    3350:	04470713          	addi	a4,a4,68 # 4000044 <_stack_end+0x3ef6834>
    3354:	000106b7          	lui	a3,0x10
    3358:	00072783          	lw	a5,0(a4)
    335c:	fed7eee3          	bltu	a5,a3,3358 <print_hex32+0x2c>
    3360:	04000837          	lui	a6,0x4000
    3364:	04080813          	addi	a6,a6,64 # 4000040 <_stack_end+0x3ef6830>
    3368:	04000737          	lui	a4,0x4000
    336c:	07800793          	li	a5,120
    3370:	00f82023          	sw	a5,0(a6)
    3374:	01c00613          	li	a2,28
    3378:	00900313          	li	t1,9
    337c:	04470713          	addi	a4,a4,68 # 4000044 <_stack_end+0x3ef6834>
    3380:	000106b7          	lui	a3,0x10
    3384:	ffc00893          	li	a7,-4
    3388:	00c557b3          	srl	a5,a0,a2
    338c:	00f7f793          	andi	a5,a5,15
    3390:	03778593          	addi	a1,a5,55
    3394:	00f36463          	bltu	t1,a5,339c <print_hex32+0x70>
    3398:	03078593          	addi	a1,a5,48
    339c:	00072783          	lw	a5,0(a4)
    33a0:	fed7eee3          	bltu	a5,a3,339c <print_hex32+0x70>
    33a4:	00b82023          	sw	a1,0(a6)
    33a8:	ffc60613          	addi	a2,a2,-4 # fffc <__global_pointer+0xb9f4>
    33ac:	fd161ee3          	bne	a2,a7,3388 <print_hex32+0x5c>
    33b0:	00008067          	ret

000033b4 <handle_exception>:
    33b4:	00200793          	li	a5,2
    33b8:	18f80863          	beq	a6,a5,3548 <handle_exception+0x194>
    33bc:	00b00793          	li	a5,11
    33c0:	12f80063          	beq	a6,a5,34e0 <handle_exception+0x12c>
    33c4:	04000737          	lui	a4,0x4000
    33c8:	14081463          	bnez	a6,3510 <handle_exception+0x15c>
    33cc:	04000837          	lui	a6,0x4000
    33d0:	00009637          	lui	a2,0x9
    33d4:	78860613          	addi	a2,a2,1928 # 9788 <__global_pointer+0x5180>
    33d8:	00a00593          	li	a1,10
    33dc:	04470713          	addi	a4,a4,68 # 4000044 <_stack_end+0x3ef6834>
    33e0:	000106b7          	lui	a3,0x10
    33e4:	04080813          	addi	a6,a6,64 # 4000040 <_stack_end+0x3ef6830>
    33e8:	00072783          	lw	a5,0(a4)
    33ec:	fed7eee3          	bltu	a5,a3,33e8 <handle_exception+0x34>
    33f0:	00b82023          	sw	a1,0(a6)
    33f4:	00164583          	lbu	a1,1(a2)
    33f8:	00160613          	addi	a2,a2,1
    33fc:	fe0596e3          	bnez	a1,33e8 <handle_exception+0x34>
    3400:	04000737          	lui	a4,0x4000
    3404:	04000837          	lui	a6,0x4000
    3408:	00009637          	lui	a2,0x9
    340c:	7fc60613          	addi	a2,a2,2044 # 97fc <__global_pointer+0x51f4>
    3410:	04500593          	li	a1,69
    3414:	04470713          	addi	a4,a4,68 # 4000044 <_stack_end+0x3ef6834>
    3418:	000106b7          	lui	a3,0x10
    341c:	04080813          	addi	a6,a6,64 # 4000040 <_stack_end+0x3ef6830>
    3420:	00072783          	lw	a5,0(a4)
    3424:	fed7eee3          	bltu	a5,a3,3420 <handle_exception+0x6c>
    3428:	00b82023          	sw	a1,0(a6)
    342c:	00164583          	lbu	a1,1(a2)
    3430:	00160613          	addi	a2,a2,1
    3434:	fe0596e3          	bnez	a1,3420 <handle_exception+0x6c>
    3438:	04000737          	lui	a4,0x4000
    343c:	04470713          	addi	a4,a4,68 # 4000044 <_stack_end+0x3ef6834>
    3440:	000106b7          	lui	a3,0x10
    3444:	00072783          	lw	a5,0(a4)
    3448:	fed7eee3          	bltu	a5,a3,3444 <handle_exception+0x90>
    344c:	03000693          	li	a3,48
    3450:	040007b7          	lui	a5,0x4000
    3454:	04000737          	lui	a4,0x4000
    3458:	04d7a023          	sw	a3,64(a5) # 4000040 <_stack_end+0x3ef6830>
    345c:	04470713          	addi	a4,a4,68 # 4000044 <_stack_end+0x3ef6834>
    3460:	000106b7          	lui	a3,0x10
    3464:	00072783          	lw	a5,0(a4)
    3468:	fed7eee3          	bltu	a5,a3,3464 <handle_exception+0xb0>
    346c:	04000837          	lui	a6,0x4000
    3470:	04080813          	addi	a6,a6,64 # 4000040 <_stack_end+0x3ef6830>
    3474:	04000737          	lui	a4,0x4000
    3478:	07800793          	li	a5,120
    347c:	00f82023          	sw	a5,0(a6)
    3480:	01c00613          	li	a2,28
    3484:	00900313          	li	t1,9
    3488:	04470713          	addi	a4,a4,68 # 4000044 <_stack_end+0x3ef6834>
    348c:	000106b7          	lui	a3,0x10
    3490:	ffc00893          	li	a7,-4
    3494:	00c557b3          	srl	a5,a0,a2
    3498:	00f7f793          	andi	a5,a5,15
    349c:	03778593          	addi	a1,a5,55
    34a0:	00f36463          	bltu	t1,a5,34a8 <handle_exception+0xf4>
    34a4:	03078593          	addi	a1,a5,48
    34a8:	00072783          	lw	a5,0(a4)
    34ac:	fed7eee3          	bltu	a5,a3,34a8 <handle_exception+0xf4>
    34b0:	00b82023          	sw	a1,0(a6)
    34b4:	ffc60613          	addi	a2,a2,-4
    34b8:	fd161ee3          	bne	a2,a7,3494 <handle_exception+0xe0>
    34bc:	04000737          	lui	a4,0x4000
    34c0:	04470713          	addi	a4,a4,68 # 4000044 <_stack_end+0x3ef6834>
    34c4:	000106b7          	lui	a3,0x10
    34c8:	00072783          	lw	a5,0(a4)
    34cc:	fed7eee3          	bltu	a5,a3,34c8 <handle_exception+0x114>
    34d0:	040007b7          	lui	a5,0x4000
    34d4:	00a00713          	li	a4,10
    34d8:	04e7a023          	sw	a4,64(a5) # 4000040 <_stack_end+0x3ef6830>
    34dc:	0000006f          	j	34dc <handle_exception+0x128>
    34e0:	00400793          	li	a5,4
    34e4:	0af88063          	beq	a7,a5,3584 <handle_exception+0x1d0>
    34e8:	0d089a63          	bne	a7,a6,35bc <handle_exception+0x208>
    34ec:	04000737          	lui	a4,0x4000
    34f0:	04470713          	addi	a4,a4,68 # 4000044 <_stack_end+0x3ef6834>
    34f4:	000106b7          	lui	a3,0x10
    34f8:	00072783          	lw	a5,0(a4)
    34fc:	fed7eee3          	bltu	a5,a3,34f8 <handle_exception+0x144>
    3500:	040007b7          	lui	a5,0x4000
    3504:	0ff57513          	zext.b	a0,a0
    3508:	04a7a023          	sw	a0,64(a5) # 4000040 <_stack_end+0x3ef6830>
    350c:	00008067          	ret
    3510:	04000837          	lui	a6,0x4000
    3514:	00009637          	lui	a2,0x9
    3518:	7dc60613          	addi	a2,a2,2012 # 97dc <__global_pointer+0x51d4>
    351c:	00a00593          	li	a1,10
    3520:	04470713          	addi	a4,a4,68
    3524:	000106b7          	lui	a3,0x10
    3528:	04080813          	addi	a6,a6,64 # 4000040 <_stack_end+0x3ef6830>
    352c:	00072783          	lw	a5,0(a4)
    3530:	fed7eee3          	bltu	a5,a3,352c <handle_exception+0x178>
    3534:	00b82023          	sw	a1,0(a6)
    3538:	00164583          	lbu	a1,1(a2)
    353c:	00160613          	addi	a2,a2,1
    3540:	fe0596e3          	bnez	a1,352c <handle_exception+0x178>
    3544:	ebdff06f          	j	3400 <handle_exception+0x4c>
    3548:	04000737          	lui	a4,0x4000
    354c:	04000837          	lui	a6,0x4000
    3550:	00009637          	lui	a2,0x9
    3554:	7b860613          	addi	a2,a2,1976 # 97b8 <__global_pointer+0x51b0>
    3558:	00a00593          	li	a1,10
    355c:	04470713          	addi	a4,a4,68 # 4000044 <_stack_end+0x3ef6834>
    3560:	000106b7          	lui	a3,0x10
    3564:	04080813          	addi	a6,a6,64 # 4000040 <_stack_end+0x3ef6830>
    3568:	00072783          	lw	a5,0(a4)
    356c:	fed7eee3          	bltu	a5,a3,3568 <handle_exception+0x1b4>
    3570:	00b82023          	sw	a1,0(a6)
    3574:	00164583          	lbu	a1,1(a2)
    3578:	00160613          	addi	a2,a2,1
    357c:	fe0596e3          	bnez	a1,3568 <handle_exception+0x1b4>
    3580:	e81ff06f          	j	3400 <handle_exception+0x4c>
    3584:	00054603          	lbu	a2,0(a0)
    3588:	02060a63          	beqz	a2,35bc <handle_exception+0x208>
    358c:	04000737          	lui	a4,0x4000
    3590:	040005b7          	lui	a1,0x4000
    3594:	04470713          	addi	a4,a4,68 # 4000044 <_stack_end+0x3ef6834>
    3598:	000106b7          	lui	a3,0x10
    359c:	04058593          	addi	a1,a1,64 # 4000040 <_stack_end+0x3ef6830>
    35a0:	00072783          	lw	a5,0(a4)
    35a4:	fed7eee3          	bltu	a5,a3,35a0 <handle_exception+0x1ec>
    35a8:	00c5a023          	sw	a2,0(a1)
    35ac:	00154603          	lbu	a2,1(a0)
    35b0:	00150513          	addi	a0,a0,1
    35b4:	fe0616e3          	bnez	a2,35a0 <handle_exception+0x1ec>
    35b8:	00008067          	ret
    35bc:	00008067          	ret

000035c0 <nextprime>:
    35c0:	00200713          	li	a4,2
    35c4:	00050793          	mv	a5,a0
    35c8:	02a74063          	blt	a4,a0,35e8 <nextprime+0x28>
    35cc:	00100513          	li	a0,1
    35d0:	00f05a63          	blez	a5,35e4 <nextprime+0x24>
    35d4:	fff78793          	addi	a5,a5,-1
    35d8:	00f037b3          	snez	a5,a5
    35dc:	00278513          	addi	a0,a5,2
    35e0:	00008067          	ret
    35e4:	00008067          	ret
    35e8:	00150793          	addi	a5,a0,1
    35ec:	0017e513          	ori	a0,a5,1
    35f0:	00300613          	li	a2,3
    35f4:	02c567b3          	rem	a5,a0,a2
    35f8:	40155693          	srai	a3,a0,0x1
    35fc:	02078263          	beqz	a5,3620 <nextprime+0x60>
    3600:	00268693          	addi	a3,a3,2 # 10002 <__global_pointer+0xb9fa>
    3604:	00300793          	li	a5,3
    3608:	00c0006f          	j	3614 <nextprime+0x54>
    360c:	02f56733          	rem	a4,a0,a5
    3610:	00070863          	beqz	a4,3620 <nextprime+0x60>
    3614:	00178793          	addi	a5,a5,1
    3618:	fef69ae3          	bne	a3,a5,360c <nextprime+0x4c>
    361c:	00008067          	ret
    3620:	00250513          	addi	a0,a0,2
    3624:	fd1ff06f          	j	35f4 <nextprime+0x34>
